

Microchip MPLAB XC8 Assembler V2.10 build 88905656 
                                                                                               Wed Mar 18 20:37:25 2020

Microchip MPLAB XC8 C Compiler v2.10 (Free license) build 20190730164152 Og1 
     1                           	processor	16F887
     2                           	opt	pw 120
     3                           	opt	flic
     4                           	psect	idataBANK1,global,class=CODE,delta=2
     5                           	psect	strings,global,class=STRING,delta=2
     6                           	psect	cinit,global,class=CODE,merge=1,delta=2
     7                           	psect	bssBANK0,global,class=BANK0,space=1,delta=1
     8                           	psect	bssBANK1,global,class=BANK1,space=1,delta=1
     9                           	psect	dataBANK1,global,class=BANK1,space=1,delta=1
    10                           	psect	bssBANK3,global,class=BANK3,space=1,delta=1
    11                           	psect	clrtext,global,class=CODE,delta=2
    12                           	psect	cstackBANK1,global,class=BANK1,space=1,delta=1
    13                           	psect	cstackCOMMON,global,class=COMMON,space=1,delta=1
    14                           	psect	cstackBANK0,global,class=BANK0,space=1,delta=1
    15                           	psect	maintext,global,class=CODE,split=1,delta=2
    16                           	psect	text1,local,class=CODE,merge=1,delta=2,group=2
    17                           	psect	text2,local,class=CODE,merge=1,delta=2,group=2
    18                           	psect	text3,local,class=CODE,merge=1,delta=2,group=1
    19                           	psect	text4,local,class=CODE,merge=1,delta=2,group=2
    20                           	psect	text5,local,class=CODE,merge=1,delta=2,group=1
    21                           	psect	text6,local,class=CODE,merge=1,delta=2,group=1
    22                           	psect	text7,local,class=CODE,merge=1,delta=2,group=1
    23                           	psect	text8,local,class=CODE,merge=1,delta=2,group=1
    24                           	psect	text9,local,class=CODE,merge=1,delta=2,group=1
    25                           	psect	text10,local,class=CODE,merge=1,delta=2
    26                           	psect	text11,local,class=CODE,merge=1,delta=2
    27                           	psect	text12,local,class=CODE,merge=1,delta=2
    28                           	psect	text13,local,class=CODE,merge=1,delta=2
    29                           	psect	text14,local,class=CODE,merge=1,delta=2
    30                           	psect	text15,local,class=CODE,merge=1,delta=2
    31                           	psect	text16,local,class=CODE,merge=1,delta=2,group=1
    32                           	psect	text17,local,class=CODE,merge=1,delta=2,group=1
    33                           	psect	text18,local,class=CODE,merge=1,delta=2,group=1
    34                           	psect	text19,local,class=CODE,merge=1,delta=2,group=1
    35                           	psect	text20,local,class=CODE,merge=1,delta=2,group=1
    36                           	psect	text21,local,class=CODE,merge=1,delta=2,group=1
    37                           	psect	text22,local,class=CODE,merge=1,delta=2
    38                           	psect	text23,local,class=CODE,merge=1,delta=2
    39                           	psect	text24,local,class=CODE,merge=1,delta=2
    40                           	psect	text25,local,class=CODE,merge=1,delta=2,group=1
    41                           	psect	text26,local,class=CODE,merge=1,delta=2
    42                           	psect	text27,local,class=CODE,merge=1,delta=2
    43                           	psect	text28,local,class=CODE,merge=1,delta=2
    44                           	psect	text29,local,class=CODE,merge=1,delta=2
    45                           	psect	text30,local,class=CODE,merge=1,delta=2
    46                           	psect	text31,local,class=CODE,merge=1,delta=2
    47                           	psect	text32,local,class=CODE,merge=1,delta=2
    48                           	psect	text33,local,class=CODE,merge=1,delta=2
    49                           	psect	text34,local,class=CODE,merge=1,delta=2
    50                           	dabs	1,0x7E,2
    51  0000                     
    52                           ; Version 2.10
    53                           ; Generated 31/07/2019 GMT
    54                           ; 
    55                           ; Copyright © 2019, Microchip Technology Inc. and its subsidiaries ("Microchip")
    56                           ; All rights reserved.
    57                           ; 
    58                           ; This software is developed by Microchip Technology Inc. and its subsidiaries ("Microch
      +                          ip").
    59                           ; 
    60                           ; Redistribution and use in source and binary forms, with or without modification, are
    61                           ; permitted provided that the following conditions are met:
    62                           ; 
    63                           ;     1. Redistributions of source code must retain the above copyright notice, this lis
      +                          t of
    64                           ;        conditions and the following disclaimer.
    65                           ; 
    66                           ;     2. Redistributions in binary form must reproduce the above copyright notice, this 
      +                          list
    67                           ;        of conditions and the following disclaimer in the documentation and/or other
    68                           ;        materials provided with the distribution.
    69                           ; 
    70                           ;     3. Microchip's name may not be used to endorse or promote products derived from th
      +                          is
    71                           ;        software without specific prior written permission.
    72                           ; 
    73                           ; THIS SOFTWARE IS PROVIDED BY MICROCHIP "AS IS" AND ANY EXPRESS OR IMPLIED WARRANTIES,
    74                           ; INCLUDING, BUT NOT LIMITED TO, THE IMPLIED WARRANTIES OF MERCHANTABILITY AND FITNESS F
      +                          OR
    75                           ; PURPOSE ARE DISCLAIMED.  IN NO EVENT SHALL MICROCHIP BE LIABLE FOR ANY DIRECT, INDIREC
      +                          T,
    76                           ; INCIDENTAL, SPECIAL, EXEMPLARY, OR CONSEQUENTIAL DAMAGES (INCLUDING BUT NOT LIMITED TO
    77                           ; PROCUREMENT OF SUBSTITUTE GOODS OR SERVICES; LOSS OF USE, DATA OR PROFITS; OR BUSINESS
    78                           ; INTERRUPTION) HOWSOEVER CAUSED AND ON ANY THEORY OF LIABILITY, WHETHER IN CONTRACT, ST
      +                          RICT
    79                           ; LIABILITY, OR TORT (INCLUDING NEGLIGENCE OR OTHERWISE) ARISING IN ANY WAY OUT OF THE U
      +                          SE OF
    80                           ; THIS SOFTWARE, EVEN IF ADVISED OF THE POSSIBILITY OF SUCH DAMAGE.
    81                           ; 
    82                           ; 
    83                           ; Code-generator required, PIC16F887 Definitions
    84                           ; 
    85                           ; SFR Addresses
    86  0000                     	;# 
    87  0001                     	;# 
    88  0002                     	;# 
    89  0003                     	;# 
    90  0004                     	;# 
    91  0005                     	;# 
    92  0006                     	;# 
    93  0007                     	;# 
    94  0008                     	;# 
    95  0009                     	;# 
    96  000A                     	;# 
    97  000B                     	;# 
    98  000C                     	;# 
    99  000D                     	;# 
   100  000E                     	;# 
   101  000E                     	;# 
   102  000F                     	;# 
   103  0010                     	;# 
   104  0011                     	;# 
   105  0012                     	;# 
   106  0013                     	;# 
   107  0014                     	;# 
   108  0015                     	;# 
   109  0015                     	;# 
   110  0016                     	;# 
   111  0017                     	;# 
   112  0018                     	;# 
   113  0019                     	;# 
   114  001A                     	;# 
   115  001B                     	;# 
   116  001B                     	;# 
   117  001C                     	;# 
   118  001D                     	;# 
   119  001E                     	;# 
   120  001F                     	;# 
   121  0081                     	;# 
   122  0085                     	;# 
   123  0086                     	;# 
   124  0087                     	;# 
   125  0088                     	;# 
   126  0089                     	;# 
   127  008C                     	;# 
   128  008D                     	;# 
   129  008E                     	;# 
   130  008F                     	;# 
   131  0090                     	;# 
   132  0091                     	;# 
   133  0092                     	;# 
   134  0093                     	;# 
   135  0093                     	;# 
   136  0093                     	;# 
   137  0094                     	;# 
   138  0095                     	;# 
   139  0096                     	;# 
   140  0097                     	;# 
   141  0098                     	;# 
   142  0099                     	;# 
   143  009A                     	;# 
   144  009B                     	;# 
   145  009C                     	;# 
   146  009D                     	;# 
   147  009E                     	;# 
   148  009F                     	;# 
   149  0105                     	;# 
   150  0107                     	;# 
   151  0108                     	;# 
   152  0109                     	;# 
   153  010C                     	;# 
   154  010C                     	;# 
   155  010D                     	;# 
   156  010E                     	;# 
   157  010F                     	;# 
   158  0185                     	;# 
   159  0187                     	;# 
   160  0188                     	;# 
   161  0189                     	;# 
   162  018C                     	;# 
   163  018D                     	;# 
   164  0000                     	;# 
   165  0001                     	;# 
   166  0002                     	;# 
   167  0003                     	;# 
   168  0004                     	;# 
   169  0005                     	;# 
   170  0006                     	;# 
   171  0007                     	;# 
   172  0008                     	;# 
   173  0009                     	;# 
   174  000A                     	;# 
   175  000B                     	;# 
   176  000C                     	;# 
   177  000D                     	;# 
   178  000E                     	;# 
   179  000E                     	;# 
   180  000F                     	;# 
   181  0010                     	;# 
   182  0011                     	;# 
   183  0012                     	;# 
   184  0013                     	;# 
   185  0014                     	;# 
   186  0015                     	;# 
   187  0015                     	;# 
   188  0016                     	;# 
   189  0017                     	;# 
   190  0018                     	;# 
   191  0019                     	;# 
   192  001A                     	;# 
   193  001B                     	;# 
   194  001B                     	;# 
   195  001C                     	;# 
   196  001D                     	;# 
   197  001E                     	;# 
   198  001F                     	;# 
   199  0081                     	;# 
   200  0085                     	;# 
   201  0086                     	;# 
   202  0087                     	;# 
   203  0088                     	;# 
   204  0089                     	;# 
   205  008C                     	;# 
   206  008D                     	;# 
   207  008E                     	;# 
   208  008F                     	;# 
   209  0090                     	;# 
   210  0091                     	;# 
   211  0092                     	;# 
   212  0093                     	;# 
   213  0093                     	;# 
   214  0093                     	;# 
   215  0094                     	;# 
   216  0095                     	;# 
   217  0096                     	;# 
   218  0097                     	;# 
   219  0098                     	;# 
   220  0099                     	;# 
   221  009A                     	;# 
   222  009B                     	;# 
   223  009C                     	;# 
   224  009D                     	;# 
   225  009E                     	;# 
   226  009F                     	;# 
   227  0105                     	;# 
   228  0107                     	;# 
   229  0108                     	;# 
   230  0109                     	;# 
   231  010C                     	;# 
   232  010C                     	;# 
   233  010D                     	;# 
   234  010E                     	;# 
   235  010F                     	;# 
   236  0185                     	;# 
   237  0187                     	;# 
   238  0188                     	;# 
   239  0189                     	;# 
   240  018C                     	;# 
   241  018D                     	;# 
   242  0000                     	;# 
   243  0001                     	;# 
   244  0002                     	;# 
   245  0003                     	;# 
   246  0004                     	;# 
   247  0005                     	;# 
   248  0006                     	;# 
   249  0007                     	;# 
   250  0008                     	;# 
   251  0009                     	;# 
   252  000A                     	;# 
   253  000B                     	;# 
   254  000C                     	;# 
   255  000D                     	;# 
   256  000E                     	;# 
   257  000E                     	;# 
   258  000F                     	;# 
   259  0010                     	;# 
   260  0011                     	;# 
   261  0012                     	;# 
   262  0013                     	;# 
   263  0014                     	;# 
   264  0015                     	;# 
   265  0015                     	;# 
   266  0016                     	;# 
   267  0017                     	;# 
   268  0018                     	;# 
   269  0019                     	;# 
   270  001A                     	;# 
   271  001B                     	;# 
   272  001B                     	;# 
   273  001C                     	;# 
   274  001D                     	;# 
   275  001E                     	;# 
   276  001F                     	;# 
   277  0081                     	;# 
   278  0085                     	;# 
   279  0086                     	;# 
   280  0087                     	;# 
   281  0088                     	;# 
   282  0089                     	;# 
   283  008C                     	;# 
   284  008D                     	;# 
   285  008E                     	;# 
   286  008F                     	;# 
   287  0090                     	;# 
   288  0091                     	;# 
   289  0092                     	;# 
   290  0093                     	;# 
   291  0093                     	;# 
   292  0093                     	;# 
   293  0094                     	;# 
   294  0095                     	;# 
   295  0096                     	;# 
   296  0097                     	;# 
   297  0098                     	;# 
   298  0099                     	;# 
   299  009A                     	;# 
   300  009B                     	;# 
   301  009C                     	;# 
   302  009D                     	;# 
   303  009E                     	;# 
   304  009F                     	;# 
   305  0105                     	;# 
   306  0107                     	;# 
   307  0108                     	;# 
   308  0109                     	;# 
   309  010C                     	;# 
   310  010C                     	;# 
   311  010D                     	;# 
   312  010E                     	;# 
   313  010F                     	;# 
   314  0185                     	;# 
   315  0187                     	;# 
   316  0188                     	;# 
   317  0189                     	;# 
   318  018C                     	;# 
   319  018D                     	;# 
   320  0000                     	;# 
   321  0001                     	;# 
   322  0002                     	;# 
   323  0003                     	;# 
   324  0004                     	;# 
   325  0005                     	;# 
   326  0006                     	;# 
   327  0007                     	;# 
   328  0008                     	;# 
   329  0009                     	;# 
   330  000A                     	;# 
   331  000B                     	;# 
   332  000C                     	;# 
   333  000D                     	;# 
   334  000E                     	;# 
   335  000E                     	;# 
   336  000F                     	;# 
   337  0010                     	;# 
   338  0011                     	;# 
   339  0012                     	;# 
   340  0013                     	;# 
   341  0014                     	;# 
   342  0015                     	;# 
   343  0015                     	;# 
   344  0016                     	;# 
   345  0017                     	;# 
   346  0018                     	;# 
   347  0019                     	;# 
   348  001A                     	;# 
   349  001B                     	;# 
   350  001B                     	;# 
   351  001C                     	;# 
   352  001D                     	;# 
   353  001E                     	;# 
   354  001F                     	;# 
   355  0081                     	;# 
   356  0085                     	;# 
   357  0086                     	;# 
   358  0087                     	;# 
   359  0088                     	;# 
   360  0089                     	;# 
   361  008C                     	;# 
   362  008D                     	;# 
   363  008E                     	;# 
   364  008F                     	;# 
   365  0090                     	;# 
   366  0091                     	;# 
   367  0092                     	;# 
   368  0093                     	;# 
   369  0093                     	;# 
   370  0093                     	;# 
   371  0094                     	;# 
   372  0095                     	;# 
   373  0096                     	;# 
   374  0097                     	;# 
   375  0098                     	;# 
   376  0099                     	;# 
   377  009A                     	;# 
   378  009B                     	;# 
   379  009C                     	;# 
   380  009D                     	;# 
   381  009E                     	;# 
   382  009F                     	;# 
   383  0105                     	;# 
   384  0107                     	;# 
   385  0108                     	;# 
   386  0109                     	;# 
   387  010C                     	;# 
   388  010C                     	;# 
   389  010D                     	;# 
   390  010E                     	;# 
   391  010F                     	;# 
   392  0185                     	;# 
   393  0187                     	;# 
   394  0188                     	;# 
   395  0189                     	;# 
   396  018C                     	;# 
   397  018D                     	;# 
   398  0000                     	;# 
   399  0001                     	;# 
   400  0002                     	;# 
   401  0003                     	;# 
   402  0004                     	;# 
   403  0005                     	;# 
   404  0006                     	;# 
   405  0007                     	;# 
   406  0008                     	;# 
   407  0009                     	;# 
   408  000A                     	;# 
   409  000B                     	;# 
   410  000C                     	;# 
   411  000D                     	;# 
   412  000E                     	;# 
   413  000E                     	;# 
   414  000F                     	;# 
   415  0010                     	;# 
   416  0011                     	;# 
   417  0012                     	;# 
   418  0013                     	;# 
   419  0014                     	;# 
   420  0015                     	;# 
   421  0015                     	;# 
   422  0016                     	;# 
   423  0017                     	;# 
   424  0018                     	;# 
   425  0019                     	;# 
   426  001A                     	;# 
   427  001B                     	;# 
   428  001B                     	;# 
   429  001C                     	;# 
   430  001D                     	;# 
   431  001E                     	;# 
   432  001F                     	;# 
   433  0081                     	;# 
   434  0085                     	;# 
   435  0086                     	;# 
   436  0087                     	;# 
   437  0088                     	;# 
   438  0089                     	;# 
   439  008C                     	;# 
   440  008D                     	;# 
   441  008E                     	;# 
   442  008F                     	;# 
   443  0090                     	;# 
   444  0091                     	;# 
   445  0092                     	;# 
   446  0093                     	;# 
   447  0093                     	;# 
   448  0093                     	;# 
   449  0094                     	;# 
   450  0095                     	;# 
   451  0096                     	;# 
   452  0097                     	;# 
   453  0098                     	;# 
   454  0099                     	;# 
   455  009A                     	;# 
   456  009B                     	;# 
   457  009C                     	;# 
   458  009D                     	;# 
   459  009E                     	;# 
   460  009F                     	;# 
   461  0105                     	;# 
   462  0107                     	;# 
   463  0108                     	;# 
   464  0109                     	;# 
   465  010C                     	;# 
   466  010C                     	;# 
   467  010D                     	;# 
   468  010E                     	;# 
   469  010F                     	;# 
   470  0185                     	;# 
   471  0187                     	;# 
   472  0188                     	;# 
   473  0189                     	;# 
   474  018C                     	;# 
   475  018D                     	;# 
   476  0000                     	;# 
   477  0001                     	;# 
   478  0002                     	;# 
   479  0003                     	;# 
   480  0004                     	;# 
   481  0005                     	;# 
   482  0006                     	;# 
   483  0007                     	;# 
   484  0008                     	;# 
   485  0009                     	;# 
   486  000A                     	;# 
   487  000B                     	;# 
   488  000C                     	;# 
   489  000D                     	;# 
   490  000E                     	;# 
   491  000E                     	;# 
   492  000F                     	;# 
   493  0010                     	;# 
   494  0011                     	;# 
   495  0012                     	;# 
   496  0013                     	;# 
   497  0014                     	;# 
   498  0015                     	;# 
   499  0015                     	;# 
   500  0016                     	;# 
   501  0017                     	;# 
   502  0018                     	;# 
   503  0019                     	;# 
   504  001A                     	;# 
   505  001B                     	;# 
   506  001B                     	;# 
   507  001C                     	;# 
   508  001D                     	;# 
   509  001E                     	;# 
   510  001F                     	;# 
   511  0081                     	;# 
   512  0085                     	;# 
   513  0086                     	;# 
   514  0087                     	;# 
   515  0088                     	;# 
   516  0089                     	;# 
   517  008C                     	;# 
   518  008D                     	;# 
   519  008E                     	;# 
   520  008F                     	;# 
   521  0090                     	;# 
   522  0091                     	;# 
   523  0092                     	;# 
   524  0093                     	;# 
   525  0093                     	;# 
   526  0093                     	;# 
   527  0094                     	;# 
   528  0095                     	;# 
   529  0096                     	;# 
   530  0097                     	;# 
   531  0098                     	;# 
   532  0099                     	;# 
   533  009A                     	;# 
   534  009B                     	;# 
   535  009C                     	;# 
   536  009D                     	;# 
   537  009E                     	;# 
   538  009F                     	;# 
   539  0105                     	;# 
   540  0107                     	;# 
   541  0108                     	;# 
   542  0109                     	;# 
   543  010C                     	;# 
   544  010C                     	;# 
   545  010D                     	;# 
   546  010E                     	;# 
   547  010F                     	;# 
   548  0185                     	;# 
   549  0187                     	;# 
   550  0188                     	;# 
   551  0189                     	;# 
   552  018C                     	;# 
   553  018D                     	;# 
   554                           
   555                           	psect	idataBANK1
   556  0008                     __pidataBANK1:	
   557                           
   558                           ;initializer for _estado
   559  0008  3401               	retlw	1
   560                           
   561                           	psect	strings
   562  1000                     __pstrings:	
   563  1000                     stringtab:	
   564  1000                     __stringtab:	
   565  1000                     stringcode:	
   566                           ;	String table - string pointers are 1 byte each
   567                           
   568  1000                     stringdir:	
   569  1000  3010               	movlw	high stringdir
   570  1001  008A               	movwf	10
   571  1002  0804               	movf	4,w
   572  1003  0A84               	incf	4,f
   573  1004  0782               	addwf	2,f
   574  1005                     __stringbase:	
   575  1005  3400               	retlw	0
   576  1006                     __end_of__stringtab:	
   577  1006                     _adcMax:	
   578  1006  3400               	retlw	0
   579  1007  34C0               	retlw	192
   580  1008  347F               	retlw	127
   581  1009  3444               	retlw	68
   582  100A                     __end_of_adcMax:	
   583  100A                     log@coeff:	
   584  100A  3400               	retlw	0
   585  100B  3400               	retlw	0
   586  100C  3400               	retlw	0
   587  100D  3400               	retlw	0
   588  100E  34C4               	retlw	196
   589  100F  34FF               	retlw	255
   590  1010  347F               	retlw	127
   591  1011  343F               	retlw	63
   592  1012  3480               	retlw	128
   593  1013  34EF               	retlw	239
   594  1014  34FF               	retlw	255
   595  1015  34BE               	retlw	190
   596  1016  3490               	retlw	144
   597  1017  34E1               	retlw	225
   598  1018  34A9               	retlw	169
   599  1019  343E               	retlw	62
   600  101A  34EC               	retlw	236
   601  101B  3482               	retlw	130
   602  101C  3476               	retlw	118
   603  101D  34BE               	retlw	190
   604  101E  3482               	retlw	130
   605  101F  34AD               	retlw	173
   606  1020  342B               	retlw	43
   607  1021  343E               	retlw	62
   608  1022  340E               	retlw	14
   609  1023  343C               	retlw	60
   610  1024  34C3               	retlw	195
   611  1025  34BD               	retlw	189
   612  1026  3487               	retlw	135
   613  1027  34D1               	retlw	209
   614  1028  3413               	retlw	19
   615  1029  343D               	retlw	61
   616  102A  3441               	retlw	65
   617  102B  3478               	retlw	120
   618  102C  34D3               	retlw	211
   619  102D  34BB               	retlw	187
   620  102E                     __end_oflog@coeff:	
   621  102E                     _invT0:	
   622  102E  340F               	retlw	15
   623  102F  34CF               	retlw	207
   624  1030  345B               	retlw	91
   625  1031  343B               	retlw	59
   626  1032                     __end_of_invT0:	
   627  1032                     _invBeta:	
   628  1032  3463               	retlw	99
   629  1033  341D               	retlw	29
   630  1034  349B               	retlw	155
   631  1035  3439               	retlw	57
   632  1036                     __end_of_invBeta:	
   633  0019                     _TXREG	set	25
   634  001A                     _RCREG	set	26
   635  000C                     _PIR1bits	set	12
   636  0018                     _RCSTAbits	set	24
   637  0013                     _SSPBUF	set	19
   638  0014                     _SSPCON	set	20
   639  0009                     _PORTE	set	9
   640  0008                     _PORTD	set	8
   641  0007                     _PORTC	set	7
   642  0006                     _PORTB	set	6
   643  0005                     _PORTA	set	5
   644  0043                     _RD3	set	67
   645  0042                     _RD2	set	66
   646  0047                     _RD7	set	71
   647  0063                     _SSPIF	set	99
   648  005E                     _PEIE	set	94
   649  005F                     _GIE	set	95
   650  0098                     _TXSTAbits	set	152
   651  0099                     _SPBRG	set	153
   652  008F                     _OSCCONbits	set	143
   653  0091                     _SSPCON2bits	set	145
   654  0087                     _TRISCbits	set	135
   655  0094                     _SSPSTAT	set	148
   656  0093                     _SSPADD	set	147
   657  0091                     _SSPCON2	set	145
   658  0089                     _TRISE	set	137
   659  0088                     _TRISD	set	136
   660  0087                     _TRISC	set	135
   661  0086                     _TRISB	set	134
   662  0085                     _TRISA	set	133
   663  0463                     _SSPIE	set	1123
   664  043C                     _TRISC4	set	1084
   665  043B                     _TRISC3	set	1083
   666  0189                     _ANSELH	set	393
   667  0188                     _ANSEL	set	392
   668  1036                     STR_11:	
   669  1036  3450               	retlw	80	;'P'
   670  1037  3445               	retlw	69	;'E'
   671  1038  3453               	retlw	83	;'S'
   672  1039  344F               	retlw	79	;'O'
   673  103A  3400               	retlw	0
   674  103B                     STR_10:	
   675  103B  3454               	retlw	84	;'T'
   676  103C  3445               	retlw	69	;'E'
   677  103D  344D               	retlw	77	;'M'
   678  103E  3450               	retlw	80	;'P'
   679  103F  3400               	retlw	0
   680  1040                     STR_3:	
   681  1040  3456               	retlw	86	;'V'
   682  1041  3449               	retlw	73	;'I'
   683  1042  3442               	retlw	66	;'B'
   684  1043  3400               	retlw	0
   685  1044                     STR_4:	
   686  1044  344F               	retlw	79	;'O'
   687  1045  3446               	retlw	70	;'F'
   688  1046  3446               	retlw	70	;'F'
   689  1047  3400               	retlw	0
   690  1048                     STR_1:	
   691  1048  3449               	retlw	73	;'I'
   692  1049  344E               	retlw	78	;'N'
   693  104A  3454               	retlw	84	;'T'
   694  104B  3400               	retlw	0
   695  104C                     STR_2:	
   696  104C  344D               	retlw	77	;'M'
   697  104D  344F               	retlw	79	;'O'
   698  104E  3456               	retlw	86	;'V'
   699  104F  3400               	retlw	0
   700  1050                     STR_5:	
   701  1050  344F               	retlw	79	;'O'
   702  1051  344E               	retlw	78	;'N'
   703  1052  3400               	retlw	0
   704  1044                     
   705                           ; #config settings
   706  0000                     
   707                           	psect	cinit
   708  07DF                     start_initialization:	
   709  07DF                     __initialization:	
   710                           
   711                           ; Initialize objects allocated to BANK1
   712  07DF  1683               	bsf	3,5	;RP0=1, select bank1
   713  07E0  1303               	bcf	3,6	;RP1=0, select bank1
   714  07E1  120A  118A  2008  120A  118A  	fcall	__pidataBANK1	;fetch initializer
   715  07E6  00EE               	movwf	__pdataBANK1& (0+127)
   716                           
   717                           ; Clear objects allocated to BANK3
   718  07E7  1783               	bsf	3,7	;select IRP bank2
   719  07E8  3090               	movlw	low __pbssBANK3
   720  07E9  0084               	movwf	4
   721  07EA  3098               	movlw	low (__pbssBANK3+8)
   722  07EB  160A  118A  20BE  120A  118A  	fcall	clear_ram0
   723                           
   724                           ; Clear objects allocated to BANK1
   725  07F0  1383               	bcf	3,7	;select IRP bank0
   726  07F1  30A0               	movlw	low __pbssBANK1
   727  07F2  0084               	movwf	4
   728  07F3  30CC               	movlw	low (__pbssBANK1+44)
   729  07F4  160A  118A  20BE  120A  118A  	fcall	clear_ram0
   730                           
   731                           ; Clear objects allocated to BANK0
   732  07F9  1283               	bcf	3,5	;RP0=0, select bank0
   733  07FA  1303               	bcf	3,6	;RP1=0, select bank0
   734  07FB  01EE               	clrf	__pbssBANK0& (0+127)
   735  07FC                     end_of_initialization:	
   736                           ;End of C runtime variable initialization code
   737                           
   738  07FC                     __end_of__initialization:	
   739  07FC  0183               	clrf	3
   740  07FD  120A  118A  29BC   	ljmp	_main	;jump to C main() function
   741                           
   742                           	psect	bssBANK0
   743  006E                     __pbssBANK0:	
   744  006E                     _PESO_EN:	
   745  006E                     	ds	1
   746                           
   747                           	psect	bssBANK1
   748  00A0                     __pbssBANK1:	
   749  00A0                     _K:	
   750  00A0                     	ds	4
   751  00A4                     _RES_cien:	
   752  00A4                     	ds	4
   753  00A8                     _POT_cien:	
   754  00A8                     	ds	4
   755  00AC                     _ADC_PESO_V:	
   756  00AC                     	ds	4
   757  00B0                     _errno:	
   758  00B0                     	ds	2
   759  00B2                     _DECI_2_RES:	
   760  00B2                     	ds	2
   761  00B4                     _DECI_1_RES:	
   762  00B4                     	ds	2
   763  00B6                     _DECI_2_POT:	
   764  00B6                     	ds	2
   765  00B8                     _DECI_1_POT:	
   766  00B8                     	ds	2
   767  00BA                     _i:	
   768  00BA                     	ds	1
   769  00BB                     _CONT_C:	
   770  00BB                     	ds	1
   771  00BC                     _CONT_D:	
   772  00BC                     	ds	1
   773  00BD                     _CONT_U:	
   774  00BD                     	ds	1
   775  00BE                     _RES_D2:	
   776  00BE                     	ds	1
   777  00BF                     _RES_D1:	
   778  00BF                     	ds	1
   779  00C0                     _POT_D2:	
   780  00C0                     	ds	1
   781  00C1                     _POT_D1:	
   782  00C1                     	ds	1
   783  00C2                     _RES_EN:	
   784  00C2                     	ds	1
   785  00C3                     _POT_EN:	
   786  00C3                     	ds	1
   787  00C4                     _PESO_EN_1:	
   788  00C4                     	ds	1
   789  00C5                     _TEMP_EN_1:	
   790  00C5                     	ds	1
   791  00C6                     _TEMP_EN:	
   792  00C6                     	ds	1
   793  00C7                     _Val_PESO:	
   794  00C7                     	ds	1
   795  00C8                     _Val_VIB:	
   796  00C8                     	ds	1
   797  00C9                     _Val_MOV:	
   798  00C9                     	ds	1
   799  00CA                     _Val_INT:	
   800  00CA                     	ds	1
   801  00CB                     _Val_TEMP:	
   802  00CB                     	ds	1
   803                           
   804                           	psect	dataBANK1
   805  00EE                     __pdataBANK1:	
   806  00EE                     _estado:	
   807  00EE                     	ds	1
   808                           
   809                           	psect	bssBANK3
   810  0190                     __pbssBANK3:	
   811  0190                     _C:	
   812  0190                     	ds	4
   813  0194                     _ADC_TEMP_V:	
   814  0194                     	ds	4
   815                           
   816                           	psect	clrtext
   817  10BE                     clear_ram0:	
   818                           ;	Called with FSR containing the base address, and
   819                           ;	W with the last address+1
   820                           
   821  10BE  0064               	clrwdt	;clear the watchdog before getting into this loop
   822  10BF                     clrloop0:	
   823  10BF  0180               	clrf	0	;clear RAM location pointed to by FSR
   824  10C0  0A84               	incf	4,f	;increment pointer
   825  10C1  0604               	xorwf	4,w	;XOR with final address
   826  10C2  1903               	btfsc	3,2	;have we reached the end yet?
   827  10C3  3400               	retlw	0	;all done for this memory range, return
   828  10C4  0604               	xorwf	4,w	;XOR again to restore value
   829  10C5  28BF               	goto	clrloop0	;do the next byte
   830                           
   831                           	psect	cstackBANK1
   832  00CC                     __pcstackBANK1:	
   833  00CC                     ?_eval_poly:	
   834  00CC                     eval_poly@x:	
   835                           ; 4 bytes @ 0x0
   836                           
   837                           
   838                           ; 4 bytes @ 0x0
   839  00CC                     	ds	4
   840  00D0                     eval_poly@d:	
   841                           
   842                           ; 1 bytes @ 0x4
   843  00D0                     	ds	1
   844  00D1                     eval_poly@n:	
   845                           
   846                           ; 2 bytes @ 0x5
   847  00D1                     	ds	2
   848  00D3                     ??_eval_poly:	
   849                           
   850                           ; 1 bytes @ 0x7
   851  00D3                     	ds	5
   852  00D8                     eval_poly@res:	
   853                           
   854                           ; 4 bytes @ 0xC
   855  00D8                     	ds	4
   856  00DC                     ?_log:	
   857  00DC                     log@x:	
   858                           ; 4 bytes @ 0x10
   859                           
   860                           
   861                           ; 4 bytes @ 0x10
   862  00DC                     	ds	4
   863  00E0                     log@exponent:	
   864                           
   865                           ; 2 bytes @ 0x14
   866  00E0                     	ds	2
   867  00E2                     ??_main:	
   868                           
   869                           ; 1 bytes @ 0x16
   870  00E2                     	ds	4
   871  00E6                     _main$1116:	
   872                           
   873                           ; 4 bytes @ 0x1A
   874  00E6                     	ds	4
   875  00EA                     _main$1117:	
   876                           
   877                           ; 4 bytes @ 0x1E
   878  00EA                     	ds	4
   879                           
   880                           	psect	cstackCOMMON
   881  0070                     __pcstackCOMMON:	
   882  0070                     ?___fleq:	
   883  0070                     ?___flge:	
   884                           ; 1 bit 
   885                           
   886  0070                     ?_initOsc:	
   887                           ; 1 bit 
   888                           
   889  0070                     ??_initOsc:	
   890                           ; 1 bytes @ 0x0
   891                           
   892  0070                     ?_init:	
   893                           ; 1 bytes @ 0x0
   894                           
   895  0070                     ?_lcd_init:	
   896                           ; 1 bytes @ 0x0
   897                           
   898  0070                     ?_lcd_msg:	
   899                           ; 1 bytes @ 0x0
   900                           
   901  0070                     ?_I2C_Master_Start:	
   902                           ; 1 bytes @ 0x0
   903                           
   904  0070                     ??_I2C_Master_Start:	
   905                           ; 1 bytes @ 0x0
   906                           
   907  0070                     ?_I2C_Master_Write:	
   908                           ; 1 bytes @ 0x0
   909                           
   910  0070                     ?_I2C_Master_Stop:	
   911                           ; 1 bytes @ 0x0
   912                           
   913  0070                     ??_I2C_Master_Stop:	
   914                           ; 1 bytes @ 0x0
   915                           
   916  0070                     ?_UART_Write:	
   917                           ; 1 bytes @ 0x0
   918                           
   919  0070                     ??_UART_Write:	
   920                           ; 1 bytes @ 0x0
   921                           
   922  0070                     ?_lcd_cmd:	
   923                           ; 1 bytes @ 0x0
   924                           
   925  0070                     ?_lcd_dwr:	
   926                           ; 1 bytes @ 0x0
   927                           
   928  0070                     ?_Val_STR:	
   929                           ; 1 bytes @ 0x0
   930                           
   931  0070                     ??_Val_STR:	
   932                           ; 1 bytes @ 0x0
   933                           
   934  0070                     ?_lcd_ready:	
   935                           ; 1 bytes @ 0x0
   936                           
   937  0070                     ??_lcd_ready:	
   938                           ; 1 bytes @ 0x0
   939                           
   940  0070                     ?_lcd_lat:	
   941                           ; 1 bytes @ 0x0
   942                           
   943  0070                     ??_lcd_lat:	
   944                           ; 1 bytes @ 0x0
   945                           
   946  0070                     ?_main:	
   947                           ; 1 bytes @ 0x0
   948                           
   949  0070                     ?_I2C_Master_Wait:	
   950                           ; 1 bytes @ 0x0
   951                           
   952  0070                     ??_I2C_Master_Wait:	
   953                           ; 1 bytes @ 0x0
   954                           
   955  0070                     ?_I2C_Master_Read:	
   956                           ; 1 bytes @ 0x0
   957                           
   958  0070                     ?__Umul8_16:	
   959                           ; 2 bytes @ 0x0
   960                           
   961  0070                     ?___awmod:	
   962                           ; 2 bytes @ 0x0
   963                           
   964  0070                     ?___lwdiv:	
   965                           ; 2 bytes @ 0x0
   966                           
   967  0070                     ?___lwmod:	
   968                           ; 2 bytes @ 0x0
   969                           
   970  0070                     ?___lldiv:	
   971                           ; 2 bytes @ 0x0
   972                           
   973  0070                     ?___aldiv:	
   974                           ; 4 bytes @ 0x0
   975                           
   976  0070                     ?___fltol:	
   977                           ; 4 bytes @ 0x0
   978                           
   979  0070                     ?___xxtofl:	
   980                           ; 4 bytes @ 0x0
   981                           
   982  0070                     UART_Write@data:	
   983                           ; 4 bytes @ 0x0
   984                           
   985  0070                     __Umul8_16@multiplicand:	
   986                           ; 1 bytes @ 0x0
   987                           
   988  0070                     I2C_Master_Write@d:	
   989                           ; 1 bytes @ 0x0
   990                           
   991  0070                     I2C_Master_Read@a:	
   992                           ; 2 bytes @ 0x0
   993                           
   994  0070                     ___awmod@divisor:	
   995                           ; 2 bytes @ 0x0
   996                           
   997  0070                     ___lwdiv@divisor:	
   998                           ; 2 bytes @ 0x0
   999                           
  1000  0070                     ___lwmod@divisor:	
  1001                           ; 2 bytes @ 0x0
  1002                           
  1003  0070                     ___lldiv@divisor:	
  1004                           ; 2 bytes @ 0x0
  1005                           
  1006  0070                     ___aldiv@divisor:	
  1007                           ; 4 bytes @ 0x0
  1008                           
  1009  0070                     ___fleq@ff1:	
  1010                           ; 4 bytes @ 0x0
  1011                           
  1012  0070                     ___flge@ff1:	
  1013                           ; 4 bytes @ 0x0
  1014                           
  1015  0070                     ___fltol@f1:	
  1016                           ; 4 bytes @ 0x0
  1017                           
  1018  0070                     ___xxtofl@val:	
  1019                           ; 4 bytes @ 0x0
  1020                           
  1021                           
  1022                           ; 4 bytes @ 0x0
  1023  0070                     	ds	2
  1024  0072                     ??_I2C_Master_Write:	
  1025  0072                     ??_I2C_Master_Read:	
  1026                           ; 1 bytes @ 0x2
  1027                           
  1028  0072                     ??_lcd_cmd:	
  1029                           ; 1 bytes @ 0x2
  1030                           
  1031  0072                     ??_lcd_dwr:	
  1032                           ; 1 bytes @ 0x2
  1033                           
  1034  0072                     ??__Umul8_16:	
  1035                           ; 1 bytes @ 0x2
  1036                           
  1037  0072                     Val_STR@num:	
  1038                           ; 1 bytes @ 0x2
  1039                           
  1040  0072                     lcd_cmd@x:	
  1041                           ; 1 bytes @ 0x2
  1042                           
  1043  0072                     lcd_dwr@x:	
  1044                           ; 1 bytes @ 0x2
  1045                           
  1046  0072                     initOsc@frec:	
  1047                           ; 1 bytes @ 0x2
  1048                           
  1049  0072                     ___awmod@dividend:	
  1050                           ; 1 bytes @ 0x2
  1051                           
  1052  0072                     ___lwdiv@dividend:	
  1053                           ; 2 bytes @ 0x2
  1054                           
  1055  0072                     ___lwmod@dividend:	
  1056                           ; 2 bytes @ 0x2
  1057                           
  1058                           
  1059                           ; 2 bytes @ 0x2
  1060  0072                     	ds	1
  1061  0073                     ??_lcd_init:	
  1062  0073                     ?_LCD_POINT:	
  1063                           ; 1 bytes @ 0x3
  1064                           
  1065  0073                     ??_lcd_msg:	
  1066                           ; 1 bytes @ 0x3
  1067                           
  1068  0073                     LCD_POINT@col:	
  1069                           ; 1 bytes @ 0x3
  1070                           
  1071                           
  1072                           ; 1 bytes @ 0x3
  1073  0073                     	ds	1
  1074  0074                     ??_LCD_POINT:	
  1075  0074                     ??___awmod:	
  1076                           ; 1 bytes @ 0x4
  1077                           
  1078  0074                     ??___fltol:	
  1079                           ; 1 bytes @ 0x4
  1080                           
  1081  0074                     ??___lwdiv:	
  1082                           ; 1 bytes @ 0x4
  1083                           
  1084  0074                     ??___lwmod:	
  1085                           ; 1 bytes @ 0x4
  1086                           
  1087  0074                     ??___xxtofl:	
  1088                           ; 1 bytes @ 0x4
  1089                           
  1090  0074                     lcd_msg@c:	
  1091                           ; 1 bytes @ 0x4
  1092                           
  1093  0074                     I2C_Master_Read@temp:	
  1094                           ; 1 bytes @ 0x4
  1095                           
  1096  0074                     __Umul8_16@product:	
  1097                           ; 2 bytes @ 0x4
  1098                           
  1099  0074                     ___lldiv@dividend:	
  1100                           ; 2 bytes @ 0x4
  1101                           
  1102  0074                     ___aldiv@dividend:	
  1103                           ; 4 bytes @ 0x4
  1104                           
  1105  0074                     ___fleq@ff2:	
  1106                           ; 4 bytes @ 0x4
  1107                           
  1108  0074                     ___flge@ff2:	
  1109                           ; 4 bytes @ 0x4
  1110                           
  1111                           
  1112                           ; 4 bytes @ 0x4
  1113  0074                     	ds	1
  1114  0075                     ___awmod@counter:	
  1115  0075                     ___lwmod@counter:	
  1116                           ; 1 bytes @ 0x5
  1117                           
  1118  0075                     ___lwdiv@quotient:	
  1119                           ; 1 bytes @ 0x5
  1120                           
  1121                           
  1122                           ; 2 bytes @ 0x5
  1123  0075                     	ds	1
  1124  0076                     ___awmod@sign:	
  1125  0076                     _LCD_POINT$278:	
  1126                           ; 1 bytes @ 0x6
  1127                           
  1128  0076                     __Umul8_16@word_mpld:	
  1129                           ; 2 bytes @ 0x6
  1130                           
  1131                           
  1132                           ; 2 bytes @ 0x6
  1133  0076                     	ds	1
  1134  0077                     ___lwdiv@counter:	
  1135                           
  1136                           ; 1 bytes @ 0x7
  1137  0077                     	ds	1
  1138  0078                     ??___lldiv:	
  1139  0078                     ??___aldiv:	
  1140                           ; 1 bytes @ 0x8
  1141                           
  1142  0078                     ??___fleq:	
  1143                           ; 1 bytes @ 0x8
  1144                           
  1145  0078                     ??___flge:	
  1146                           ; 1 bytes @ 0x8
  1147                           
  1148  0078                     LCD_POINT@lin:	
  1149                           ; 1 bytes @ 0x8
  1150                           
  1151  0078                     ___xxtofl@sign:	
  1152                           ; 1 bytes @ 0x8
  1153                           
  1154  0078                     __Umul8_16@multiplier:	
  1155                           ; 1 bytes @ 0x8
  1156                           
  1157                           
  1158                           ; 1 bytes @ 0x8
  1159  0078                     	ds	1
  1160  0079                     ___fltol@sign1:	
  1161  0079                     ___xxtofl@exp:	
  1162                           ; 1 bytes @ 0x9
  1163                           
  1164  0079                     ___lldiv@quotient:	
  1165                           ; 1 bytes @ 0x9
  1166                           
  1167                           
  1168                           ; 4 bytes @ 0x9
  1169  0079                     	ds	1
  1170  007A                     ___fltol@exp1:	
  1171  007A                     ___xxtofl@arg:	
  1172                           ; 1 bytes @ 0xA
  1173                           
  1174                           
  1175                           ; 4 bytes @ 0xA
  1176  007A                     	ds	2
  1177  007C                     ??_frexp:	
  1178                           
  1179                           ; 1 bytes @ 0xC
  1180  007C                     	ds	1
  1181  007D                     ___lldiv@counter:	
  1182                           
  1183                           ; 1 bytes @ 0xD
  1184  007D                     	ds	1
  1185  007E                     ??_init:	
  1186                           
  1187                           	psect	cstackBANK0
  1188  0020                     __pcstackBANK0:	
  1189                           ; 1 bytes @ 0xE
  1190                           
  1191  0020                     ?_I2C_Master_Init:	
  1192  0020                     ?_frexp:	
  1193                           ; 1 bytes @ 0x0
  1194                           
  1195  0020                     ___aldiv@counter:	
  1196                           ; 4 bytes @ 0x0
  1197                           
  1198  0020                     I2C_Master_Init@c:	
  1199                           ; 1 bytes @ 0x0
  1200                           
  1201  0020                     frexp@value:	
  1202                           ; 4 bytes @ 0x0
  1203                           
  1204                           
  1205                           ; 4 bytes @ 0x0
  1206  0020                     	ds	1
  1207  0021                     ___aldiv@sign:	
  1208                           
  1209                           ; 1 bytes @ 0x1
  1210  0021                     	ds	1
  1211  0022                     ___aldiv@quotient:	
  1212                           
  1213                           ; 4 bytes @ 0x2
  1214  0022                     	ds	2
  1215  0024                     ??_I2C_Master_Init:	
  1216  0024                     frexp@eptr:	
  1217                           ; 1 bytes @ 0x4
  1218                           
  1219                           
  1220                           ; 1 bytes @ 0x4
  1221  0024                     	ds	1
  1222  0025                     ?___fldiv:	
  1223  0025                     ___fldiv@a:	
  1224                           ; 4 bytes @ 0x5
  1225                           
  1226                           
  1227                           ; 4 bytes @ 0x5
  1228  0025                     	ds	1
  1229  0026                     ?_UART_Init:	
  1230  0026                     UART_Init@baudrate:	
  1231                           ; 1 bytes @ 0x6
  1232                           
  1233                           
  1234                           ; 4 bytes @ 0x6
  1235  0026                     	ds	3
  1236  0029                     ___fldiv@b:	
  1237                           
  1238                           ; 4 bytes @ 0x9
  1239  0029                     	ds	1
  1240  002A                     ??_UART_Init:	
  1241                           
  1242                           ; 1 bytes @ 0xA
  1243  002A                     	ds	3
  1244  002D                     ??___fldiv:	
  1245                           
  1246                           ; 1 bytes @ 0xD
  1247  002D                     	ds	5
  1248  0032                     ___fldiv@rem:	
  1249                           
  1250                           ; 4 bytes @ 0x12
  1251  0032                     	ds	4
  1252  0036                     ___fldiv@sign:	
  1253                           
  1254                           ; 1 bytes @ 0x16
  1255  0036                     	ds	1
  1256  0037                     ___fldiv@new_exp:	
  1257                           
  1258                           ; 2 bytes @ 0x17
  1259  0037                     	ds	2
  1260  0039                     ___fldiv@grs:	
  1261                           
  1262                           ; 4 bytes @ 0x19
  1263  0039                     	ds	4
  1264  003D                     ___fldiv@bexp:	
  1265                           
  1266                           ; 1 bytes @ 0x1D
  1267  003D                     	ds	1
  1268  003E                     ___fldiv@aexp:	
  1269                           
  1270                           ; 1 bytes @ 0x1E
  1271  003E                     	ds	1
  1272  003F                     ?___fladd:	
  1273  003F                     ___fladd@b:	
  1274                           ; 4 bytes @ 0x1F
  1275                           
  1276                           
  1277                           ; 4 bytes @ 0x1F
  1278  003F                     	ds	4
  1279  0043                     ___fladd@a:	
  1280                           
  1281                           ; 4 bytes @ 0x23
  1282  0043                     	ds	4
  1283  0047                     ??___fladd:	
  1284                           
  1285                           ; 1 bytes @ 0x27
  1286  0047                     	ds	8
  1287  004F                     ___fladd@signs:	
  1288                           
  1289                           ; 1 bytes @ 0x2F
  1290  004F                     	ds	1
  1291  0050                     ___fladd@aexp:	
  1292                           
  1293                           ; 1 bytes @ 0x30
  1294  0050                     	ds	1
  1295  0051                     ___fladd@bexp:	
  1296                           
  1297                           ; 1 bytes @ 0x31
  1298  0051                     	ds	1
  1299  0052                     ___fladd@grs:	
  1300                           
  1301                           ; 1 bytes @ 0x32
  1302  0052                     	ds	1
  1303  0053                     ?___flmul:	
  1304  0053                     ___flmul@b:	
  1305                           ; 4 bytes @ 0x33
  1306                           
  1307                           
  1308                           ; 4 bytes @ 0x33
  1309  0053                     	ds	4
  1310  0057                     ___flmul@a:	
  1311                           
  1312                           ; 4 bytes @ 0x37
  1313  0057                     	ds	4
  1314  005B                     ??___flmul:	
  1315                           
  1316                           ; 1 bytes @ 0x3B
  1317  005B                     	ds	5
  1318  0060                     ___flmul@sign:	
  1319                           
  1320                           ; 1 bytes @ 0x40
  1321  0060                     	ds	1
  1322  0061                     ___flmul@grs:	
  1323                           
  1324                           ; 4 bytes @ 0x41
  1325  0061                     	ds	4
  1326  0065                     ___flmul@aexp:	
  1327                           
  1328                           ; 1 bytes @ 0x45
  1329  0065                     	ds	1
  1330  0066                     ___flmul@bexp:	
  1331                           
  1332                           ; 1 bytes @ 0x46
  1333  0066                     	ds	1
  1334  0067                     ___flmul@prod:	
  1335                           
  1336                           ; 4 bytes @ 0x47
  1337  0067                     	ds	4
  1338  006B                     ___flmul@temp:	
  1339                           
  1340                           ; 2 bytes @ 0x4B
  1341  006B                     	ds	2
  1342  006D                     ??_log:	
  1343                           
  1344                           ; 1 bytes @ 0x4D
  1345  006D                     	ds	1
  1346                           
  1347                           	psect	maintext
  1348  01BC                     __pmaintext:	
  1349 ;;
  1350 ;;Main: autosize = 0, tempsize = 4, incstack = 0, save=0
  1351 ;;
  1352 ;; *************** function _main *****************
  1353 ;; Defined at:
  1354 ;;		line 90 in file "MASTER_Proyecto.c"
  1355 ;; Parameters:    Size  Location     Type
  1356 ;;		None
  1357 ;; Auto vars:     Size  Location     Type
  1358 ;;		None
  1359 ;; Return value:  Size  Location     Type
  1360 ;;                  1    wreg      void 
  1361 ;; Registers used:
  1362 ;;		wreg, fsr0l, fsr0h, status,2, status,0, btemp+1, pclath, cstack
  1363 ;; Tracked objects:
  1364 ;;		On entry : B00/0
  1365 ;;		On exit  : 0/0
  1366 ;;		Unchanged: 0/0
  1367 ;; Data sizes:     COMMON   BANK0   BANK1   BANK3   BANK2
  1368 ;;      Params:         0       0       0       0       0
  1369 ;;      Locals:         0       0       8       0       0
  1370 ;;      Temps:          0       0       4       0       0
  1371 ;;      Totals:         0       0      12       0       0
  1372 ;;Total ram usage:       12 bytes
  1373 ;; Hardware stack levels required when called:    4
  1374 ;; This function calls:
  1375 ;;		_I2C_Master_Read
  1376 ;;		_I2C_Master_Start
  1377 ;;		_I2C_Master_Stop
  1378 ;;		_I2C_Master_Write
  1379 ;;		_LCD_POINT
  1380 ;;		_UART_Init
  1381 ;;		_UART_Write
  1382 ;;		_Val_STR
  1383 ;;		___awmod
  1384 ;;		___fladd
  1385 ;;		___fldiv
  1386 ;;		___flmul
  1387 ;;		___fltol
  1388 ;;		___lwdiv
  1389 ;;		___lwmod
  1390 ;;		___xxtofl
  1391 ;;		_init
  1392 ;;		_initOsc
  1393 ;;		_lcd_cmd
  1394 ;;		_lcd_dwr
  1395 ;;		_lcd_init
  1396 ;;		_lcd_msg
  1397 ;;		_log
  1398 ;; This function is called by:
  1399 ;;		Startup code after reset
  1400 ;; This function uses a non-reentrant model
  1401 ;;
  1402                           
  1403                           
  1404                           ;psect for function _main
  1405  01BC                     _main:	
  1406  01BC                     l3270:	
  1407                           ;incstack = 0
  1408                           ; Regs used in _main: [wreg-fsr0h+status,2+status,0+btemp+1+pclath+cstack]
  1409                           
  1410                           
  1411                           ;MASTER_Proyecto.c: 91:     initOsc(7);
  1412  01BC  3007               	movlw	7
  1413  01BD  160A  118A  2395  120A  118A  	fcall	_initOsc
  1414  01C2                     l3272:	
  1415                           
  1416                           ;MASTER_Proyecto.c: 92:     init();
  1417  01C2  160A  118A  212E  120A  118A  	fcall	_init
  1418  01C7                     l3274:	
  1419                           
  1420                           ;MASTER_Proyecto.c: 93:     lcd_init();
  1421  01C7  160A  118A  214A  120A  118A  	fcall	_lcd_init
  1422  01CC                     l3276:	
  1423                           
  1424                           ;MASTER_Proyecto.c: 94:     UART_Init(9600);
  1425  01CC  3000               	movlw	0
  1426  01CD  1283               	bcf	3,5	;RP0=0, select bank0
  1427  01CE  1303               	bcf	3,6	;RP1=0, select bank0
  1428  01CF  00A9               	movwf	UART_Init@baudrate+3
  1429  01D0  3000               	movlw	0
  1430  01D1  00A8               	movwf	UART_Init@baudrate+2
  1431  01D2  3025               	movlw	37
  1432  01D3  00A7               	movwf	UART_Init@baudrate+1
  1433  01D4  3080               	movlw	128
  1434  01D5  00A6               	movwf	UART_Init@baudrate
  1435  01D6  120A  118A  2009  120A  118A  	fcall	_UART_Init
  1436  01DB                     l3278:	
  1437                           
  1438                           ;MASTER_Proyecto.c: 96:     PORTA = 0;
  1439  01DB  1283               	bcf	3,5	;RP0=0, select bank0
  1440  01DC  1303               	bcf	3,6	;RP1=0, select bank0
  1441  01DD  0185               	clrf	5	;volatile
  1442  01DE                     l3280:	
  1443                           
  1444                           ;MASTER_Proyecto.c: 97:     PORTB = 0;
  1445  01DE  0186               	clrf	6	;volatile
  1446  01DF                     l3282:	
  1447                           
  1448                           ;MASTER_Proyecto.c: 98:     PORTC = 0;
  1449  01DF  0187               	clrf	7	;volatile
  1450  01E0                     l3284:	
  1451                           
  1452                           ;MASTER_Proyecto.c: 99:     PORTD = 0;
  1453  01E0  0188               	clrf	8	;volatile
  1454  01E1                     l3286:	
  1455                           
  1456                           ;MASTER_Proyecto.c: 100:     PORTE = 0;
  1457  01E1  0189               	clrf	9	;volatile
  1458  01E2                     l3288:	
  1459                           
  1460                           ;MASTER_Proyecto.c: 104:         LCD_POINT(1,2);
  1461  01E2  3002               	movlw	2
  1462  01E3  1683               	bsf	3,5	;RP0=1, select bank1
  1463  01E4  1303               	bcf	3,6	;RP1=0, select bank1
  1464  01E5  00E2               	movwf	??_main^(0+128)
  1465  01E6  0862               	movf	??_main^(0+128),w
  1466  01E7  00F3               	movwf	LCD_POINT@col
  1467  01E8  3001               	movlw	1
  1468  01E9  160A  118A  2205  120A  118A  	fcall	_LCD_POINT
  1469  01EE                     l3290:	
  1470                           
  1471                           ;MASTER_Proyecto.c: 105:         lcd_msg("INT");
  1472  01EE  3043               	movlw	(low ((STR_1-__stringbase)| (0+32768)))& (0+255)
  1473  01EF  160A  118A  2169  120A  118A  	fcall	_lcd_msg
  1474  01F4                     l3292:	
  1475                           
  1476                           ;MASTER_Proyecto.c: 106:         LCD_POINT(1,6);
  1477  01F4  3006               	movlw	6
  1478  01F5  1683               	bsf	3,5	;RP0=1, select bank1
  1479  01F6  1303               	bcf	3,6	;RP1=0, select bank1
  1480  01F7  00E2               	movwf	??_main^(0+128)
  1481  01F8  0862               	movf	??_main^(0+128),w
  1482  01F9  00F3               	movwf	LCD_POINT@col
  1483  01FA  3001               	movlw	1
  1484  01FB  160A  118A  2205  120A  118A  	fcall	_LCD_POINT
  1485  0200                     l3294:	
  1486                           
  1487                           ;MASTER_Proyecto.c: 107:         lcd_msg("MOV");
  1488  0200  3047               	movlw	(low ((STR_2-__stringbase)| (0+32768)))& (0+255)
  1489  0201  160A  118A  2169  120A  118A  	fcall	_lcd_msg
  1490  0206                     l3296:	
  1491                           
  1492                           ;MASTER_Proyecto.c: 108:         LCD_POINT(1,10);
  1493  0206  300A               	movlw	10
  1494  0207  1683               	bsf	3,5	;RP0=1, select bank1
  1495  0208  1303               	bcf	3,6	;RP1=0, select bank1
  1496  0209  00E2               	movwf	??_main^(0+128)
  1497  020A  0862               	movf	??_main^(0+128),w
  1498  020B  00F3               	movwf	LCD_POINT@col
  1499  020C  3001               	movlw	1
  1500  020D  160A  118A  2205  120A  118A  	fcall	_LCD_POINT
  1501  0212                     l3298:	
  1502                           
  1503                           ;MASTER_Proyecto.c: 109:         lcd_msg("VIB");
  1504  0212  303B               	movlw	(low ((STR_3-__stringbase)| (0+32768)))& (0+255)
  1505  0213  160A  118A  2169  120A  118A  	fcall	_lcd_msg
  1506  0218                     l3300:	
  1507                           
  1508                           ;MASTER_Proyecto.c: 116:         I2C_Master_Start();
  1509  0218  160A  118A  20C6  120A  118A  	fcall	_I2C_Master_Start
  1510  021D                     l3302:	
  1511                           
  1512                           ;MASTER_Proyecto.c: 117:         I2C_Master_Write(0x31);
  1513  021D  3031               	movlw	49
  1514  021E  00F0               	movwf	I2C_Master_Write@d
  1515  021F  3000               	movlw	0
  1516  0220  00F1               	movwf	I2C_Master_Write@d+1
  1517  0221  160A  118A  20D8  120A  118A  	fcall	_I2C_Master_Write
  1518  0226                     l3304:	
  1519                           
  1520                           ;MASTER_Proyecto.c: 118:         Val_INT = I2C_Master_Read(0);
  1521  0226  3000               	movlw	0
  1522  0227  00F0               	movwf	I2C_Master_Read@a
  1523  0228  00F1               	movwf	I2C_Master_Read@a+1
  1524  0229  160A  118A  21D8  120A  118A  	fcall	_I2C_Master_Read
  1525  022E  0870               	movf	?_I2C_Master_Read,w
  1526  022F  1683               	bsf	3,5	;RP0=1, select bank1
  1527  0230  1303               	bcf	3,6	;RP1=0, select bank1
  1528  0231  00E2               	movwf	??_main^(0+128)
  1529  0232  0862               	movf	??_main^(0+128),w
  1530  0233  00CA               	movwf	_Val_INT^(0+128)
  1531  0234                     l3306:	
  1532                           
  1533                           ;MASTER_Proyecto.c: 119:         I2C_Master_Stop();
  1534  0234  160A  118A  20CF  120A  118A  	fcall	_I2C_Master_Stop
  1535  0239                     l3308:	
  1536                           
  1537                           ;MASTER_Proyecto.c: 120:         _delay((unsigned long)((200)*(8000000/4000.0)));
  1538  0239  3003               	movlw	3
  1539  023A  1683               	bsf	3,5	;RP0=1, select bank1
  1540  023B  1303               	bcf	3,6	;RP1=0, select bank1
  1541  023C  00E4               	movwf	(??_main^(0+128)+2)
  1542  023D  3008               	movlw	8
  1543  023E  00E3               	movwf	(??_main^(0+128)+1)
  1544  023F  3076               	movlw	118
  1545  0240  00E2               	movwf	??_main^(0+128)
  1546  0241                     u4267:	
  1547  0241  0BE2               	decfsz	??_main^(0+128),f
  1548  0242  2A41               	goto	u4267
  1549  0243  0BE3               	decfsz	(??_main^(0+128)+1),f
  1550  0244  2A41               	goto	u4267
  1551  0245  0BE4               	decfsz	(??_main^(0+128)+2),f
  1552  0246  2A41               	goto	u4267
  1553  0247  0000               	nop
  1554  0248                     l3310:	
  1555                           
  1556                           ;MASTER_Proyecto.c: 124:         I2C_Master_Start();
  1557  0248  160A  118A  20C6  120A  118A  	fcall	_I2C_Master_Start
  1558  024D                     l3312:	
  1559                           
  1560                           ;MASTER_Proyecto.c: 125:         I2C_Master_Write(0x61);
  1561  024D  3061               	movlw	97
  1562  024E  00F0               	movwf	I2C_Master_Write@d
  1563  024F  3000               	movlw	0
  1564  0250  00F1               	movwf	I2C_Master_Write@d+1
  1565  0251  160A  118A  20D8  120A  118A  	fcall	_I2C_Master_Write
  1566  0256                     l3314:	
  1567                           
  1568                           ;MASTER_Proyecto.c: 126:         Val_MOV = I2C_Master_Read(0);
  1569  0256  3000               	movlw	0
  1570  0257  00F0               	movwf	I2C_Master_Read@a
  1571  0258  00F1               	movwf	I2C_Master_Read@a+1
  1572  0259  160A  118A  21D8  120A  118A  	fcall	_I2C_Master_Read
  1573  025E  0870               	movf	?_I2C_Master_Read,w
  1574  025F  1683               	bsf	3,5	;RP0=1, select bank1
  1575  0260  1303               	bcf	3,6	;RP1=0, select bank1
  1576  0261  00E2               	movwf	??_main^(0+128)
  1577  0262  0862               	movf	??_main^(0+128),w
  1578  0263  00C9               	movwf	_Val_MOV^(0+128)
  1579  0264                     l3316:	
  1580                           
  1581                           ;MASTER_Proyecto.c: 127:         I2C_Master_Stop();
  1582  0264  160A  118A  20CF  120A  118A  	fcall	_I2C_Master_Stop
  1583  0269                     l3318:	
  1584                           
  1585                           ;MASTER_Proyecto.c: 128:         _delay((unsigned long)((200)*(8000000/4000.0)));
  1586  0269  3003               	movlw	3
  1587  026A  1683               	bsf	3,5	;RP0=1, select bank1
  1588  026B  1303               	bcf	3,6	;RP1=0, select bank1
  1589  026C  00E4               	movwf	(??_main^(0+128)+2)
  1590  026D  3008               	movlw	8
  1591  026E  00E3               	movwf	(??_main^(0+128)+1)
  1592  026F  3076               	movlw	118
  1593  0270  00E2               	movwf	??_main^(0+128)
  1594  0271                     u4277:	
  1595  0271  0BE2               	decfsz	??_main^(0+128),f
  1596  0272  2A71               	goto	u4277
  1597  0273  0BE3               	decfsz	(??_main^(0+128)+1),f
  1598  0274  2A71               	goto	u4277
  1599  0275  0BE4               	decfsz	(??_main^(0+128)+2),f
  1600  0276  2A71               	goto	u4277
  1601  0277  0000               	nop
  1602  0278                     l3320:	
  1603                           
  1604                           ;MASTER_Proyecto.c: 132:         I2C_Master_Start();
  1605  0278  160A  118A  20C6  120A  118A  	fcall	_I2C_Master_Start
  1606  027D                     l3322:	
  1607                           
  1608                           ;MASTER_Proyecto.c: 133:         I2C_Master_Write(0x91);
  1609  027D  3091               	movlw	145
  1610  027E  00F0               	movwf	I2C_Master_Write@d
  1611  027F  3000               	movlw	0
  1612  0280  00F1               	movwf	I2C_Master_Write@d+1
  1613  0281  160A  118A  20D8  120A  118A  	fcall	_I2C_Master_Write
  1614  0286                     l3324:	
  1615                           
  1616                           ;MASTER_Proyecto.c: 134:         Val_VIB = I2C_Master_Read(0);
  1617  0286  3000               	movlw	0
  1618  0287  00F0               	movwf	I2C_Master_Read@a
  1619  0288  00F1               	movwf	I2C_Master_Read@a+1
  1620  0289  160A  118A  21D8  120A  118A  	fcall	_I2C_Master_Read
  1621  028E  0870               	movf	?_I2C_Master_Read,w
  1622  028F  1683               	bsf	3,5	;RP0=1, select bank1
  1623  0290  1303               	bcf	3,6	;RP1=0, select bank1
  1624  0291  00E2               	movwf	??_main^(0+128)
  1625  0292  0862               	movf	??_main^(0+128),w
  1626  0293  00C8               	movwf	_Val_VIB^(0+128)
  1627  0294                     l3326:	
  1628                           
  1629                           ;MASTER_Proyecto.c: 135:         I2C_Master_Stop();
  1630  0294  160A  118A  20CF  120A  118A  	fcall	_I2C_Master_Stop
  1631  0299                     l3328:	
  1632                           
  1633                           ;MASTER_Proyecto.c: 136:         _delay((unsigned long)((200)*(8000000/4000.0)));
  1634  0299  3003               	movlw	3
  1635  029A  1683               	bsf	3,5	;RP0=1, select bank1
  1636  029B  1303               	bcf	3,6	;RP1=0, select bank1
  1637  029C  00E4               	movwf	(??_main^(0+128)+2)
  1638  029D  3008               	movlw	8
  1639  029E  00E3               	movwf	(??_main^(0+128)+1)
  1640  029F  3076               	movlw	118
  1641  02A0  00E2               	movwf	??_main^(0+128)
  1642  02A1                     u4287:	
  1643  02A1  0BE2               	decfsz	??_main^(0+128),f
  1644  02A2  2AA1               	goto	u4287
  1645  02A3  0BE3               	decfsz	(??_main^(0+128)+1),f
  1646  02A4  2AA1               	goto	u4287
  1647  02A5  0BE4               	decfsz	(??_main^(0+128)+2),f
  1648  02A6  2AA1               	goto	u4287
  1649  02A7  0000               	nop
  1650  02A8                     l3330:	
  1651                           
  1652                           ;MASTER_Proyecto.c: 140:         I2C_Master_Start();
  1653  02A8  160A  118A  20C6  120A  118A  	fcall	_I2C_Master_Start
  1654  02AD                     l3332:	
  1655                           
  1656                           ;MASTER_Proyecto.c: 141:         I2C_Master_Write(0xC1);
  1657  02AD  30C1               	movlw	193
  1658  02AE  00F0               	movwf	I2C_Master_Write@d
  1659  02AF  3000               	movlw	0
  1660  02B0  00F1               	movwf	I2C_Master_Write@d+1
  1661  02B1  160A  118A  20D8  120A  118A  	fcall	_I2C_Master_Write
  1662  02B6                     l3334:	
  1663                           
  1664                           ;MASTER_Proyecto.c: 142:         Val_TEMP = I2C_Master_Read(0);
  1665  02B6  3000               	movlw	0
  1666  02B7  00F0               	movwf	I2C_Master_Read@a
  1667  02B8  00F1               	movwf	I2C_Master_Read@a+1
  1668  02B9  160A  118A  21D8  120A  118A  	fcall	_I2C_Master_Read
  1669  02BE  0870               	movf	?_I2C_Master_Read,w
  1670  02BF  1683               	bsf	3,5	;RP0=1, select bank1
  1671  02C0  1303               	bcf	3,6	;RP1=0, select bank1
  1672  02C1  00E2               	movwf	??_main^(0+128)
  1673  02C2  0862               	movf	??_main^(0+128),w
  1674  02C3  00CB               	movwf	_Val_TEMP^(0+128)
  1675  02C4                     l3336:	
  1676                           
  1677                           ;MASTER_Proyecto.c: 143:         I2C_Master_Stop();
  1678  02C4  160A  118A  20CF  120A  118A  	fcall	_I2C_Master_Stop
  1679  02C9                     l3338:	
  1680                           
  1681                           ;MASTER_Proyecto.c: 144:         _delay((unsigned long)((200)*(8000000/4000.0)));
  1682  02C9  3003               	movlw	3
  1683  02CA  1683               	bsf	3,5	;RP0=1, select bank1
  1684  02CB  1303               	bcf	3,6	;RP1=0, select bank1
  1685  02CC  00E4               	movwf	(??_main^(0+128)+2)
  1686  02CD  3008               	movlw	8
  1687  02CE  00E3               	movwf	(??_main^(0+128)+1)
  1688  02CF  3076               	movlw	118
  1689  02D0  00E2               	movwf	??_main^(0+128)
  1690  02D1                     u4297:	
  1691  02D1  0BE2               	decfsz	??_main^(0+128),f
  1692  02D2  2AD1               	goto	u4297
  1693  02D3  0BE3               	decfsz	(??_main^(0+128)+1),f
  1694  02D4  2AD1               	goto	u4297
  1695  02D5  0BE4               	decfsz	(??_main^(0+128)+2),f
  1696  02D6  2AD1               	goto	u4297
  1697  02D7  0000               	nop
  1698  02D8                     l3340:	
  1699                           
  1700                           ;MASTER_Proyecto.c: 148:         I2C_Master_Start();
  1701  02D8  160A  118A  20C6  120A  118A  	fcall	_I2C_Master_Start
  1702  02DD                     l3342:	
  1703                           
  1704                           ;MASTER_Proyecto.c: 149:         I2C_Master_Write(0xE1);
  1705  02DD  30E1               	movlw	225
  1706  02DE  00F0               	movwf	I2C_Master_Write@d
  1707  02DF  3000               	movlw	0
  1708  02E0  00F1               	movwf	I2C_Master_Write@d+1
  1709  02E1  160A  118A  20D8  120A  118A  	fcall	_I2C_Master_Write
  1710  02E6                     l3344:	
  1711                           
  1712                           ;MASTER_Proyecto.c: 150:         Val_PESO = I2C_Master_Read(0);
  1713  02E6  3000               	movlw	0
  1714  02E7  00F0               	movwf	I2C_Master_Read@a
  1715  02E8  00F1               	movwf	I2C_Master_Read@a+1
  1716  02E9  160A  118A  21D8  120A  118A  	fcall	_I2C_Master_Read
  1717  02EE  0870               	movf	?_I2C_Master_Read,w
  1718  02EF  1683               	bsf	3,5	;RP0=1, select bank1
  1719  02F0  1303               	bcf	3,6	;RP1=0, select bank1
  1720  02F1  00E2               	movwf	??_main^(0+128)
  1721  02F2  0862               	movf	??_main^(0+128),w
  1722  02F3  00C7               	movwf	_Val_PESO^(0+128)
  1723  02F4                     l3346:	
  1724                           
  1725                           ;MASTER_Proyecto.c: 151:         I2C_Master_Stop();
  1726  02F4  160A  118A  20CF  120A  118A  	fcall	_I2C_Master_Stop
  1727  02F9                     l3348:	
  1728                           
  1729                           ;MASTER_Proyecto.c: 152:         _delay((unsigned long)((200)*(8000000/4000.0)));
  1730  02F9  3003               	movlw	3
  1731  02FA  1683               	bsf	3,5	;RP0=1, select bank1
  1732  02FB  1303               	bcf	3,6	;RP1=0, select bank1
  1733  02FC  00E4               	movwf	(??_main^(0+128)+2)
  1734  02FD  3008               	movlw	8
  1735  02FE  00E3               	movwf	(??_main^(0+128)+1)
  1736  02FF  3076               	movlw	118
  1737  0300  00E2               	movwf	??_main^(0+128)
  1738  0301                     u4307:	
  1739  0301  0BE2               	decfsz	??_main^(0+128),f
  1740  0302  2B01               	goto	u4307
  1741  0303  0BE3               	decfsz	(??_main^(0+128)+1),f
  1742  0304  2B01               	goto	u4307
  1743  0305  0BE4               	decfsz	(??_main^(0+128)+2),f
  1744  0306  2B01               	goto	u4307
  1745  0307  0000               	nop
  1746  0308                     l3350:	
  1747                           
  1748                           ;MASTER_Proyecto.c: 157:         if (Val_VIB == 1 ){
  1749  0308  1683               	bsf	3,5	;RP0=1, select bank1
  1750  0309  1303               	bcf	3,6	;RP1=0, select bank1
  1751  030A  0348               	decf	_Val_VIB^(0+128),w
  1752  030B  1D03               	btfss	3,2
  1753  030C  2B0E               	goto	u4221
  1754  030D  2B0F               	goto	u4220
  1755  030E                     u4221:	
  1756  030E  2B11               	goto	l130
  1757  030F                     u4220:	
  1758  030F                     l3352:	
  1759                           
  1760                           ;MASTER_Proyecto.c: 158:             estado = 0;
  1761  030F  01EE               	clrf	_estado^(0+128)
  1762                           
  1763                           ;MASTER_Proyecto.c: 159:         }else{
  1764  0310  2B13               	goto	l3354
  1765  0311                     l130:	
  1766                           
  1767                           ;MASTER_Proyecto.c: 160:             estado = 1;
  1768  0311  01EE               	clrf	_estado^(0+128)
  1769  0312  0AEE               	incf	_estado^(0+128),f
  1770  0313                     l3354:	
  1771                           
  1772                           ;MASTER_Proyecto.c: 163:         I2C_Master_Start();
  1773  0313  160A  118A  20C6  120A  118A  	fcall	_I2C_Master_Start
  1774                           
  1775                           ;MASTER_Proyecto.c: 164:         I2C_Master_Write(0x80);
  1776  0318  3080               	movlw	128
  1777  0319  00F0               	movwf	I2C_Master_Write@d
  1778  031A  3000               	movlw	0
  1779  031B  00F1               	movwf	I2C_Master_Write@d+1
  1780  031C  160A  118A  20D8  120A  118A  	fcall	_I2C_Master_Write
  1781                           
  1782                           ;MASTER_Proyecto.c: 165:         I2C_Master_Write(estado);
  1783  0321  1683               	bsf	3,5	;RP0=1, select bank1
  1784  0322  1303               	bcf	3,6	;RP1=0, select bank1
  1785  0323  086E               	movf	_estado^(0+128),w
  1786  0324  00E2               	movwf	??_main^(0+128)
  1787  0325  01E3               	clrf	(??_main^(0+128)+1)
  1788  0326  0862               	movf	??_main^(0+128),w
  1789  0327  00F0               	movwf	I2C_Master_Write@d
  1790  0328  0863               	movf	(??_main+1)^(0+128),w
  1791  0329  00F1               	movwf	I2C_Master_Write@d+1
  1792  032A  160A  118A  20D8  120A  118A  	fcall	_I2C_Master_Write
  1793                           
  1794                           ;MASTER_Proyecto.c: 166:         I2C_Master_Stop();
  1795  032F  160A  118A  20CF  120A  118A  	fcall	_I2C_Master_Stop
  1796  0334                     l3356:	
  1797                           
  1798                           ;MASTER_Proyecto.c: 167:         _delay((unsigned long)((200)*(8000000/4000.0)));
  1799  0334  3003               	movlw	3
  1800  0335  1683               	bsf	3,5	;RP0=1, select bank1
  1801  0336  1303               	bcf	3,6	;RP1=0, select bank1
  1802  0337  00E4               	movwf	(??_main^(0+128)+2)
  1803  0338  3008               	movlw	8
  1804  0339  00E3               	movwf	(??_main^(0+128)+1)
  1805  033A  3076               	movlw	118
  1806  033B  00E2               	movwf	??_main^(0+128)
  1807  033C                     u4317:	
  1808  033C  0BE2               	decfsz	??_main^(0+128),f
  1809  033D  2B3C               	goto	u4317
  1810  033E  0BE3               	decfsz	(??_main^(0+128)+1),f
  1811  033F  2B3C               	goto	u4317
  1812  0340  0BE4               	decfsz	(??_main^(0+128)+2),f
  1813  0341  2B3C               	goto	u4317
  1814  0342  0000               	nop
  1815  0343                     l3358:	
  1816                           
  1817                           ;MASTER_Proyecto.c: 174:         UART_Write(Val_INT);
  1818  0343  1683               	bsf	3,5	;RP0=1, select bank1
  1819  0344  1303               	bcf	3,6	;RP1=0, select bank1
  1820  0345  084A               	movf	_Val_INT^(0+128),w
  1821  0346  160A  118A  20E2  120A  118A  	fcall	_UART_Write
  1822                           
  1823                           ;MASTER_Proyecto.c: 175:         _delay((unsigned long)((100)*(8000000/4000.0)));
  1824  034B  3002               	movlw	2
  1825  034C  1683               	bsf	3,5	;RP0=1, select bank1
  1826  034D  1303               	bcf	3,6	;RP1=0, select bank1
  1827  034E  00E4               	movwf	(??_main^(0+128)+2)
  1828  034F  3004               	movlw	4
  1829  0350  00E3               	movwf	(??_main^(0+128)+1)
  1830  0351  30B9               	movlw	185
  1831  0352  00E2               	movwf	??_main^(0+128)
  1832  0353                     u4327:	
  1833  0353  0BE2               	decfsz	??_main^(0+128),f
  1834  0354  2B53               	goto	u4327
  1835  0355  0BE3               	decfsz	(??_main^(0+128)+1),f
  1836  0356  2B53               	goto	u4327
  1837  0357  0BE4               	decfsz	(??_main^(0+128)+2),f
  1838  0358  2B53               	goto	u4327
  1839  0359  2B5A               	nop2
  1840  035A                     l3360:	
  1841                           
  1842                           ;MASTER_Proyecto.c: 179:         UART_Write(Val_MOV);
  1843  035A  1683               	bsf	3,5	;RP0=1, select bank1
  1844  035B  1303               	bcf	3,6	;RP1=0, select bank1
  1845  035C  0849               	movf	_Val_MOV^(0+128),w
  1846  035D  160A  118A  20E2  120A  118A  	fcall	_UART_Write
  1847  0362                     l3362:	
  1848                           
  1849                           ;MASTER_Proyecto.c: 180:         _delay((unsigned long)((100)*(8000000/4000.0)));
  1850  0362  3002               	movlw	2
  1851  0363  1683               	bsf	3,5	;RP0=1, select bank1
  1852  0364  1303               	bcf	3,6	;RP1=0, select bank1
  1853  0365  00E4               	movwf	(??_main^(0+128)+2)
  1854  0366  3004               	movlw	4
  1855  0367  00E3               	movwf	(??_main^(0+128)+1)
  1856  0368  30B9               	movlw	185
  1857  0369  00E2               	movwf	??_main^(0+128)
  1858  036A                     u4337:	
  1859  036A  0BE2               	decfsz	??_main^(0+128),f
  1860  036B  2B6A               	goto	u4337
  1861  036C  0BE3               	decfsz	(??_main^(0+128)+1),f
  1862  036D  2B6A               	goto	u4337
  1863  036E  0BE4               	decfsz	(??_main^(0+128)+2),f
  1864  036F  2B6A               	goto	u4337
  1865  0370  2B71               	nop2
  1866                           
  1867                           ;MASTER_Proyecto.c: 184:         UART_Write(Val_VIB);
  1868  0371  1683               	bsf	3,5	;RP0=1, select bank1
  1869  0372  1303               	bcf	3,6	;RP1=0, select bank1
  1870  0373  0848               	movf	_Val_VIB^(0+128),w
  1871  0374  160A  118A  20E2  120A  118A  	fcall	_UART_Write
  1872  0379                     l3364:	
  1873                           
  1874                           ;MASTER_Proyecto.c: 185:         _delay((unsigned long)((100)*(8000000/4000.0)));
  1875  0379  3002               	movlw	2
  1876  037A  1683               	bsf	3,5	;RP0=1, select bank1
  1877  037B  1303               	bcf	3,6	;RP1=0, select bank1
  1878  037C  00E4               	movwf	(??_main^(0+128)+2)
  1879  037D  3004               	movlw	4
  1880  037E  00E3               	movwf	(??_main^(0+128)+1)
  1881  037F  30B9               	movlw	185
  1882  0380  00E2               	movwf	??_main^(0+128)
  1883  0381                     u4347:	
  1884  0381  0BE2               	decfsz	??_main^(0+128),f
  1885  0382  2B81               	goto	u4347
  1886  0383  0BE3               	decfsz	(??_main^(0+128)+1),f
  1887  0384  2B81               	goto	u4347
  1888  0385  0BE4               	decfsz	(??_main^(0+128)+2),f
  1889  0386  2B81               	goto	u4347
  1890  0387  2B88               	nop2
  1891  0388                     l3366:	
  1892                           
  1893                           ;MASTER_Proyecto.c: 189:         UART_Write(Val_TEMP);
  1894  0388  1683               	bsf	3,5	;RP0=1, select bank1
  1895  0389  1303               	bcf	3,6	;RP1=0, select bank1
  1896  038A  084B               	movf	_Val_TEMP^(0+128),w
  1897  038B  160A  118A  20E2  120A  118A  	fcall	_UART_Write
  1898                           
  1899                           ;MASTER_Proyecto.c: 190:         _delay((unsigned long)((100)*(8000000/4000.0)));
  1900  0390  3002               	movlw	2
  1901  0391  1683               	bsf	3,5	;RP0=1, select bank1
  1902  0392  1303               	bcf	3,6	;RP1=0, select bank1
  1903  0393  00E4               	movwf	(??_main^(0+128)+2)
  1904  0394  3004               	movlw	4
  1905  0395  00E3               	movwf	(??_main^(0+128)+1)
  1906  0396  30B9               	movlw	185
  1907  0397  00E2               	movwf	??_main^(0+128)
  1908  0398                     u4357:	
  1909  0398  0BE2               	decfsz	??_main^(0+128),f
  1910  0399  2B98               	goto	u4357
  1911  039A  0BE3               	decfsz	(??_main^(0+128)+1),f
  1912  039B  2B98               	goto	u4357
  1913  039C  0BE4               	decfsz	(??_main^(0+128)+2),f
  1914  039D  2B98               	goto	u4357
  1915  039E  2B9F               	nop2
  1916  039F                     l3368:	
  1917                           
  1918                           ;MASTER_Proyecto.c: 194:         UART_Write(Val_PESO);
  1919  039F  1683               	bsf	3,5	;RP0=1, select bank1
  1920  03A0  1303               	bcf	3,6	;RP1=0, select bank1
  1921  03A1  0847               	movf	_Val_PESO^(0+128),w
  1922  03A2  160A  118A  20E2  120A  118A  	fcall	_UART_Write
  1923  03A7                     l3370:	
  1924                           
  1925                           ;MASTER_Proyecto.c: 195:         _delay((unsigned long)((100)*(8000000/4000.0)));
  1926  03A7  3002               	movlw	2
  1927  03A8  1683               	bsf	3,5	;RP0=1, select bank1
  1928  03A9  1303               	bcf	3,6	;RP1=0, select bank1
  1929  03AA  00E4               	movwf	(??_main^(0+128)+2)
  1930  03AB  3004               	movlw	4
  1931  03AC  00E3               	movwf	(??_main^(0+128)+1)
  1932  03AD  30B9               	movlw	185
  1933  03AE  00E2               	movwf	??_main^(0+128)
  1934  03AF                     u4367:	
  1935  03AF  0BE2               	decfsz	??_main^(0+128),f
  1936  03B0  2BAF               	goto	u4367
  1937  03B1  0BE3               	decfsz	(??_main^(0+128)+1),f
  1938  03B2  2BAF               	goto	u4367
  1939  03B3  0BE4               	decfsz	(??_main^(0+128)+2),f
  1940  03B4  2BAF               	goto	u4367
  1941  03B5  2BB6               	nop2
  1942  03B6                     l3372:	
  1943                           
  1944                           ;MASTER_Proyecto.c: 202:         if (Val_INT == 1){
  1945  03B6  1683               	bsf	3,5	;RP0=1, select bank1
  1946  03B7  1303               	bcf	3,6	;RP1=0, select bank1
  1947  03B8  034A               	decf	_Val_INT^(0+128),w
  1948  03B9  1D03               	btfss	3,2
  1949  03BA  2BBC               	goto	u4231
  1950  03BB  2BBD               	goto	u4230
  1951  03BC                     u4231:	
  1952  03BC  2BCE               	goto	l3378
  1953  03BD                     u4230:	
  1954  03BD                     l3374:	
  1955                           
  1956                           ;MASTER_Proyecto.c: 203:             LCD_POINT(2,2);
  1957  03BD  3002               	movlw	2
  1958  03BE  00E2               	movwf	??_main^(0+128)
  1959  03BF  0862               	movf	??_main^(0+128),w
  1960  03C0  00F3               	movwf	LCD_POINT@col
  1961  03C1  3002               	movlw	2
  1962  03C2  160A  118A  2205  120A  118A  	fcall	_LCD_POINT
  1963  03C7                     l3376:	
  1964                           
  1965                           ;MASTER_Proyecto.c: 204:             lcd_msg("OFF");
  1966  03C7  303F               	movlw	(low ((STR_4-__stringbase)| (0+32768)))& (0+255)
  1967  03C8  160A  118A  2169  120A  118A  	fcall	_lcd_msg
  1968                           
  1969                           ;MASTER_Proyecto.c: 205:         }else{
  1970  03CD  2BDE               	goto	l3382
  1971  03CE                     l3378:	
  1972                           
  1973                           ;MASTER_Proyecto.c: 206:             LCD_POINT(2,2);
  1974  03CE  3002               	movlw	2
  1975  03CF  00E2               	movwf	??_main^(0+128)
  1976  03D0  0862               	movf	??_main^(0+128),w
  1977  03D1  00F3               	movwf	LCD_POINT@col
  1978  03D2  3002               	movlw	2
  1979  03D3  160A  118A  2205  120A  118A  	fcall	_LCD_POINT
  1980  03D8                     l3380:	
  1981                           
  1982                           ;MASTER_Proyecto.c: 207:             lcd_msg("ON");
  1983  03D8  304B               	movlw	(low ((STR_5-__stringbase)| (0+32768)))& (0+255)
  1984  03D9  160A  118A  2169  120A  118A  	fcall	_lcd_msg
  1985  03DE                     l3382:	
  1986                           
  1987                           ;MASTER_Proyecto.c: 212:         if (Val_MOV == 0){
  1988  03DE  1683               	bsf	3,5	;RP0=1, select bank1
  1989  03DF  1303               	bcf	3,6	;RP1=0, select bank1
  1990  03E0  0849               	movf	_Val_MOV^(0+128),w
  1991  03E1  1D03               	btfss	3,2
  1992  03E2  2BE4               	goto	u4241
  1993  03E3  2BE5               	goto	u4240
  1994  03E4                     u4241:	
  1995  03E4  2BF6               	goto	l3388
  1996  03E5                     u4240:	
  1997  03E5                     l3384:	
  1998                           
  1999                           ;MASTER_Proyecto.c: 213:             LCD_POINT(2,6);
  2000  03E5  3006               	movlw	6
  2001  03E6  00E2               	movwf	??_main^(0+128)
  2002  03E7  0862               	movf	??_main^(0+128),w
  2003  03E8  00F3               	movwf	LCD_POINT@col
  2004  03E9  3002               	movlw	2
  2005  03EA  160A  118A  2205  120A  118A  	fcall	_LCD_POINT
  2006  03EF                     l3386:	
  2007                           
  2008                           ;MASTER_Proyecto.c: 214:             lcd_msg("OFF");
  2009  03EF  303F               	movlw	(low ((STR_4-__stringbase)| (0+32768)))& (0+255)
  2010  03F0  160A  118A  2169  120A  118A  	fcall	_lcd_msg
  2011                           
  2012                           ;MASTER_Proyecto.c: 215:         }else{
  2013  03F5  2C06               	goto	l3392
  2014  03F6                     l3388:	
  2015                           
  2016                           ;MASTER_Proyecto.c: 216:             LCD_POINT(2,6);
  2017  03F6  3006               	movlw	6
  2018  03F7  00E2               	movwf	??_main^(0+128)
  2019  03F8  0862               	movf	??_main^(0+128),w
  2020  03F9  00F3               	movwf	LCD_POINT@col
  2021  03FA  3002               	movlw	2
  2022  03FB  160A  118A  2205  120A  118A  	fcall	_LCD_POINT
  2023  0400                     l3390:	
  2024                           
  2025                           ;MASTER_Proyecto.c: 217:             lcd_msg("ON");
  2026  0400  304B               	movlw	(low ((STR_5-__stringbase)| (0+32768)))& (0+255)
  2027  0401  160A  118A  2169  120A  118A  	fcall	_lcd_msg
  2028  0406                     l3392:	
  2029                           
  2030                           ;MASTER_Proyecto.c: 222:         if (Val_VIB == 1){
  2031  0406  1683               	bsf	3,5	;RP0=1, select bank1
  2032  0407  1303               	bcf	3,6	;RP1=0, select bank1
  2033  0408  0348               	decf	_Val_VIB^(0+128),w
  2034  0409  1D03               	btfss	3,2
  2035  040A  2C0C               	goto	u4251
  2036  040B  2C0D               	goto	u4250
  2037  040C                     u4251:	
  2038  040C  2C1E               	goto	l3398
  2039  040D                     u4250:	
  2040  040D                     l3394:	
  2041                           
  2042                           ;MASTER_Proyecto.c: 223:             LCD_POINT(2,10);
  2043  040D  300A               	movlw	10
  2044  040E  00E2               	movwf	??_main^(0+128)
  2045  040F  0862               	movf	??_main^(0+128),w
  2046  0410  00F3               	movwf	LCD_POINT@col
  2047  0411  3002               	movlw	2
  2048  0412  160A  118A  2205  120A  118A  	fcall	_LCD_POINT
  2049  0417                     l3396:	
  2050                           
  2051                           ;MASTER_Proyecto.c: 224:             lcd_msg("ON");
  2052  0417  304B               	movlw	(low ((STR_5-__stringbase)| (0+32768)))& (0+255)
  2053  0418  160A  118A  2169  120A  118A  	fcall	_lcd_msg
  2054                           
  2055                           ;MASTER_Proyecto.c: 225:         }else{
  2056  041D  2C2E               	goto	l3402
  2057  041E                     l3398:	
  2058                           
  2059                           ;MASTER_Proyecto.c: 226:             LCD_POINT(2,10);
  2060  041E  300A               	movlw	10
  2061  041F  00E2               	movwf	??_main^(0+128)
  2062  0420  0862               	movf	??_main^(0+128),w
  2063  0421  00F3               	movwf	LCD_POINT@col
  2064  0422  3002               	movlw	2
  2065  0423  160A  118A  2205  120A  118A  	fcall	_LCD_POINT
  2066  0428                     l3400:	
  2067                           
  2068                           ;MASTER_Proyecto.c: 227:             lcd_msg("OFF");
  2069  0428  303F               	movlw	(low ((STR_4-__stringbase)| (0+32768)))& (0+255)
  2070  0429  160A  118A  2169  120A  118A  	fcall	_lcd_msg
  2071  042E                     l3402:	
  2072                           
  2073                           ;MASTER_Proyecto.c: 229:         _delay((unsigned long)((2000)*(8000000/4000.0)));
  2074  042E  3015               	movlw	21
  2075  042F  1683               	bsf	3,5	;RP0=1, select bank1
  2076  0430  1303               	bcf	3,6	;RP1=0, select bank1
  2077  0431  00E4               	movwf	(??_main^(0+128)+2)
  2078  0432  304B               	movlw	75
  2079  0433  00E3               	movwf	(??_main^(0+128)+1)
  2080  0434  30BD               	movlw	189
  2081  0435  00E2               	movwf	??_main^(0+128)
  2082  0436                     u4377:	
  2083  0436  0BE2               	decfsz	??_main^(0+128),f
  2084  0437  2C36               	goto	u4377
  2085  0438  0BE3               	decfsz	(??_main^(0+128)+1),f
  2086  0439  2C36               	goto	u4377
  2087  043A  0BE4               	decfsz	(??_main^(0+128)+2),f
  2088  043B  2C36               	goto	u4377
  2089  043C  2C3D               	nop2
  2090  043D                     l3404:	
  2091                           
  2092                           ;MASTER_Proyecto.c: 234:         lcd_cmd(0x01);
  2093  043D  3001               	movlw	1
  2094  043E  160A  118A  210A  120A  118A  	fcall	_lcd_cmd
  2095  0443                     l3406:	
  2096                           
  2097                           ;MASTER_Proyecto.c: 236:         LCD_POINT(1,2);
  2098  0443  3002               	movlw	2
  2099  0444  1683               	bsf	3,5	;RP0=1, select bank1
  2100  0445  1303               	bcf	3,6	;RP1=0, select bank1
  2101  0446  00E2               	movwf	??_main^(0+128)
  2102  0447  0862               	movf	??_main^(0+128),w
  2103  0448  00F3               	movwf	LCD_POINT@col
  2104  0449  3001               	movlw	1
  2105  044A  160A  118A  2205  120A  118A  	fcall	_LCD_POINT
  2106  044F                     l3408:	
  2107                           
  2108                           ;MASTER_Proyecto.c: 237:         lcd_msg("TEMP");
  2109  044F  3036               	movlw	(low ((STR_10-__stringbase)| (0+32768)))& (0+255)
  2110  0450  160A  118A  2169  120A  118A  	fcall	_lcd_msg
  2111  0455                     l3410:	
  2112                           
  2113                           ;MASTER_Proyecto.c: 238:         LCD_POINT(1,8);
  2114  0455  3008               	movlw	8
  2115  0456  1683               	bsf	3,5	;RP0=1, select bank1
  2116  0457  1303               	bcf	3,6	;RP1=0, select bank1
  2117  0458  00E2               	movwf	??_main^(0+128)
  2118  0459  0862               	movf	??_main^(0+128),w
  2119  045A  00F3               	movwf	LCD_POINT@col
  2120  045B  3001               	movlw	1
  2121  045C  160A  118A  2205  120A  118A  	fcall	_LCD_POINT
  2122  0461                     l3412:	
  2123                           
  2124                           ;MASTER_Proyecto.c: 239:         lcd_msg("PESO");
  2125  0461  3031               	movlw	(low ((STR_11-__stringbase)| (0+32768)))& (0+255)
  2126  0462  160A  118A  2169  120A  118A  	fcall	_lcd_msg
  2127  0467                     l3414:	
  2128                           
  2129                           ;MASTER_Proyecto.c: 242:         LCD_POINT(2,2);
  2130  0467  3002               	movlw	2
  2131  0468  1683               	bsf	3,5	;RP0=1, select bank1
  2132  0469  1303               	bcf	3,6	;RP1=0, select bank1
  2133  046A  00E2               	movwf	??_main^(0+128)
  2134  046B  0862               	movf	??_main^(0+128),w
  2135  046C  00F3               	movwf	LCD_POINT@col
  2136  046D  3002               	movlw	2
  2137  046E  160A  118A  2205  120A  118A  	fcall	_LCD_POINT
  2138  0473                     l3416:	
  2139                           
  2140                           ;MASTER_Proyecto.c: 243:         lcd_dwr('.');
  2141  0473  302E               	movlw	46
  2142  0474  160A  118A  211C  120A  118A  	fcall	_lcd_dwr
  2143  0479                     l3418:	
  2144                           
  2145                           ;MASTER_Proyecto.c: 245:         LCD_POINT(2,4);
  2146  0479  3004               	movlw	4
  2147  047A  1683               	bsf	3,5	;RP0=1, select bank1
  2148  047B  1303               	bcf	3,6	;RP1=0, select bank1
  2149  047C  00E2               	movwf	??_main^(0+128)
  2150  047D  0862               	movf	??_main^(0+128),w
  2151  047E  00F3               	movwf	LCD_POINT@col
  2152  047F  3002               	movlw	2
  2153  0480  160A  118A  2205  120A  118A  	fcall	_LCD_POINT
  2154  0485                     l3420:	
  2155                           
  2156                           ;MASTER_Proyecto.c: 246:         lcd_dwr(0b11011111);
  2157  0485  30DF               	movlw	223
  2158  0486  160A  118A  211C  120A  118A  	fcall	_lcd_dwr
  2159  048B                     l3422:	
  2160                           
  2161                           ;MASTER_Proyecto.c: 247:         LCD_POINT(2,5);
  2162  048B  3005               	movlw	5
  2163  048C  1683               	bsf	3,5	;RP0=1, select bank1
  2164  048D  1303               	bcf	3,6	;RP1=0, select bank1
  2165  048E  00E2               	movwf	??_main^(0+128)
  2166  048F  0862               	movf	??_main^(0+128),w
  2167  0490  00F3               	movwf	LCD_POINT@col
  2168  0491  3002               	movlw	2
  2169  0492  160A  118A  2205  120A  118A  	fcall	_LCD_POINT
  2170  0497                     l3424:	
  2171                           
  2172                           ;MASTER_Proyecto.c: 248:         lcd_dwr('C');
  2173  0497  3043               	movlw	67
  2174  0498  160A  118A  211C  120A  118A  	fcall	_lcd_dwr
  2175  049D                     l3426:	
  2176                           
  2177                           ;MASTER_Proyecto.c: 249:         LCD_POINT(2,11);
  2178  049D  300B               	movlw	11
  2179  049E  1683               	bsf	3,5	;RP0=1, select bank1
  2180  049F  1303               	bcf	3,6	;RP1=0, select bank1
  2181  04A0  00E2               	movwf	??_main^(0+128)
  2182  04A1  0862               	movf	??_main^(0+128),w
  2183  04A2  00F3               	movwf	LCD_POINT@col
  2184  04A3  3002               	movlw	2
  2185  04A4  160A  118A  2205  120A  118A  	fcall	_LCD_POINT
  2186  04A9                     l3428:	
  2187                           
  2188                           ;MASTER_Proyecto.c: 250:         lcd_dwr('g');
  2189  04A9  3067               	movlw	103
  2190  04AA  160A  118A  211C  120A  118A  	fcall	_lcd_dwr
  2191  04AF                     l3430:	
  2192                           
  2193                           ;MASTER_Proyecto.c: 258:         K = 1.00/(invT0 + invBeta*(log(adcMax/(float)Val_TEMP -
      +                           1.00)));
  2194  04AF  30BF               	movlw	191
  2195  04B0  1283               	bcf	3,5	;RP0=0, select bank0
  2196  04B1  1303               	bcf	3,6	;RP1=0, select bank0
  2197  04B2  00C2               	movwf	___fladd@b+3
  2198  04B3  3080               	movlw	128
  2199  04B4  00C1               	movwf	___fladd@b+2
  2200  04B5  3000               	movlw	0
  2201  04B6  00C0               	movwf	___fladd@b+1
  2202  04B7  3000               	movlw	0
  2203  04B8  00BF               	movwf	___fladd@b
  2204  04B9  1683               	bsf	3,5	;RP0=1, select bank1
  2205  04BA  1303               	bcf	3,6	;RP1=0, select bank1
  2206  04BB  084B               	movf	_Val_TEMP^(0+128),w
  2207  04BC  00E2               	movwf	??_main^(0+128)
  2208  04BD  01E3               	clrf	(??_main^(0+128)+1)
  2209  04BE  01E4               	clrf	(??_main^(0+128)+2)
  2210  04BF  01E5               	clrf	(??_main^(0+128)+3)
  2211  04C0  0865               	movf	(??_main+3)^(0+128),w
  2212  04C1  00F3               	movwf	___xxtofl@val+3
  2213  04C2  0864               	movf	(??_main+2)^(0+128),w
  2214  04C3  00F2               	movwf	___xxtofl@val+2
  2215  04C4  0863               	movf	(??_main+1)^(0+128),w
  2216  04C5  00F1               	movwf	___xxtofl@val+1
  2217  04C6  0862               	movf	??_main^(0+128),w
  2218  04C7  00F0               	movwf	___xxtofl@val
  2219  04C8  3000               	movlw	0
  2220  04C9  160A  118A  266C  120A  118A  	fcall	___xxtofl
  2221  04CE  0873               	movf	?___xxtofl+3,w
  2222  04CF  1283               	bcf	3,5	;RP0=0, select bank0
  2223  04D0  1303               	bcf	3,6	;RP1=0, select bank0
  2224  04D1  00A8               	movwf	___fldiv@a+3
  2225  04D2  0872               	movf	?___xxtofl+2,w
  2226  04D3  00A7               	movwf	___fldiv@a+2
  2227  04D4  0871               	movf	?___xxtofl+1,w
  2228  04D5  00A6               	movwf	___fldiv@a+1
  2229  04D6  0870               	movf	?___xxtofl,w
  2230  04D7  00A5               	movwf	___fldiv@a
  2231  04D8  3044               	movlw	68
  2232  04D9  00AC               	movwf	___fldiv@b+3
  2233  04DA  307F               	movlw	127
  2234  04DB  00AB               	movwf	___fldiv@b+2
  2235  04DC  30C0               	movlw	192
  2236  04DD  00AA               	movwf	___fldiv@b+1
  2237  04DE  3000               	movlw	0
  2238  04DF  00A9               	movwf	___fldiv@b
  2239  04E0  120A  158A  203A  120A  118A  	fcall	___fldiv
  2240  04E5  1283               	bcf	3,5	;RP0=0, select bank0
  2241  04E6  1303               	bcf	3,6	;RP1=0, select bank0
  2242  04E7  0828               	movf	?___fldiv+3,w
  2243  04E8  00C6               	movwf	___fladd@a+3
  2244  04E9  0827               	movf	?___fldiv+2,w
  2245  04EA  00C5               	movwf	___fladd@a+2
  2246  04EB  0826               	movf	?___fldiv+1,w
  2247  04EC  00C4               	movwf	___fladd@a+1
  2248  04ED  0825               	movf	?___fldiv,w
  2249  04EE  00C3               	movwf	___fladd@a
  2250  04EF  120A  158A  2217  120A  118A  	fcall	___fladd
  2251  04F4  1283               	bcf	3,5	;RP0=0, select bank0
  2252  04F5  1303               	bcf	3,6	;RP1=0, select bank0
  2253  04F6  0842               	movf	?___fladd+3,w
  2254  04F7  1683               	bsf	3,5	;RP0=1, select bank1
  2255  04F8  1303               	bcf	3,6	;RP1=0, select bank1
  2256  04F9  00E9               	movwf	(_main$1116+3)^(0+128)
  2257  04FA  1283               	bcf	3,5	;RP0=0, select bank0
  2258  04FB  1303               	bcf	3,6	;RP1=0, select bank0
  2259  04FC  0841               	movf	?___fladd+2,w
  2260  04FD  1683               	bsf	3,5	;RP0=1, select bank1
  2261  04FE  1303               	bcf	3,6	;RP1=0, select bank1
  2262  04FF  00E8               	movwf	(_main$1116+2)^(0+128)
  2263  0500  1283               	bcf	3,5	;RP0=0, select bank0
  2264  0501  1303               	bcf	3,6	;RP1=0, select bank0
  2265  0502  0840               	movf	?___fladd+1,w
  2266  0503  1683               	bsf	3,5	;RP0=1, select bank1
  2267  0504  1303               	bcf	3,6	;RP1=0, select bank1
  2268  0505  00E7               	movwf	(_main$1116+1)^(0+128)
  2269  0506  1283               	bcf	3,5	;RP0=0, select bank0
  2270  0507  1303               	bcf	3,6	;RP1=0, select bank0
  2271  0508  083F               	movf	?___fladd,w
  2272  0509  1683               	bsf	3,5	;RP0=1, select bank1
  2273  050A  1303               	bcf	3,6	;RP1=0, select bank1
  2274  050B  00E6               	movwf	_main$1116^(0+128)
  2275  050C                     l3432:	
  2276                           
  2277                           ;MASTER_Proyecto.c: 258:         K = 1.00/(invT0 + invBeta*(log(adcMax/(float)Val_TEMP -
      +                           1.00)));
  2278  050C  0869               	movf	(_main$1116+3)^(0+128),w
  2279  050D  00DF               	movwf	(log@x+3)^(0+128)
  2280  050E  0868               	movf	(_main$1116+2)^(0+128),w
  2281  050F  00DE               	movwf	(log@x+2)^(0+128)
  2282  0510  0867               	movf	(_main$1116+1)^(0+128),w
  2283  0511  00DD               	movwf	(log@x+1)^(0+128)
  2284  0512  0866               	movf	_main$1116^(0+128),w
  2285  0513  00DC               	movwf	log@x^(0+128)
  2286  0514  120A  118A  2070  120A  118A  	fcall	_log
  2287  0519  1683               	bsf	3,5	;RP0=1, select bank1
  2288  051A  1303               	bcf	3,6	;RP1=0, select bank1
  2289  051B  085F               	movf	(?_log+3)^(0+128),w
  2290  051C  00ED               	movwf	(_main$1117+3)^(0+128)
  2291  051D  085E               	movf	(?_log+2)^(0+128),w
  2292  051E  00EC               	movwf	(_main$1117+2)^(0+128)
  2293  051F  085D               	movf	(?_log+1)^(0+128),w
  2294  0520  00EB               	movwf	(_main$1117+1)^(0+128)
  2295  0521  085C               	movf	?_log^(0+128),w
  2296  0522  00EA               	movwf	_main$1117^(0+128)
  2297  0523                     l3434:	
  2298                           
  2299                           ;MASTER_Proyecto.c: 258:         K = 1.00/(invT0 + invBeta*(log(adcMax/(float)Val_TEMP -
      +                           1.00)));
  2300  0523  303B               	movlw	59
  2301  0524  1283               	bcf	3,5	;RP0=0, select bank0
  2302  0525  1303               	bcf	3,6	;RP1=0, select bank0
  2303  0526  00C2               	movwf	___fladd@b+3
  2304  0527  305B               	movlw	91
  2305  0528  00C1               	movwf	___fladd@b+2
  2306  0529  30CF               	movlw	207
  2307  052A  00C0               	movwf	___fladd@b+1
  2308  052B  300F               	movlw	15
  2309  052C  00BF               	movwf	___fladd@b
  2310  052D  3039               	movlw	57
  2311  052E  00D6               	movwf	___flmul@b+3
  2312  052F  309B               	movlw	155
  2313  0530  00D5               	movwf	___flmul@b+2
  2314  0531  301D               	movlw	29
  2315  0532  00D4               	movwf	___flmul@b+1
  2316  0533  3063               	movlw	99
  2317  0534  00D3               	movwf	___flmul@b
  2318  0535  1683               	bsf	3,5	;RP0=1, select bank1
  2319  0536  1303               	bcf	3,6	;RP1=0, select bank1
  2320  0537  086D               	movf	(_main$1117+3)^(0+128),w
  2321  0538  1283               	bcf	3,5	;RP0=0, select bank0
  2322  0539  1303               	bcf	3,6	;RP1=0, select bank0
  2323  053A  00DA               	movwf	___flmul@a+3
  2324  053B  1683               	bsf	3,5	;RP0=1, select bank1
  2325  053C  1303               	bcf	3,6	;RP1=0, select bank1
  2326  053D  086C               	movf	(_main$1117+2)^(0+128),w
  2327  053E  1283               	bcf	3,5	;RP0=0, select bank0
  2328  053F  1303               	bcf	3,6	;RP1=0, select bank0
  2329  0540  00D9               	movwf	___flmul@a+2
  2330  0541  1683               	bsf	3,5	;RP0=1, select bank1
  2331  0542  1303               	bcf	3,6	;RP1=0, select bank1
  2332  0543  086B               	movf	(_main$1117+1)^(0+128),w
  2333  0544  1283               	bcf	3,5	;RP0=0, select bank0
  2334  0545  1303               	bcf	3,6	;RP1=0, select bank0
  2335  0546  00D8               	movwf	___flmul@a+1
  2336  0547  1683               	bsf	3,5	;RP0=1, select bank1
  2337  0548  1303               	bcf	3,6	;RP1=0, select bank1
  2338  0549  086A               	movf	_main$1117^(0+128),w
  2339  054A  1283               	bcf	3,5	;RP0=0, select bank0
  2340  054B  1303               	bcf	3,6	;RP1=0, select bank0
  2341  054C  00D7               	movwf	___flmul@a
  2342  054D  120A  158A  249F  120A  118A  	fcall	___flmul
  2343  0552  1283               	bcf	3,5	;RP0=0, select bank0
  2344  0553  1303               	bcf	3,6	;RP1=0, select bank0
  2345  0554  0856               	movf	?___flmul+3,w
  2346  0555  00C6               	movwf	___fladd@a+3
  2347  0556  0855               	movf	?___flmul+2,w
  2348  0557  00C5               	movwf	___fladd@a+2
  2349  0558  0854               	movf	?___flmul+1,w
  2350  0559  00C4               	movwf	___fladd@a+1
  2351  055A  0853               	movf	?___flmul,w
  2352  055B  00C3               	movwf	___fladd@a
  2353  055C  120A  158A  2217  120A  118A  	fcall	___fladd
  2354  0561  1283               	bcf	3,5	;RP0=0, select bank0
  2355  0562  1303               	bcf	3,6	;RP1=0, select bank0
  2356  0563  0842               	movf	?___fladd+3,w
  2357  0564  00A8               	movwf	___fldiv@a+3
  2358  0565  0841               	movf	?___fladd+2,w
  2359  0566  00A7               	movwf	___fldiv@a+2
  2360  0567  0840               	movf	?___fladd+1,w
  2361  0568  00A6               	movwf	___fldiv@a+1
  2362  0569  083F               	movf	?___fladd,w
  2363  056A  00A5               	movwf	___fldiv@a
  2364  056B  303F               	movlw	63
  2365  056C  00AC               	movwf	___fldiv@b+3
  2366  056D  3080               	movlw	128
  2367  056E  00AB               	movwf	___fldiv@b+2
  2368  056F  3000               	movlw	0
  2369  0570  00AA               	movwf	___fldiv@b+1
  2370  0571  3000               	movlw	0
  2371  0572  00A9               	movwf	___fldiv@b
  2372  0573  120A  158A  203A  120A  118A  	fcall	___fldiv
  2373  0578  1283               	bcf	3,5	;RP0=0, select bank0
  2374  0579  1303               	bcf	3,6	;RP1=0, select bank0
  2375  057A  0828               	movf	?___fldiv+3,w
  2376  057B  1683               	bsf	3,5	;RP0=1, select bank1
  2377  057C  1303               	bcf	3,6	;RP1=0, select bank1
  2378  057D  00A3               	movwf	(_K+3)^(0+128)
  2379  057E  1283               	bcf	3,5	;RP0=0, select bank0
  2380  057F  1303               	bcf	3,6	;RP1=0, select bank0
  2381  0580  0827               	movf	?___fldiv+2,w
  2382  0581  1683               	bsf	3,5	;RP0=1, select bank1
  2383  0582  1303               	bcf	3,6	;RP1=0, select bank1
  2384  0583  00A2               	movwf	(_K+2)^(0+128)
  2385  0584  1283               	bcf	3,5	;RP0=0, select bank0
  2386  0585  1303               	bcf	3,6	;RP1=0, select bank0
  2387  0586  0826               	movf	?___fldiv+1,w
  2388  0587  1683               	bsf	3,5	;RP0=1, select bank1
  2389  0588  1303               	bcf	3,6	;RP1=0, select bank1
  2390  0589  00A1               	movwf	(_K+1)^(0+128)
  2391  058A  1283               	bcf	3,5	;RP0=0, select bank0
  2392  058B  1303               	bcf	3,6	;RP1=0, select bank0
  2393  058C  0825               	movf	?___fldiv,w
  2394  058D  1683               	bsf	3,5	;RP0=1, select bank1
  2395  058E  1303               	bcf	3,6	;RP1=0, select bank1
  2396  058F  00A0               	movwf	_K^(0+128)
  2397  0590                     l3436:	
  2398                           
  2399                           ;MASTER_Proyecto.c: 259:         C = K - 273.15;
  2400  0590  30C3               	movlw	195
  2401  0591  1283               	bcf	3,5	;RP0=0, select bank0
  2402  0592  1303               	bcf	3,6	;RP1=0, select bank0
  2403  0593  00C2               	movwf	___fladd@b+3
  2404  0594  3088               	movlw	136
  2405  0595  00C1               	movwf	___fladd@b+2
  2406  0596  3093               	movlw	147
  2407  0597  00C0               	movwf	___fladd@b+1
  2408  0598  3033               	movlw	51
  2409  0599  00BF               	movwf	___fladd@b
  2410  059A  1683               	bsf	3,5	;RP0=1, select bank1
  2411  059B  1303               	bcf	3,6	;RP1=0, select bank1
  2412  059C  0823               	movf	(_K+3)^(0+128),w
  2413  059D  1283               	bcf	3,5	;RP0=0, select bank0
  2414  059E  1303               	bcf	3,6	;RP1=0, select bank0
  2415  059F  00C6               	movwf	___fladd@a+3
  2416  05A0  1683               	bsf	3,5	;RP0=1, select bank1
  2417  05A1  1303               	bcf	3,6	;RP1=0, select bank1
  2418  05A2  0822               	movf	(_K+2)^(0+128),w
  2419  05A3  1283               	bcf	3,5	;RP0=0, select bank0
  2420  05A4  1303               	bcf	3,6	;RP1=0, select bank0
  2421  05A5  00C5               	movwf	___fladd@a+2
  2422  05A6  1683               	bsf	3,5	;RP0=1, select bank1
  2423  05A7  1303               	bcf	3,6	;RP1=0, select bank1
  2424  05A8  0821               	movf	(_K+1)^(0+128),w
  2425  05A9  1283               	bcf	3,5	;RP0=0, select bank0
  2426  05AA  1303               	bcf	3,6	;RP1=0, select bank0
  2427  05AB  00C4               	movwf	___fladd@a+1
  2428  05AC  1683               	bsf	3,5	;RP0=1, select bank1
  2429  05AD  1303               	bcf	3,6	;RP1=0, select bank1
  2430  05AE  0820               	movf	_K^(0+128),w
  2431  05AF  1283               	bcf	3,5	;RP0=0, select bank0
  2432  05B0  1303               	bcf	3,6	;RP1=0, select bank0
  2433  05B1  00C3               	movwf	___fladd@a
  2434  05B2  120A  158A  2217  120A  118A  	fcall	___fladd
  2435  05B7  1283               	bcf	3,5	;RP0=0, select bank0
  2436  05B8  1303               	bcf	3,6	;RP1=0, select bank0
  2437  05B9  0842               	movf	?___fladd+3,w
  2438  05BA  1683               	bsf	3,5	;RP0=1, select bank3
  2439  05BB  1703               	bsf	3,6	;RP1=1, select bank3
  2440  05BC  0093               	movwf	(_C+3)^(0+384)
  2441  05BD  1283               	bcf	3,5	;RP0=0, select bank0
  2442  05BE  1303               	bcf	3,6	;RP1=0, select bank0
  2443  05BF  0841               	movf	?___fladd+2,w
  2444  05C0  1683               	bsf	3,5	;RP0=1, select bank3
  2445  05C1  1703               	bsf	3,6	;RP1=1, select bank3
  2446  05C2  0092               	movwf	(_C+2)^(0+384)
  2447  05C3  1283               	bcf	3,5	;RP0=0, select bank0
  2448  05C4  1303               	bcf	3,6	;RP1=0, select bank0
  2449  05C5  0840               	movf	?___fladd+1,w
  2450  05C6  1683               	bsf	3,5	;RP0=1, select bank3
  2451  05C7  1703               	bsf	3,6	;RP1=1, select bank3
  2452  05C8  0091               	movwf	(_C+1)^(0+384)
  2453  05C9  1283               	bcf	3,5	;RP0=0, select bank0
  2454  05CA  1303               	bcf	3,6	;RP1=0, select bank0
  2455  05CB  083F               	movf	?___fladd,w
  2456  05CC  1683               	bsf	3,5	;RP0=1, select bank3
  2457  05CD  1703               	bsf	3,6	;RP1=1, select bank3
  2458  05CE  0090               	movwf	_C^(0+384)
  2459  05CF                     l3438:	
  2460                           
  2461                           ;MASTER_Proyecto.c: 261:         ADC_PESO_V = (float)((Val_PESO)/((float)300));
  2462  05CF  3043               	movlw	67
  2463  05D0  1283               	bcf	3,5	;RP0=0, select bank0
  2464  05D1  1303               	bcf	3,6	;RP1=0, select bank0
  2465  05D2  00A8               	movwf	___fldiv@a+3
  2466  05D3  3096               	movlw	150
  2467  05D4  00A7               	movwf	___fldiv@a+2
  2468  05D5  3000               	movlw	0
  2469  05D6  00A6               	movwf	___fldiv@a+1
  2470  05D7  3000               	movlw	0
  2471  05D8  00A5               	movwf	___fldiv@a
  2472  05D9  1683               	bsf	3,5	;RP0=1, select bank1
  2473  05DA  1303               	bcf	3,6	;RP1=0, select bank1
  2474  05DB  0847               	movf	_Val_PESO^(0+128),w
  2475  05DC  00E2               	movwf	??_main^(0+128)
  2476  05DD  01E3               	clrf	(??_main^(0+128)+1)
  2477  05DE  01E4               	clrf	(??_main^(0+128)+2)
  2478  05DF  01E5               	clrf	(??_main^(0+128)+3)
  2479  05E0  0865               	movf	(??_main+3)^(0+128),w
  2480  05E1  00F3               	movwf	___xxtofl@val+3
  2481  05E2  0864               	movf	(??_main+2)^(0+128),w
  2482  05E3  00F2               	movwf	___xxtofl@val+2
  2483  05E4  0863               	movf	(??_main+1)^(0+128),w
  2484  05E5  00F1               	movwf	___xxtofl@val+1
  2485  05E6  0862               	movf	??_main^(0+128),w
  2486  05E7  00F0               	movwf	___xxtofl@val
  2487  05E8  3001               	movlw	1
  2488  05E9  160A  118A  266C  120A  118A  	fcall	___xxtofl
  2489  05EE  0873               	movf	?___xxtofl+3,w
  2490  05EF  1283               	bcf	3,5	;RP0=0, select bank0
  2491  05F0  1303               	bcf	3,6	;RP1=0, select bank0
  2492  05F1  00AC               	movwf	___fldiv@b+3
  2493  05F2  0872               	movf	?___xxtofl+2,w
  2494  05F3  00AB               	movwf	___fldiv@b+2
  2495  05F4  0871               	movf	?___xxtofl+1,w
  2496  05F5  00AA               	movwf	___fldiv@b+1
  2497  05F6  0870               	movf	?___xxtofl,w
  2498  05F7  00A9               	movwf	___fldiv@b
  2499  05F8  120A  158A  203A  120A  118A  	fcall	___fldiv
  2500  05FD  1283               	bcf	3,5	;RP0=0, select bank0
  2501  05FE  1303               	bcf	3,6	;RP1=0, select bank0
  2502  05FF  0828               	movf	?___fldiv+3,w
  2503  0600  1683               	bsf	3,5	;RP0=1, select bank1
  2504  0601  1303               	bcf	3,6	;RP1=0, select bank1
  2505  0602  00AF               	movwf	(_ADC_PESO_V+3)^(0+128)
  2506  0603  1283               	bcf	3,5	;RP0=0, select bank0
  2507  0604  1303               	bcf	3,6	;RP1=0, select bank0
  2508  0605  0827               	movf	?___fldiv+2,w
  2509  0606  1683               	bsf	3,5	;RP0=1, select bank1
  2510  0607  1303               	bcf	3,6	;RP1=0, select bank1
  2511  0608  00AE               	movwf	(_ADC_PESO_V+2)^(0+128)
  2512  0609  1283               	bcf	3,5	;RP0=0, select bank0
  2513  060A  1303               	bcf	3,6	;RP1=0, select bank0
  2514  060B  0826               	movf	?___fldiv+1,w
  2515  060C  1683               	bsf	3,5	;RP0=1, select bank1
  2516  060D  1303               	bcf	3,6	;RP1=0, select bank1
  2517  060E  00AD               	movwf	(_ADC_PESO_V+1)^(0+128)
  2518  060F  1283               	bcf	3,5	;RP0=0, select bank0
  2519  0610  1303               	bcf	3,6	;RP1=0, select bank0
  2520  0611  0825               	movf	?___fldiv,w
  2521  0612  1683               	bsf	3,5	;RP0=1, select bank1
  2522  0613  1303               	bcf	3,6	;RP1=0, select bank1
  2523  0614  00AC               	movwf	_ADC_PESO_V^(0+128)
  2524  0615                     l3440:	
  2525                           
  2526                           ;MASTER_Proyecto.c: 265:         POT_cien = (float)((C)*((float)10));
  2527  0615  3041               	movlw	65
  2528  0616  1283               	bcf	3,5	;RP0=0, select bank0
  2529  0617  1303               	bcf	3,6	;RP1=0, select bank0
  2530  0618  00D6               	movwf	___flmul@b+3
  2531  0619  3020               	movlw	32
  2532  061A  00D5               	movwf	___flmul@b+2
  2533  061B  3000               	movlw	0
  2534  061C  00D4               	movwf	___flmul@b+1
  2535  061D  3000               	movlw	0
  2536  061E  00D3               	movwf	___flmul@b
  2537  061F  1683               	bsf	3,5	;RP0=1, select bank3
  2538  0620  1703               	bsf	3,6	;RP1=1, select bank3
  2539  0621  0813               	movf	(_C+3)^(0+384),w
  2540  0622  1283               	bcf	3,5	;RP0=0, select bank0
  2541  0623  1303               	bcf	3,6	;RP1=0, select bank0
  2542  0624  00DA               	movwf	___flmul@a+3
  2543  0625  1683               	bsf	3,5	;RP0=1, select bank3
  2544  0626  1703               	bsf	3,6	;RP1=1, select bank3
  2545  0627  0812               	movf	(_C+2)^(0+384),w
  2546  0628  1283               	bcf	3,5	;RP0=0, select bank0
  2547  0629  1303               	bcf	3,6	;RP1=0, select bank0
  2548  062A  00D9               	movwf	___flmul@a+2
  2549  062B  1683               	bsf	3,5	;RP0=1, select bank3
  2550  062C  1703               	bsf	3,6	;RP1=1, select bank3
  2551  062D  0811               	movf	(_C+1)^(0+384),w
  2552  062E  1283               	bcf	3,5	;RP0=0, select bank0
  2553  062F  1303               	bcf	3,6	;RP1=0, select bank0
  2554  0630  00D8               	movwf	___flmul@a+1
  2555  0631  1683               	bsf	3,5	;RP0=1, select bank3
  2556  0632  1703               	bsf	3,6	;RP1=1, select bank3
  2557  0633  0810               	movf	_C^(0+384),w
  2558  0634  1283               	bcf	3,5	;RP0=0, select bank0
  2559  0635  1303               	bcf	3,6	;RP1=0, select bank0
  2560  0636  00D7               	movwf	___flmul@a
  2561  0637  120A  158A  249F  120A  118A  	fcall	___flmul
  2562  063C  1283               	bcf	3,5	;RP0=0, select bank0
  2563  063D  1303               	bcf	3,6	;RP1=0, select bank0
  2564  063E  0856               	movf	?___flmul+3,w
  2565  063F  1683               	bsf	3,5	;RP0=1, select bank1
  2566  0640  1303               	bcf	3,6	;RP1=0, select bank1
  2567  0641  00AB               	movwf	(_POT_cien+3)^(0+128)
  2568  0642  1283               	bcf	3,5	;RP0=0, select bank0
  2569  0643  1303               	bcf	3,6	;RP1=0, select bank0
  2570  0644  0855               	movf	?___flmul+2,w
  2571  0645  1683               	bsf	3,5	;RP0=1, select bank1
  2572  0646  1303               	bcf	3,6	;RP1=0, select bank1
  2573  0647  00AA               	movwf	(_POT_cien+2)^(0+128)
  2574  0648  1283               	bcf	3,5	;RP0=0, select bank0
  2575  0649  1303               	bcf	3,6	;RP1=0, select bank0
  2576  064A  0854               	movf	?___flmul+1,w
  2577  064B  1683               	bsf	3,5	;RP0=1, select bank1
  2578  064C  1303               	bcf	3,6	;RP1=0, select bank1
  2579  064D  00A9               	movwf	(_POT_cien+1)^(0+128)
  2580  064E  1283               	bcf	3,5	;RP0=0, select bank0
  2581  064F  1303               	bcf	3,6	;RP1=0, select bank0
  2582  0650  0853               	movf	?___flmul,w
  2583  0651  1683               	bsf	3,5	;RP0=1, select bank1
  2584  0652  1303               	bcf	3,6	;RP1=0, select bank1
  2585  0653  00A8               	movwf	_POT_cien^(0+128)
  2586  0654                     l3442:	
  2587                           
  2588                           ;MASTER_Proyecto.c: 266:         DECI_1_POT = (uint16_t)(POT_cien);
  2589  0654  082B               	movf	(_POT_cien+3)^(0+128),w
  2590  0655  00F3               	movwf	___fltol@f1+3
  2591  0656  082A               	movf	(_POT_cien+2)^(0+128),w
  2592  0657  00F2               	movwf	___fltol@f1+2
  2593  0658  0829               	movf	(_POT_cien+1)^(0+128),w
  2594  0659  00F1               	movwf	___fltol@f1+1
  2595  065A  0828               	movf	_POT_cien^(0+128),w
  2596  065B  00F0               	movwf	___fltol@f1
  2597  065C  160A  118A  24B3  120A  118A  	fcall	___fltol
  2598  0661  0871               	movf	?___fltol+1,w
  2599  0662  1683               	bsf	3,5	;RP0=1, select bank1
  2600  0663  1303               	bcf	3,6	;RP1=0, select bank1
  2601  0664  00B9               	movwf	(_DECI_1_POT+1)^(0+128)
  2602  0665  0870               	movf	?___fltol,w
  2603  0666  00B8               	movwf	_DECI_1_POT^(0+128)
  2604  0667                     l3444:	
  2605                           
  2606                           ;MASTER_Proyecto.c: 267:         POT_D2 = (uint8_t)((DECI_1_POT)%((uint8_t)10));
  2607  0667  300A               	movlw	10
  2608  0668  00F0               	movwf	___lwmod@divisor
  2609  0669  3000               	movlw	0
  2610  066A  00F1               	movwf	___lwmod@divisor+1
  2611  066B  0839               	movf	(_DECI_1_POT+1)^(0+128),w
  2612  066C  00F3               	movwf	___lwmod@dividend+1
  2613  066D  0838               	movf	_DECI_1_POT^(0+128),w
  2614  066E  00F2               	movwf	___lwmod@dividend
  2615  066F  120A  158A  2000  120A  118A  	fcall	___lwmod
  2616  0674  0870               	movf	?___lwmod,w
  2617  0675  1683               	bsf	3,5	;RP0=1, select bank1
  2618  0676  1303               	bcf	3,6	;RP1=0, select bank1
  2619  0677  00E2               	movwf	??_main^(0+128)
  2620  0678  0862               	movf	??_main^(0+128),w
  2621  0679  00C0               	movwf	_POT_D2^(0+128)
  2622  067A                     l3446:	
  2623                           
  2624                           ;MASTER_Proyecto.c: 269:         DECI_2_POT = (uint16_t)((DECI_1_POT)/((uint16_t)10));
  2625  067A  300A               	movlw	10
  2626  067B  00F0               	movwf	___lwdiv@divisor
  2627  067C  3000               	movlw	0
  2628  067D  00F1               	movwf	___lwdiv@divisor+1
  2629  067E  0839               	movf	(_DECI_1_POT+1)^(0+128),w
  2630  067F  00F3               	movwf	___lwdiv@dividend+1
  2631  0680  0838               	movf	_DECI_1_POT^(0+128),w
  2632  0681  00F2               	movwf	___lwdiv@dividend
  2633  0682  160A  118A  22AA  120A  118A  	fcall	___lwdiv
  2634  0687  0871               	movf	?___lwdiv+1,w
  2635  0688  1683               	bsf	3,5	;RP0=1, select bank1
  2636  0689  1303               	bcf	3,6	;RP1=0, select bank1
  2637  068A  00B7               	movwf	(_DECI_2_POT+1)^(0+128)
  2638  068B  0870               	movf	?___lwdiv,w
  2639  068C  00B6               	movwf	_DECI_2_POT^(0+128)
  2640  068D                     l3448:	
  2641                           
  2642                           ;MASTER_Proyecto.c: 270:         POT_D1 = (uint8_t)((DECI_2_POT)%((uint8_t)10));
  2643  068D  300A               	movlw	10
  2644  068E  00F0               	movwf	___lwmod@divisor
  2645  068F  3000               	movlw	0
  2646  0690  00F1               	movwf	___lwmod@divisor+1
  2647  0691  0837               	movf	(_DECI_2_POT+1)^(0+128),w
  2648  0692  00F3               	movwf	___lwmod@dividend+1
  2649  0693  0836               	movf	_DECI_2_POT^(0+128),w
  2650  0694  00F2               	movwf	___lwmod@dividend
  2651  0695  120A  158A  2000  120A  118A  	fcall	___lwmod
  2652  069A  0870               	movf	?___lwmod,w
  2653  069B  1683               	bsf	3,5	;RP0=1, select bank1
  2654  069C  1303               	bcf	3,6	;RP1=0, select bank1
  2655  069D  00E2               	movwf	??_main^(0+128)
  2656  069E  0862               	movf	??_main^(0+128),w
  2657  069F  00C1               	movwf	_POT_D1^(0+128)
  2658  06A0                     l3450:	
  2659                           
  2660                           ;MASTER_Proyecto.c: 272:         TEMP_EN_1 = (uint16_t)((DECI_2_POT)/((uint16_t)10));
  2661  06A0  300A               	movlw	10
  2662  06A1  00F0               	movwf	___lwdiv@divisor
  2663  06A2  3000               	movlw	0
  2664  06A3  00F1               	movwf	___lwdiv@divisor+1
  2665  06A4  0837               	movf	(_DECI_2_POT+1)^(0+128),w
  2666  06A5  00F3               	movwf	___lwdiv@dividend+1
  2667  06A6  0836               	movf	_DECI_2_POT^(0+128),w
  2668  06A7  00F2               	movwf	___lwdiv@dividend
  2669  06A8  160A  118A  22AA  120A  118A  	fcall	___lwdiv
  2670  06AD  0870               	movf	?___lwdiv,w
  2671  06AE  1683               	bsf	3,5	;RP0=1, select bank1
  2672  06AF  1303               	bcf	3,6	;RP1=0, select bank1
  2673  06B0  00E2               	movwf	??_main^(0+128)
  2674  06B1  0862               	movf	??_main^(0+128),w
  2675  06B2  00C5               	movwf	_TEMP_EN_1^(0+128)
  2676  06B3                     l3452:	
  2677                           
  2678                           ;MASTER_Proyecto.c: 273:         TEMP_EN = (uint8_t)((TEMP_EN_1)%((uint8_t)10));
  2679  06B3  300A               	movlw	10
  2680  06B4  00F0               	movwf	___awmod@divisor
  2681  06B5  3000               	movlw	0
  2682  06B6  00F1               	movwf	___awmod@divisor+1
  2683  06B7  0845               	movf	_TEMP_EN_1^(0+128),w
  2684  06B8  00E2               	movwf	??_main^(0+128)
  2685  06B9  01E3               	clrf	(??_main^(0+128)+1)
  2686  06BA  0862               	movf	??_main^(0+128),w
  2687  06BB  00F2               	movwf	___awmod@dividend
  2688  06BC  0863               	movf	(??_main+1)^(0+128),w
  2689  06BD  00F3               	movwf	___awmod@dividend+1
  2690  06BE  160A  118A  233C  120A  118A  	fcall	___awmod
  2691  06C3  0870               	movf	?___awmod,w
  2692  06C4  1683               	bsf	3,5	;RP0=1, select bank1
  2693  06C5  1303               	bcf	3,6	;RP1=0, select bank1
  2694  06C6  00E4               	movwf	(??_main+2)^(0+128)
  2695  06C7  0864               	movf	(??_main+2)^(0+128),w
  2696  06C8  00C6               	movwf	_TEMP_EN^(0+128)
  2697  06C9                     l3454:	
  2698                           
  2699                           ;MASTER_Proyecto.c: 277:         LCD_POINT(2,0);
  2700  06C9  01F3               	clrf	LCD_POINT@col
  2701  06CA  3002               	movlw	2
  2702  06CB  160A  118A  2205  120A  118A  	fcall	_LCD_POINT
  2703  06D0                     l3456:	
  2704                           
  2705                           ;MASTER_Proyecto.c: 278:         lcd_dwr(Val_STR(TEMP_EN));
  2706  06D0  1683               	bsf	3,5	;RP0=1, select bank1
  2707  06D1  1303               	bcf	3,6	;RP1=0, select bank1
  2708  06D2  0846               	movf	_TEMP_EN^(0+128),w
  2709  06D3  160A  118A  226B  120A  118A  	fcall	_Val_STR
  2710  06D8  160A  118A  211C  120A  118A  	fcall	_lcd_dwr
  2711  06DD                     l3458:	
  2712                           
  2713                           ;MASTER_Proyecto.c: 280:         LCD_POINT(2,1);
  2714  06DD  01F3               	clrf	LCD_POINT@col
  2715  06DE  0AF3               	incf	LCD_POINT@col,f
  2716  06DF  3002               	movlw	2
  2717  06E0  160A  118A  2205  120A  118A  	fcall	_LCD_POINT
  2718  06E5                     l3460:	
  2719                           
  2720                           ;MASTER_Proyecto.c: 281:         lcd_dwr(Val_STR(POT_D1));
  2721  06E5  1683               	bsf	3,5	;RP0=1, select bank1
  2722  06E6  1303               	bcf	3,6	;RP1=0, select bank1
  2723  06E7  0841               	movf	_POT_D1^(0+128),w
  2724  06E8  160A  118A  226B  120A  118A  	fcall	_Val_STR
  2725  06ED  160A  118A  211C  120A  118A  	fcall	_lcd_dwr
  2726  06F2                     l3462:	
  2727                           
  2728                           ;MASTER_Proyecto.c: 283:         LCD_POINT(2,3);
  2729  06F2  3003               	movlw	3
  2730  06F3  1683               	bsf	3,5	;RP0=1, select bank1
  2731  06F4  1303               	bcf	3,6	;RP1=0, select bank1
  2732  06F5  00E2               	movwf	??_main^(0+128)
  2733  06F6  0862               	movf	??_main^(0+128),w
  2734  06F7  00F3               	movwf	LCD_POINT@col
  2735  06F8  3002               	movlw	2
  2736  06F9  160A  118A  2205  120A  118A  	fcall	_LCD_POINT
  2737  06FE                     l3464:	
  2738                           
  2739                           ;MASTER_Proyecto.c: 284:         lcd_dwr(Val_STR(POT_D2));
  2740  06FE  1683               	bsf	3,5	;RP0=1, select bank1
  2741  06FF  1303               	bcf	3,6	;RP1=0, select bank1
  2742  0700  0840               	movf	_POT_D2^(0+128),w
  2743  0701  160A  118A  226B  120A  118A  	fcall	_Val_STR
  2744  0706  160A  118A  211C  120A  118A  	fcall	_lcd_dwr
  2745  070B                     l3466:	
  2746                           
  2747                           ;MASTER_Proyecto.c: 289:         RES_cien = (float)((ADC_PESO_V)*((float)100));
  2748  070B  3042               	movlw	66
  2749  070C  1283               	bcf	3,5	;RP0=0, select bank0
  2750  070D  1303               	bcf	3,6	;RP1=0, select bank0
  2751  070E  00D6               	movwf	___flmul@b+3
  2752  070F  30C8               	movlw	200
  2753  0710  00D5               	movwf	___flmul@b+2
  2754  0711  3000               	movlw	0
  2755  0712  00D4               	movwf	___flmul@b+1
  2756  0713  3000               	movlw	0
  2757  0714  00D3               	movwf	___flmul@b
  2758  0715  1683               	bsf	3,5	;RP0=1, select bank1
  2759  0716  1303               	bcf	3,6	;RP1=0, select bank1
  2760  0717  082F               	movf	(_ADC_PESO_V+3)^(0+128),w
  2761  0718  1283               	bcf	3,5	;RP0=0, select bank0
  2762  0719  1303               	bcf	3,6	;RP1=0, select bank0
  2763  071A  00DA               	movwf	___flmul@a+3
  2764  071B  1683               	bsf	3,5	;RP0=1, select bank1
  2765  071C  1303               	bcf	3,6	;RP1=0, select bank1
  2766  071D  082E               	movf	(_ADC_PESO_V+2)^(0+128),w
  2767  071E  1283               	bcf	3,5	;RP0=0, select bank0
  2768  071F  1303               	bcf	3,6	;RP1=0, select bank0
  2769  0720  00D9               	movwf	___flmul@a+2
  2770  0721  1683               	bsf	3,5	;RP0=1, select bank1
  2771  0722  1303               	bcf	3,6	;RP1=0, select bank1
  2772  0723  082D               	movf	(_ADC_PESO_V+1)^(0+128),w
  2773  0724  1283               	bcf	3,5	;RP0=0, select bank0
  2774  0725  1303               	bcf	3,6	;RP1=0, select bank0
  2775  0726  00D8               	movwf	___flmul@a+1
  2776  0727  1683               	bsf	3,5	;RP0=1, select bank1
  2777  0728  1303               	bcf	3,6	;RP1=0, select bank1
  2778  0729  082C               	movf	_ADC_PESO_V^(0+128),w
  2779  072A  1283               	bcf	3,5	;RP0=0, select bank0
  2780  072B  1303               	bcf	3,6	;RP1=0, select bank0
  2781  072C  00D7               	movwf	___flmul@a
  2782  072D  120A  158A  249F  120A  118A  	fcall	___flmul
  2783  0732  1283               	bcf	3,5	;RP0=0, select bank0
  2784  0733  1303               	bcf	3,6	;RP1=0, select bank0
  2785  0734  0856               	movf	?___flmul+3,w
  2786  0735  1683               	bsf	3,5	;RP0=1, select bank1
  2787  0736  1303               	bcf	3,6	;RP1=0, select bank1
  2788  0737  00A7               	movwf	(_RES_cien+3)^(0+128)
  2789  0738  1283               	bcf	3,5	;RP0=0, select bank0
  2790  0739  1303               	bcf	3,6	;RP1=0, select bank0
  2791  073A  0855               	movf	?___flmul+2,w
  2792  073B  1683               	bsf	3,5	;RP0=1, select bank1
  2793  073C  1303               	bcf	3,6	;RP1=0, select bank1
  2794  073D  00A6               	movwf	(_RES_cien+2)^(0+128)
  2795  073E  1283               	bcf	3,5	;RP0=0, select bank0
  2796  073F  1303               	bcf	3,6	;RP1=0, select bank0
  2797  0740  0854               	movf	?___flmul+1,w
  2798  0741  1683               	bsf	3,5	;RP0=1, select bank1
  2799  0742  1303               	bcf	3,6	;RP1=0, select bank1
  2800  0743  00A5               	movwf	(_RES_cien+1)^(0+128)
  2801  0744  1283               	bcf	3,5	;RP0=0, select bank0
  2802  0745  1303               	bcf	3,6	;RP1=0, select bank0
  2803  0746  0853               	movf	?___flmul,w
  2804  0747  1683               	bsf	3,5	;RP0=1, select bank1
  2805  0748  1303               	bcf	3,6	;RP1=0, select bank1
  2806  0749  00A4               	movwf	_RES_cien^(0+128)
  2807  074A                     l3468:	
  2808                           
  2809                           ;MASTER_Proyecto.c: 290:         DECI_1_RES = (uint16_t)(RES_cien);
  2810  074A  0827               	movf	(_RES_cien+3)^(0+128),w
  2811  074B  00F3               	movwf	___fltol@f1+3
  2812  074C  0826               	movf	(_RES_cien+2)^(0+128),w
  2813  074D  00F2               	movwf	___fltol@f1+2
  2814  074E  0825               	movf	(_RES_cien+1)^(0+128),w
  2815  074F  00F1               	movwf	___fltol@f1+1
  2816  0750  0824               	movf	_RES_cien^(0+128),w
  2817  0751  00F0               	movwf	___fltol@f1
  2818  0752  160A  118A  24B3  120A  118A  	fcall	___fltol
  2819  0757  0871               	movf	?___fltol+1,w
  2820  0758  1683               	bsf	3,5	;RP0=1, select bank1
  2821  0759  1303               	bcf	3,6	;RP1=0, select bank1
  2822  075A  00B5               	movwf	(_DECI_1_RES+1)^(0+128)
  2823  075B  0870               	movf	?___fltol,w
  2824  075C  00B4               	movwf	_DECI_1_RES^(0+128)
  2825  075D                     l3470:	
  2826                           
  2827                           ;MASTER_Proyecto.c: 291:         RES_D2 = (uint8_t)((DECI_1_RES)%((uint8_t)10));
  2828  075D  300A               	movlw	10
  2829  075E  00F0               	movwf	___lwmod@divisor
  2830  075F  3000               	movlw	0
  2831  0760  00F1               	movwf	___lwmod@divisor+1
  2832  0761  0835               	movf	(_DECI_1_RES+1)^(0+128),w
  2833  0762  00F3               	movwf	___lwmod@dividend+1
  2834  0763  0834               	movf	_DECI_1_RES^(0+128),w
  2835  0764  00F2               	movwf	___lwmod@dividend
  2836  0765  120A  158A  2000  120A  118A  	fcall	___lwmod
  2837  076A  0870               	movf	?___lwmod,w
  2838  076B  1683               	bsf	3,5	;RP0=1, select bank1
  2839  076C  1303               	bcf	3,6	;RP1=0, select bank1
  2840  076D  00E2               	movwf	??_main^(0+128)
  2841  076E  0862               	movf	??_main^(0+128),w
  2842  076F  00BE               	movwf	_RES_D2^(0+128)
  2843  0770                     l3472:	
  2844                           
  2845                           ;MASTER_Proyecto.c: 293:         DECI_2_RES = (uint16_t)((DECI_1_RES)/((uint16_t)10));
  2846  0770  300A               	movlw	10
  2847  0771  00F0               	movwf	___lwdiv@divisor
  2848  0772  3000               	movlw	0
  2849  0773  00F1               	movwf	___lwdiv@divisor+1
  2850  0774  0835               	movf	(_DECI_1_RES+1)^(0+128),w
  2851  0775  00F3               	movwf	___lwdiv@dividend+1
  2852  0776  0834               	movf	_DECI_1_RES^(0+128),w
  2853  0777  00F2               	movwf	___lwdiv@dividend
  2854  0778  160A  118A  22AA  120A  118A  	fcall	___lwdiv
  2855  077D  0871               	movf	?___lwdiv+1,w
  2856  077E  1683               	bsf	3,5	;RP0=1, select bank1
  2857  077F  1303               	bcf	3,6	;RP1=0, select bank1
  2858  0780  00B3               	movwf	(_DECI_2_RES+1)^(0+128)
  2859  0781  0870               	movf	?___lwdiv,w
  2860  0782  00B2               	movwf	_DECI_2_RES^(0+128)
  2861  0783                     l3474:	
  2862                           
  2863                           ;MASTER_Proyecto.c: 294:         RES_D1 = (uint8_t)((DECI_2_RES)%((uint8_t)10));
  2864  0783  300A               	movlw	10
  2865  0784  00F0               	movwf	___lwmod@divisor
  2866  0785  3000               	movlw	0
  2867  0786  00F1               	movwf	___lwmod@divisor+1
  2868  0787  0833               	movf	(_DECI_2_RES+1)^(0+128),w
  2869  0788  00F3               	movwf	___lwmod@dividend+1
  2870  0789  0832               	movf	_DECI_2_RES^(0+128),w
  2871  078A  00F2               	movwf	___lwmod@dividend
  2872  078B  120A  158A  2000  120A  118A  	fcall	___lwmod
  2873  0790  0870               	movf	?___lwmod,w
  2874  0791  1683               	bsf	3,5	;RP0=1, select bank1
  2875  0792  1303               	bcf	3,6	;RP1=0, select bank1
  2876  0793  00E2               	movwf	??_main^(0+128)
  2877  0794  0862               	movf	??_main^(0+128),w
  2878  0795  00BF               	movwf	_RES_D1^(0+128)
  2879  0796                     l3476:	
  2880                           
  2881                           ;MASTER_Proyecto.c: 300:         LCD_POINT(2,9);
  2882  0796  3009               	movlw	9
  2883  0797  00E2               	movwf	??_main^(0+128)
  2884  0798  0862               	movf	??_main^(0+128),w
  2885  0799  00F3               	movwf	LCD_POINT@col
  2886  079A  3002               	movlw	2
  2887  079B  160A  118A  2205  120A  118A  	fcall	_LCD_POINT
  2888  07A0                     l3478:	
  2889                           
  2890                           ;MASTER_Proyecto.c: 301:         lcd_dwr(Val_STR(RES_D1));
  2891  07A0  1683               	bsf	3,5	;RP0=1, select bank1
  2892  07A1  1303               	bcf	3,6	;RP1=0, select bank1
  2893  07A2  083F               	movf	_RES_D1^(0+128),w
  2894  07A3  160A  118A  226B  120A  118A  	fcall	_Val_STR
  2895  07A8  160A  118A  211C  120A  118A  	fcall	_lcd_dwr
  2896  07AD                     l3480:	
  2897                           
  2898                           ;MASTER_Proyecto.c: 303:         LCD_POINT(2,10);
  2899  07AD  300A               	movlw	10
  2900  07AE  1683               	bsf	3,5	;RP0=1, select bank1
  2901  07AF  1303               	bcf	3,6	;RP1=0, select bank1
  2902  07B0  00E2               	movwf	??_main^(0+128)
  2903  07B1  0862               	movf	??_main^(0+128),w
  2904  07B2  00F3               	movwf	LCD_POINT@col
  2905  07B3  3002               	movlw	2
  2906  07B4  160A  118A  2205  120A  118A  	fcall	_LCD_POINT
  2907  07B9                     l3482:	
  2908                           
  2909                           ;MASTER_Proyecto.c: 304:         lcd_dwr(Val_STR(RES_D2));
  2910  07B9  1683               	bsf	3,5	;RP0=1, select bank1
  2911  07BA  1303               	bcf	3,6	;RP1=0, select bank1
  2912  07BB  083E               	movf	_RES_D2^(0+128),w
  2913  07BC  160A  118A  226B  120A  118A  	fcall	_Val_STR
  2914  07C1  160A  118A  211C  120A  118A  	fcall	_lcd_dwr
  2915  07C6                     l3484:	
  2916                           
  2917                           ;MASTER_Proyecto.c: 306:         _delay((unsigned long)((2000)*(8000000/4000.0)));
  2918  07C6  3015               	movlw	21
  2919  07C7  1683               	bsf	3,5	;RP0=1, select bank1
  2920  07C8  1303               	bcf	3,6	;RP1=0, select bank1
  2921  07C9  00E4               	movwf	(??_main^(0+128)+2)
  2922  07CA  304B               	movlw	75
  2923  07CB  00E3               	movwf	(??_main^(0+128)+1)
  2924  07CC  30BD               	movlw	189
  2925  07CD  00E2               	movwf	??_main^(0+128)
  2926  07CE                     u4387:	
  2927  07CE  0BE2               	decfsz	??_main^(0+128),f
  2928  07CF  2FCE               	goto	u4387
  2929  07D0  0BE3               	decfsz	(??_main^(0+128)+1),f
  2930  07D1  2FCE               	goto	u4387
  2931  07D2  0BE4               	decfsz	(??_main^(0+128)+2),f
  2932  07D3  2FCE               	goto	u4387
  2933  07D4  2FD5               	nop2
  2934  07D5                     l3486:	
  2935                           
  2936                           ;MASTER_Proyecto.c: 308:         lcd_cmd(0x01);
  2937  07D5  3001               	movlw	1
  2938  07D6  160A  118A  210A  120A  118A  	fcall	_lcd_cmd
  2939  07DB  29E2               	goto	l3288
  2940  07DC  120A  118A  2800   	ljmp	start
  2941  07DF                     __end_of_main:	
  2942                           
  2943                           	psect	text1
  2944  0070                     __ptext1:	
  2945 ;; *************** function _log *****************
  2946 ;; Defined at:
  2947 ;;		line 5 in file "C:\Program Files (x86)\Microchip\xc8\v2.10\pic\sources\c90\common\log.c"
  2948 ;; Parameters:    Size  Location     Type
  2949 ;;  x               4   16[BANK1 ] void 
  2950 ;; Auto vars:     Size  Location     Type
  2951 ;;  exponent        2   20[BANK1 ] int 
  2952 ;; Return value:  Size  Location     Type
  2953 ;;                  4   16[BANK1 ] int 
  2954 ;; Registers used:
  2955 ;;		wreg, fsr0l, fsr0h, status,2, status,0, btemp+1, pclath, cstack
  2956 ;; Tracked objects:
  2957 ;;		On entry : 0/0
  2958 ;;		On exit  : 0/0
  2959 ;;		Unchanged: 0/0
  2960 ;; Data sizes:     COMMON   BANK0   BANK1   BANK3   BANK2
  2961 ;;      Params:         0       0       4       0       0
  2962 ;;      Locals:         0       0       2       0       0
  2963 ;;      Temps:          0       1       0       0       0
  2964 ;;      Totals:         0       1       6       0       0
  2965 ;;Total ram usage:        7 bytes
  2966 ;; Hardware stack levels used:    1
  2967 ;; Hardware stack levels required when called:    3
  2968 ;; This function calls:
  2969 ;;		___fladd
  2970 ;;		___fleq
  2971 ;;		___flge
  2972 ;;		___flmul
  2973 ;;		___xxtofl
  2974 ;;		_eval_poly
  2975 ;;		_frexp
  2976 ;; This function is called by:
  2977 ;;		_main
  2978 ;; This function uses a non-reentrant model
  2979 ;;
  2980                           
  2981                           
  2982                           ;psect for function _log
  2983  0070                     _log:	
  2984  0070                     l2934:	
  2985                           ;incstack = 0
  2986                           ; Regs used in _log: [wreg-fsr0h+status,2+status,0+btemp+1+pclath+cstack]
  2987                           
  2988  0070  1683               	bsf	3,5	;RP0=1, select bank1
  2989  0071  1303               	bcf	3,6	;RP1=0, select bank1
  2990  0072  085F               	movf	(log@x+3)^(0+128),w
  2991  0073  00F3               	movwf	___flge@ff1+3
  2992  0074  085E               	movf	(log@x+2)^(0+128),w
  2993  0075  00F2               	movwf	___flge@ff1+2
  2994  0076  085D               	movf	(log@x+1)^(0+128),w
  2995  0077  00F1               	movwf	___flge@ff1+1
  2996  0078  085C               	movf	log@x^(0+128),w
  2997  0079  00F0               	movwf	___flge@ff1
  2998  007A  3000               	movlw	0
  2999  007B  00F7               	movwf	___flge@ff2+3
  3000  007C  3000               	movlw	0
  3001  007D  00F6               	movwf	___flge@ff2+2
  3002  007E  3000               	movlw	0
  3003  007F  00F5               	movwf	___flge@ff2+1
  3004  0080  3000               	movlw	0
  3005  0081  00F4               	movwf	___flge@ff2
  3006  0082  160A  118A  25CA  120A  118A  	fcall	___flge
  3007  0087  1803               	btfsc	3,0
  3008  0088  288A               	goto	u3591
  3009  0089  288B               	goto	u3590
  3010  008A                     u3591:	
  3011  008A  289A               	goto	l2940
  3012  008B                     u3590:	
  3013  008B                     l2936:	
  3014  008B  3021               	movlw	33
  3015  008C  1683               	bsf	3,5	;RP0=1, select bank1
  3016  008D  1303               	bcf	3,6	;RP1=0, select bank1
  3017  008E  00B0               	movwf	_errno^(0+128)
  3018  008F  3000               	movlw	0
  3019  0090  00B1               	movwf	(_errno^(0+128)+1)
  3020  0091  3000               	movlw	0
  3021  0092  00DF               	movwf	(?_log+3)^(0+128)
  3022  0093  3000               	movlw	0
  3023  0094  00DE               	movwf	(?_log+2)^(0+128)
  3024  0095  3000               	movlw	0
  3025  0096  00DD               	movwf	(?_log+1)^(0+128)
  3026  0097  3000               	movlw	0
  3027  0098  00DC               	movwf	?_log^(0+128)
  3028  0099  29BB               	goto	l840
  3029  009A                     l2940:	
  3030  009A  1683               	bsf	3,5	;RP0=1, select bank1
  3031  009B  1303               	bcf	3,6	;RP1=0, select bank1
  3032  009C  085F               	movf	(log@x+3)^(0+128),w
  3033  009D  00F3               	movwf	___fleq@ff1+3
  3034  009E  085E               	movf	(log@x+2)^(0+128),w
  3035  009F  00F2               	movwf	___fleq@ff1+2
  3036  00A0  085D               	movf	(log@x+1)^(0+128),w
  3037  00A1  00F1               	movwf	___fleq@ff1+1
  3038  00A2  085C               	movf	log@x^(0+128),w
  3039  00A3  00F0               	movwf	___fleq@ff1
  3040  00A4  3000               	movlw	0
  3041  00A5  00F7               	movwf	___fleq@ff2+3
  3042  00A6  3000               	movlw	0
  3043  00A7  00F6               	movwf	___fleq@ff2+2
  3044  00A8  3000               	movlw	0
  3045  00A9  00F5               	movwf	___fleq@ff2+1
  3046  00AA  3000               	movlw	0
  3047  00AB  00F4               	movwf	___fleq@ff2
  3048  00AC  160A  118A  22EE  120A  118A  	fcall	___fleq
  3049  00B1  1C03               	btfss	3,0
  3050  00B2  28B4               	goto	u3601
  3051  00B3  28B5               	goto	u3600
  3052  00B4                     u3601:	
  3053  00B4  28C4               	goto	l2946
  3054  00B5                     u3600:	
  3055  00B5                     l2942:	
  3056  00B5  3022               	movlw	34
  3057  00B6  1683               	bsf	3,5	;RP0=1, select bank1
  3058  00B7  1303               	bcf	3,6	;RP1=0, select bank1
  3059  00B8  00B0               	movwf	_errno^(0+128)
  3060  00B9  3000               	movlw	0
  3061  00BA  00B1               	movwf	(_errno^(0+128)+1)
  3062  00BB  3000               	movlw	0
  3063  00BC  00DF               	movwf	(?_log+3)^(0+128)
  3064  00BD  3000               	movlw	0
  3065  00BE  00DE               	movwf	(?_log+2)^(0+128)
  3066  00BF  3000               	movlw	0
  3067  00C0  00DD               	movwf	(?_log+1)^(0+128)
  3068  00C1  3000               	movlw	0
  3069  00C2  00DC               	movwf	?_log^(0+128)
  3070  00C3  29BB               	goto	l840
  3071  00C4                     l2946:	
  3072  00C4  30BF               	movlw	191
  3073  00C5  1283               	bcf	3,5	;RP0=0, select bank0
  3074  00C6  1303               	bcf	3,6	;RP1=0, select bank0
  3075  00C7  00C2               	movwf	___fladd@b+3
  3076  00C8  3080               	movlw	128
  3077  00C9  00C1               	movwf	___fladd@b+2
  3078  00CA  3000               	movlw	0
  3079  00CB  00C0               	movwf	___fladd@b+1
  3080  00CC  3000               	movlw	0
  3081  00CD  00BF               	movwf	___fladd@b
  3082  00CE  3040               	movlw	64
  3083  00CF  00D6               	movwf	___flmul@b+3
  3084  00D0  3000               	movlw	0
  3085  00D1  00D5               	movwf	___flmul@b+2
  3086  00D2  3000               	movlw	0
  3087  00D3  00D4               	movwf	___flmul@b+1
  3088  00D4  3000               	movlw	0
  3089  00D5  00D3               	movwf	___flmul@b
  3090  00D6  30E0               	movlw	(low (log@exponent| 0))& (0+255)
  3091  00D7  00ED               	movwf	??_log
  3092  00D8  086D               	movf	??_log,w
  3093  00D9  00A4               	movwf	frexp@eptr
  3094  00DA  1683               	bsf	3,5	;RP0=1, select bank1
  3095  00DB  1303               	bcf	3,6	;RP1=0, select bank1
  3096  00DC  085F               	movf	(log@x+3)^(0+128),w
  3097  00DD  1283               	bcf	3,5	;RP0=0, select bank0
  3098  00DE  1303               	bcf	3,6	;RP1=0, select bank0
  3099  00DF  00A3               	movwf	frexp@value+3
  3100  00E0  1683               	bsf	3,5	;RP0=1, select bank1
  3101  00E1  1303               	bcf	3,6	;RP1=0, select bank1
  3102  00E2  085E               	movf	(log@x+2)^(0+128),w
  3103  00E3  1283               	bcf	3,5	;RP0=0, select bank0
  3104  00E4  1303               	bcf	3,6	;RP1=0, select bank0
  3105  00E5  00A2               	movwf	frexp@value+2
  3106  00E6  1683               	bsf	3,5	;RP0=1, select bank1
  3107  00E7  1303               	bcf	3,6	;RP1=0, select bank1
  3108  00E8  085D               	movf	(log@x+1)^(0+128),w
  3109  00E9  1283               	bcf	3,5	;RP0=0, select bank0
  3110  00EA  1303               	bcf	3,6	;RP1=0, select bank0
  3111  00EB  00A1               	movwf	frexp@value+1
  3112  00EC  1683               	bsf	3,5	;RP0=1, select bank1
  3113  00ED  1303               	bcf	3,6	;RP1=0, select bank1
  3114  00EE  085C               	movf	log@x^(0+128),w
  3115  00EF  1283               	bcf	3,5	;RP0=0, select bank0
  3116  00F0  1303               	bcf	3,6	;RP1=0, select bank0
  3117  00F1  00A0               	movwf	frexp@value
  3118  00F2  160A  118A  23F1  120A  118A  	fcall	_frexp
  3119  00F7  1283               	bcf	3,5	;RP0=0, select bank0
  3120  00F8  1303               	bcf	3,6	;RP1=0, select bank0
  3121  00F9  0823               	movf	?_frexp+3,w
  3122  00FA  00DA               	movwf	___flmul@a+3
  3123  00FB  0822               	movf	?_frexp+2,w
  3124  00FC  00D9               	movwf	___flmul@a+2
  3125  00FD  0821               	movf	?_frexp+1,w
  3126  00FE  00D8               	movwf	___flmul@a+1
  3127  00FF  0820               	movf	?_frexp,w
  3128  0100  00D7               	movwf	___flmul@a
  3129  0101  120A  158A  249F  120A  118A  	fcall	___flmul
  3130  0106  1283               	bcf	3,5	;RP0=0, select bank0
  3131  0107  1303               	bcf	3,6	;RP1=0, select bank0
  3132  0108  0856               	movf	?___flmul+3,w
  3133  0109  00C6               	movwf	___fladd@a+3
  3134  010A  0855               	movf	?___flmul+2,w
  3135  010B  00C5               	movwf	___fladd@a+2
  3136  010C  0854               	movf	?___flmul+1,w
  3137  010D  00C4               	movwf	___fladd@a+1
  3138  010E  0853               	movf	?___flmul,w
  3139  010F  00C3               	movwf	___fladd@a
  3140  0110  120A  158A  2217  120A  118A  	fcall	___fladd
  3141  0115  1283               	bcf	3,5	;RP0=0, select bank0
  3142  0116  1303               	bcf	3,6	;RP1=0, select bank0
  3143  0117  0842               	movf	?___fladd+3,w
  3144  0118  1683               	bsf	3,5	;RP0=1, select bank1
  3145  0119  1303               	bcf	3,6	;RP1=0, select bank1
  3146  011A  00DF               	movwf	(log@x+3)^(0+128)
  3147  011B  1283               	bcf	3,5	;RP0=0, select bank0
  3148  011C  1303               	bcf	3,6	;RP1=0, select bank0
  3149  011D  0841               	movf	?___fladd+2,w
  3150  011E  1683               	bsf	3,5	;RP0=1, select bank1
  3151  011F  1303               	bcf	3,6	;RP1=0, select bank1
  3152  0120  00DE               	movwf	(log@x+2)^(0+128)
  3153  0121  1283               	bcf	3,5	;RP0=0, select bank0
  3154  0122  1303               	bcf	3,6	;RP1=0, select bank0
  3155  0123  0840               	movf	?___fladd+1,w
  3156  0124  1683               	bsf	3,5	;RP0=1, select bank1
  3157  0125  1303               	bcf	3,6	;RP1=0, select bank1
  3158  0126  00DD               	movwf	(log@x+1)^(0+128)
  3159  0127  1283               	bcf	3,5	;RP0=0, select bank0
  3160  0128  1303               	bcf	3,6	;RP1=0, select bank0
  3161  0129  083F               	movf	?___fladd,w
  3162  012A  1683               	bsf	3,5	;RP0=1, select bank1
  3163  012B  1303               	bcf	3,6	;RP1=0, select bank1
  3164  012C  00DC               	movwf	log@x^(0+128)
  3165  012D                     l2948:	
  3166  012D  30FF               	movlw	255
  3167  012E  07E0               	addwf	log@exponent^(0+128),f
  3168  012F  1803               	skipnc
  3169  0130  0AE1               	incf	(log@exponent+1)^(0+128),f
  3170  0131  30FF               	movlw	255
  3171  0132  07E1               	addwf	(log@exponent+1)^(0+128),f
  3172  0133                     l2950:	
  3173  0133  085F               	movf	(log@x+3)^(0+128),w
  3174  0134  00CF               	movwf	(eval_poly@x+3)^(0+128)
  3175  0135  085E               	movf	(log@x+2)^(0+128),w
  3176  0136  00CE               	movwf	(eval_poly@x+2)^(0+128)
  3177  0137  085D               	movf	(log@x+1)^(0+128),w
  3178  0138  00CD               	movwf	(eval_poly@x+1)^(0+128)
  3179  0139  085C               	movf	log@x^(0+128),w
  3180  013A  00CC               	movwf	eval_poly@x^(0+128)
  3181  013B  3005               	movlw	(low ((log@coeff-__stringbase)| (0+32768)))& (0+255)
  3182  013C  1283               	bcf	3,5	;RP0=0, select bank0
  3183  013D  1303               	bcf	3,6	;RP1=0, select bank0
  3184  013E  00ED               	movwf	??_log
  3185  013F  086D               	movf	??_log,w
  3186  0140  1683               	bsf	3,5	;RP0=1, select bank1
  3187  0141  1303               	bcf	3,6	;RP1=0, select bank1
  3188  0142  00D0               	movwf	eval_poly@d^(0+128)
  3189  0143  3008               	movlw	8
  3190  0144  00D1               	movwf	eval_poly@n^(0+128)
  3191  0145  3000               	movlw	0
  3192  0146  00D2               	movwf	(eval_poly@n^(0+128)+1)
  3193  0147  160A  118A  2726  120A  118A  	fcall	_eval_poly
  3194  014C  1683               	bsf	3,5	;RP0=1, select bank1
  3195  014D  1303               	bcf	3,6	;RP1=0, select bank1
  3196  014E  084F               	movf	(?_eval_poly+3)^(0+128),w
  3197  014F  00DF               	movwf	(log@x+3)^(0+128)
  3198  0150  084E               	movf	(?_eval_poly+2)^(0+128),w
  3199  0151  00DE               	movwf	(log@x+2)^(0+128)
  3200  0152  084D               	movf	(?_eval_poly+1)^(0+128),w
  3201  0153  00DD               	movwf	(log@x+1)^(0+128)
  3202  0154  084C               	movf	?_eval_poly^(0+128),w
  3203  0155  00DC               	movwf	log@x^(0+128)
  3204  0156                     l2952:	
  3205  0156  085F               	movf	(log@x+3)^(0+128),w
  3206  0157  1283               	bcf	3,5	;RP0=0, select bank0
  3207  0158  1303               	bcf	3,6	;RP1=0, select bank0
  3208  0159  00C2               	movwf	___fladd@b+3
  3209  015A  1683               	bsf	3,5	;RP0=1, select bank1
  3210  015B  1303               	bcf	3,6	;RP1=0, select bank1
  3211  015C  085E               	movf	(log@x+2)^(0+128),w
  3212  015D  1283               	bcf	3,5	;RP0=0, select bank0
  3213  015E  1303               	bcf	3,6	;RP1=0, select bank0
  3214  015F  00C1               	movwf	___fladd@b+2
  3215  0160  1683               	bsf	3,5	;RP0=1, select bank1
  3216  0161  1303               	bcf	3,6	;RP1=0, select bank1
  3217  0162  085D               	movf	(log@x+1)^(0+128),w
  3218  0163  1283               	bcf	3,5	;RP0=0, select bank0
  3219  0164  1303               	bcf	3,6	;RP1=0, select bank0
  3220  0165  00C0               	movwf	___fladd@b+1
  3221  0166  1683               	bsf	3,5	;RP0=1, select bank1
  3222  0167  1303               	bcf	3,6	;RP1=0, select bank1
  3223  0168  085C               	movf	log@x^(0+128),w
  3224  0169  1283               	bcf	3,5	;RP0=0, select bank0
  3225  016A  1303               	bcf	3,6	;RP1=0, select bank0
  3226  016B  00BF               	movwf	___fladd@b
  3227  016C  303F               	movlw	63
  3228  016D  00D6               	movwf	___flmul@b+3
  3229  016E  3031               	movlw	49
  3230  016F  00D5               	movwf	___flmul@b+2
  3231  0170  3072               	movlw	114
  3232  0171  00D4               	movwf	___flmul@b+1
  3233  0172  3018               	movlw	24
  3234  0173  00D3               	movwf	___flmul@b
  3235  0174  1683               	bsf	3,5	;RP0=1, select bank1
  3236  0175  1303               	bcf	3,6	;RP1=0, select bank1
  3237  0176  0860               	movf	log@exponent^(0+128),w
  3238  0177  00F0               	movwf	___xxtofl@val
  3239  0178  0861               	movf	(log@exponent+1)^(0+128),w
  3240  0179  00F1               	movwf	___xxtofl@val+1
  3241  017A  3000               	movlw	0
  3242  017B  1BF1               	btfsc	___xxtofl@val+1,7
  3243  017C  30FF               	movlw	255
  3244  017D  00F2               	movwf	___xxtofl@val+2
  3245  017E  00F3               	movwf	___xxtofl@val+3
  3246  017F  3001               	movlw	1
  3247  0180  160A  118A  266C  120A  118A  	fcall	___xxtofl
  3248  0185  0873               	movf	?___xxtofl+3,w
  3249  0186  1283               	bcf	3,5	;RP0=0, select bank0
  3250  0187  1303               	bcf	3,6	;RP1=0, select bank0
  3251  0188  00DA               	movwf	___flmul@a+3
  3252  0189  0872               	movf	?___xxtofl+2,w
  3253  018A  00D9               	movwf	___flmul@a+2
  3254  018B  0871               	movf	?___xxtofl+1,w
  3255  018C  00D8               	movwf	___flmul@a+1
  3256  018D  0870               	movf	?___xxtofl,w
  3257  018E  00D7               	movwf	___flmul@a
  3258  018F  120A  158A  249F  120A  118A  	fcall	___flmul
  3259  0194  1283               	bcf	3,5	;RP0=0, select bank0
  3260  0195  1303               	bcf	3,6	;RP1=0, select bank0
  3261  0196  0856               	movf	?___flmul+3,w
  3262  0197  00C6               	movwf	___fladd@a+3
  3263  0198  0855               	movf	?___flmul+2,w
  3264  0199  00C5               	movwf	___fladd@a+2
  3265  019A  0854               	movf	?___flmul+1,w
  3266  019B  00C4               	movwf	___fladd@a+1
  3267  019C  0853               	movf	?___flmul,w
  3268  019D  00C3               	movwf	___fladd@a
  3269  019E  120A  158A  2217  120A  118A  	fcall	___fladd
  3270  01A3  1283               	bcf	3,5	;RP0=0, select bank0
  3271  01A4  1303               	bcf	3,6	;RP1=0, select bank0
  3272  01A5  0842               	movf	?___fladd+3,w
  3273  01A6  1683               	bsf	3,5	;RP0=1, select bank1
  3274  01A7  1303               	bcf	3,6	;RP1=0, select bank1
  3275  01A8  00DF               	movwf	(?_log+3)^(0+128)
  3276  01A9  1283               	bcf	3,5	;RP0=0, select bank0
  3277  01AA  1303               	bcf	3,6	;RP1=0, select bank0
  3278  01AB  0841               	movf	?___fladd+2,w
  3279  01AC  1683               	bsf	3,5	;RP0=1, select bank1
  3280  01AD  1303               	bcf	3,6	;RP1=0, select bank1
  3281  01AE  00DE               	movwf	(?_log+2)^(0+128)
  3282  01AF  1283               	bcf	3,5	;RP0=0, select bank0
  3283  01B0  1303               	bcf	3,6	;RP1=0, select bank0
  3284  01B1  0840               	movf	?___fladd+1,w
  3285  01B2  1683               	bsf	3,5	;RP0=1, select bank1
  3286  01B3  1303               	bcf	3,6	;RP1=0, select bank1
  3287  01B4  00DD               	movwf	(?_log+1)^(0+128)
  3288  01B5  1283               	bcf	3,5	;RP0=0, select bank0
  3289  01B6  1303               	bcf	3,6	;RP1=0, select bank0
  3290  01B7  083F               	movf	?___fladd,w
  3291  01B8  1683               	bsf	3,5	;RP0=1, select bank1
  3292  01B9  1303               	bcf	3,6	;RP1=0, select bank1
  3293  01BA  00DC               	movwf	?_log^(0+128)
  3294  01BB                     l840:	
  3295  01BB  0008               	return
  3296  01BC                     __end_of_log:	
  3297                           
  3298                           	psect	text2
  3299  13F1                     __ptext2:	
  3300 ;; *************** function _frexp *****************
  3301 ;; Defined at:
  3302 ;;		line 254 in file "C:\Program Files (x86)\Microchip\xc8\v2.10\pic\sources\c90\common\frexp.c"
  3303 ;; Parameters:    Size  Location     Type
  3304 ;;  value           4    0[BANK0 ] int 
  3305 ;;  eptr            1    4[BANK0 ] PTR int 
  3306 ;;		 -> log@exponent(2), 
  3307 ;; Auto vars:     Size  Location     Type
  3308 ;;		None
  3309 ;; Return value:  Size  Location     Type
  3310 ;;                  4    0[BANK0 ] PTR int 
  3311 ;; Registers used:
  3312 ;;		wreg, fsr0l, fsr0h, status,2, status,0, btemp+1, pclath, cstack
  3313 ;; Tracked objects:
  3314 ;;		On entry : 0/0
  3315 ;;		On exit  : 0/0
  3316 ;;		Unchanged: 0/0
  3317 ;; Data sizes:     COMMON   BANK0   BANK1   BANK3   BANK2
  3318 ;;      Params:         0       5       0       0       0
  3319 ;;      Locals:         0       0       0       0       0
  3320 ;;      Temps:          2       0       0       0       0
  3321 ;;      Totals:         2       5       0       0       0
  3322 ;;Total ram usage:        7 bytes
  3323 ;; Hardware stack levels used:    1
  3324 ;; Hardware stack levels required when called:    1
  3325 ;; This function calls:
  3326 ;;		___fleq
  3327 ;; This function is called by:
  3328 ;;		_log
  3329 ;; This function uses a non-reentrant model
  3330 ;;
  3331                           
  3332                           
  3333                           ;psect for function _frexp
  3334  13F1                     _frexp:	
  3335  13F1                     l2810:	
  3336                           ;incstack = 0
  3337                           ; Regs used in _frexp: [wreg-fsr0h+status,2+status,0+btemp+1+pclath+cstack]
  3338                           
  3339  13F1  1283               	bcf	3,5	;RP0=0, select bank0
  3340  13F2  1303               	bcf	3,6	;RP1=0, select bank0
  3341  13F3  0823               	movf	frexp@value+3,w
  3342  13F4  00F3               	movwf	___fleq@ff1+3
  3343  13F5  0822               	movf	frexp@value+2,w
  3344  13F6  00F2               	movwf	___fleq@ff1+2
  3345  13F7  0821               	movf	frexp@value+1,w
  3346  13F8  00F1               	movwf	___fleq@ff1+1
  3347  13F9  0820               	movf	frexp@value,w
  3348  13FA  00F0               	movwf	___fleq@ff1
  3349  13FB  3000               	movlw	0
  3350  13FC  00F7               	movwf	___fleq@ff2+3
  3351  13FD  3000               	movlw	0
  3352  13FE  00F6               	movwf	___fleq@ff2+2
  3353  13FF  3000               	movlw	0
  3354  1400  00F5               	movwf	___fleq@ff2+1
  3355  1401  3000               	movlw	0
  3356  1402  00F4               	movwf	___fleq@ff2
  3357  1403  160A  118A  22EE  160A  118A  	fcall	___fleq
  3358  1408  1C03               	btfss	3,0
  3359  1409  2C0B               	goto	u3451
  3360  140A  2C0C               	goto	u3450
  3361  140B                     u3451:	
  3362  140B  2C1D               	goto	l2818
  3363  140C                     u3450:	
  3364  140C                     l2812:	
  3365  140C  1283               	bcf	3,5	;RP0=0, select bank0
  3366  140D  1303               	bcf	3,6	;RP1=0, select bank0
  3367  140E  0824               	movf	frexp@eptr,w
  3368  140F  0084               	movwf	4
  3369  1410  1383               	bcf	3,7	;select IRP bank0
  3370  1411  0180               	clrf	0
  3371  1412  0A84               	incf	4,f
  3372  1413  0180               	clrf	0
  3373  1414                     l2814:	
  3374  1414  3000               	movlw	0
  3375  1415  00A3               	movwf	?_frexp+3
  3376  1416  3000               	movlw	0
  3377  1417  00A2               	movwf	?_frexp+2
  3378  1418  3000               	movlw	0
  3379  1419  00A1               	movwf	?_frexp+1
  3380  141A  3000               	movlw	0
  3381  141B  00A0               	movwf	?_frexp
  3382  141C  2C4C               	goto	l864
  3383  141D                     l2818:	
  3384  141D  1283               	bcf	3,5	;RP0=0, select bank0
  3385  141E  1303               	bcf	3,6	;RP1=0, select bank0
  3386  141F  0823               	movf	frexp@value+3,w
  3387  1420  397F               	andlw	127
  3388  1421  00FC               	movwf	??_frexp
  3389  1422  01FD               	clrf	??_frexp+1
  3390  1423  1003               	clrc
  3391  1424  0DFC               	rlf	??_frexp,f
  3392  1425  0DFD               	rlf	??_frexp+1,f
  3393  1426  0824               	movf	frexp@eptr,w
  3394  1427  0084               	movwf	4
  3395  1428  087C               	movf	??_frexp,w
  3396  1429  1383               	bcf	3,7	;select IRP bank0
  3397  142A  0080               	movwf	0
  3398  142B  0A84               	incf	4,f
  3399  142C  087D               	movf	??_frexp+1,w
  3400  142D  0080               	movwf	0
  3401  142E  0D22               	rlf	frexp@value+2,w
  3402  142F  0D22               	rlf	frexp@value+2,w
  3403  1430  3901               	andlw	1
  3404  1431  00FC               	movwf	??_frexp
  3405  1432  01FD               	clrf	??_frexp+1
  3406  1433  0824               	movf	frexp@eptr,w
  3407  1434  0084               	movwf	4
  3408  1435  087C               	movf	??_frexp,w
  3409  1436  0480               	iorwf	0,f
  3410  1437  0A84               	incf	4,f
  3411  1438  087D               	movf	??_frexp+1,w
  3412  1439  0480               	iorwf	0,f
  3413  143A                     l2820:	
  3414  143A  0824               	movf	frexp@eptr,w
  3415  143B  0084               	movwf	4
  3416  143C  3082               	movlw	130
  3417  143D  0780               	addwf	0,f
  3418  143E  0F84               	incfsz	4,f
  3419  143F  0800               	movf	0,w
  3420  1440  1803               	skipnc
  3421  1441  0A00               	incf	0,w
  3422  1442  00FF               	movwf	btemp+1
  3423  1443  30FF               	movlw	255
  3424  1444  077F               	addwf	btemp+1,w
  3425  1445  0080               	movwf	0
  3426  1446  0384               	decf	4,f
  3427  1447                     l2822:	
  3428  1447  0823               	movf	frexp@value+3,w
  3429  1448  3980               	andlw	-128
  3430  1449  383F               	iorlw	63
  3431  144A  00A3               	movwf	frexp@value+3
  3432  144B                     l2824:	
  3433  144B  13A2               	bcf	frexp@value+2,7
  3434  144C                     l2826:	
  3435  144C                     l864:	
  3436  144C  0008               	return
  3437  144D                     __end_of_frexp:	
  3438                           
  3439                           	psect	text3
  3440  12EE                     __ptext3:	
  3441 ;; *************** function ___fleq *****************
  3442 ;; Defined at:
  3443 ;;		line 4 in file "C:\Program Files (x86)\Microchip\xc8\v2.10\pic\sources\c90\common\fleq.c"
  3444 ;; Parameters:    Size  Location     Type
  3445 ;;  ff1             4    0[COMMON] PTR int 
  3446 ;;  ff2             4    4[COMMON] PTR int 
  3447 ;; Auto vars:     Size  Location     Type
  3448 ;;		None
  3449 ;; Return value:  Size  Location     Type
  3450 ;;		None               void
  3451 ;; Registers used:
  3452 ;;		wreg, status,2, status,0
  3453 ;; Tracked objects:
  3454 ;;		On entry : 0/0
  3455 ;;		On exit  : 0/0
  3456 ;;		Unchanged: 0/0
  3457 ;; Data sizes:     COMMON   BANK0   BANK1   BANK3   BANK2
  3458 ;;      Params:         8       0       0       0       0
  3459 ;;      Locals:         0       0       0       0       0
  3460 ;;      Temps:          4       0       0       0       0
  3461 ;;      Totals:        12       0       0       0       0
  3462 ;;Total ram usage:       12 bytes
  3463 ;; Hardware stack levels used:    1
  3464 ;; This function calls:
  3465 ;;		Nothing
  3466 ;; This function is called by:
  3467 ;;		_log
  3468 ;;		_frexp
  3469 ;; This function uses a non-reentrant model
  3470 ;;
  3471                           
  3472                           
  3473                           ;psect for function ___fleq
  3474  12EE                     ___fleq:	
  3475  12EE                     l2324:	
  3476                           ;incstack = 0
  3477                           ; Regs used in ___fleq: [wreg+status,2+status,0]
  3478                           
  3479  12EE  3000               	movlw	0
  3480  12EF  0570               	andwf	___fleq@ff1,w
  3481  12F0  00F8               	movwf	??___fleq
  3482  12F1  3000               	movlw	0
  3483  12F2  0571               	andwf	___fleq@ff1+1,w
  3484  12F3  00F9               	movwf	??___fleq+1
  3485  12F4  3080               	movlw	128
  3486  12F5  0572               	andwf	___fleq@ff1+2,w
  3487  12F6  00FA               	movwf	??___fleq+2
  3488  12F7  307F               	movlw	127
  3489  12F8  0573               	andwf	___fleq@ff1+3,w
  3490  12F9  00FB               	movwf	??___fleq+3
  3491  12FA  087B               	movf	??___fleq+3,w
  3492  12FB  047A               	iorwf	??___fleq+2,w
  3493  12FC  0479               	iorwf	??___fleq+1,w
  3494  12FD  0478               	iorwf	??___fleq,w
  3495  12FE  1D03               	skipz
  3496  12FF  2B01               	goto	u2251
  3497  1300  2B02               	goto	u2250
  3498  1301                     u2251:	
  3499  1301  2B0A               	goto	l555
  3500  1302                     u2250:	
  3501  1302                     l2326:	
  3502  1302  3000               	movlw	0
  3503  1303  00F3               	movwf	___fleq@ff1+3
  3504  1304  3000               	movlw	0
  3505  1305  00F2               	movwf	___fleq@ff1+2
  3506  1306  3000               	movlw	0
  3507  1307  00F1               	movwf	___fleq@ff1+1
  3508  1308  3000               	movlw	0
  3509  1309  00F0               	movwf	___fleq@ff1
  3510  130A                     l555:	
  3511  130A  3000               	movlw	0
  3512  130B  0574               	andwf	___fleq@ff2,w
  3513  130C  00F8               	movwf	??___fleq
  3514  130D  3000               	movlw	0
  3515  130E  0575               	andwf	___fleq@ff2+1,w
  3516  130F  00F9               	movwf	??___fleq+1
  3517  1310  3080               	movlw	128
  3518  1311  0576               	andwf	___fleq@ff2+2,w
  3519  1312  00FA               	movwf	??___fleq+2
  3520  1313  307F               	movlw	127
  3521  1314  0577               	andwf	___fleq@ff2+3,w
  3522  1315  00FB               	movwf	??___fleq+3
  3523  1316  087B               	movf	??___fleq+3,w
  3524  1317  047A               	iorwf	??___fleq+2,w
  3525  1318  0479               	iorwf	??___fleq+1,w
  3526  1319  0478               	iorwf	??___fleq,w
  3527  131A  1D03               	skipz
  3528  131B  2B1D               	goto	u2261
  3529  131C  2B1E               	goto	u2260
  3530  131D                     u2261:	
  3531  131D  2B26               	goto	l556
  3532  131E                     u2260:	
  3533  131E                     l2328:	
  3534  131E  3000               	movlw	0
  3535  131F  00F7               	movwf	___fleq@ff2+3
  3536  1320  3000               	movlw	0
  3537  1321  00F6               	movwf	___fleq@ff2+2
  3538  1322  3000               	movlw	0
  3539  1323  00F5               	movwf	___fleq@ff2+1
  3540  1324  3000               	movlw	0
  3541  1325  00F4               	movwf	___fleq@ff2
  3542  1326                     l556:	
  3543  1326  0877               	movf	___fleq@ff2+3,w
  3544  1327  0673               	xorwf	___fleq@ff1+3,w
  3545  1328  1D03               	skipz
  3546  1329  2B34               	goto	u2275
  3547  132A  0876               	movf	___fleq@ff2+2,w
  3548  132B  0672               	xorwf	___fleq@ff1+2,w
  3549  132C  1D03               	skipz
  3550  132D  2B34               	goto	u2275
  3551  132E  0875               	movf	___fleq@ff2+1,w
  3552  132F  0671               	xorwf	___fleq@ff1+1,w
  3553  1330  1D03               	skipz
  3554  1331  2B34               	goto	u2275
  3555  1332  0874               	movf	___fleq@ff2,w
  3556  1333  0670               	xorwf	___fleq@ff1,w
  3557  1334                     u2275:	
  3558  1334  1903               	skipnz
  3559  1335  2B37               	goto	u2271
  3560  1336  2B38               	goto	u2270
  3561  1337                     u2271:	
  3562  1337  2B3A               	goto	l2332
  3563  1338                     u2270:	
  3564  1338                     l2330:	
  3565  1338  1003               	clrc
  3566  1339  2B3B               	goto	l557
  3567  133A                     l2332:	
  3568  133A  1403               	setc
  3569  133B                     l557:	
  3570  133B  0008               	return
  3571  133C                     __end_of___fleq:	
  3572                           
  3573                           	psect	text4
  3574  1726                     __ptext4:	
  3575 ;; *************** function _eval_poly *****************
  3576 ;; Defined at:
  3577 ;;		line 4 in file "C:\Program Files (x86)\Microchip\xc8\v2.10\pic\sources\c90\common\evalpoly.c"
  3578 ;; Parameters:    Size  Location     Type
  3579 ;;  x               4    0[BANK1 ] PTR int 
  3580 ;;  d               1    4[BANK1 ] PTR const 
  3581 ;;		 -> log@coeff(36), 
  3582 ;;  n               2    5[BANK1 ] int 
  3583 ;; Auto vars:     Size  Location     Type
  3584 ;;  res             4   12[BANK1 ] int 
  3585 ;; Return value:  Size  Location     Type
  3586 ;;                  4    0[BANK1 ] int 
  3587 ;; Registers used:
  3588 ;;		wreg, fsr0l, fsr0h, status,2, status,0, btemp+1, pclath, cstack
  3589 ;; Tracked objects:
  3590 ;;		On entry : 0/0
  3591 ;;		On exit  : 0/0
  3592 ;;		Unchanged: 0/0
  3593 ;; Data sizes:     COMMON   BANK0   BANK1   BANK3   BANK2
  3594 ;;      Params:         0       0       7       0       0
  3595 ;;      Locals:         0       0       4       0       0
  3596 ;;      Temps:          0       0       5       0       0
  3597 ;;      Totals:         0       0      16       0       0
  3598 ;;Total ram usage:       16 bytes
  3599 ;; Hardware stack levels used:    1
  3600 ;; Hardware stack levels required when called:    2
  3601 ;; This function calls:
  3602 ;;		___fladd
  3603 ;;		___flmul
  3604 ;; This function is called by:
  3605 ;;		_log
  3606 ;; This function uses a non-reentrant model
  3607 ;;
  3608                           
  3609                           
  3610                           ;psect for function _eval_poly
  3611  1726                     _eval_poly:	
  3612  1726                     l2830:	
  3613                           ;incstack = 0
  3614                           ; Regs used in _eval_poly: [wreg-fsr0h+status,2+status,0+btemp+1+pclath+cstack]
  3615                           
  3616  1726  1683               	bsf	3,5	;RP0=1, select bank1
  3617  1727  1303               	bcf	3,6	;RP1=0, select bank1
  3618  1728  0851               	movf	eval_poly@n^(0+128),w
  3619  1729  00D3               	movwf	??_eval_poly^(0+128)
  3620  172A  3001               	movlw	1
  3621  172B                     u3465:	
  3622  172B  1003               	clrc
  3623  172C  0DD3               	rlf	??_eval_poly^(0+128),f
  3624  172D  3EFF               	addlw	-1
  3625  172E  1D03               	skipz
  3626  172F  2F2B               	goto	u3465
  3627  1730  1003               	clrc
  3628  1731  0D53               	rlf	??_eval_poly^(0+128),w
  3629  1732  0750               	addwf	eval_poly@d^(0+128),w
  3630  1733  0084               	movwf	4
  3631  1734  160A  118A  2000  160A  118A  	fcall	stringdir
  3632  1739  00D4               	movwf	(??_eval_poly+1)^(0+128)
  3633  173A  160A  118A  2000  160A  118A  	fcall	stringdir
  3634  173F  00D5               	movwf	((??_eval_poly+1)^(0+128)+1)
  3635  1740  160A  118A  2000  160A  118A  	fcall	stringdir
  3636  1745  00D6               	movwf	((??_eval_poly+1)^(0+128)+2)
  3637  1746  160A  118A  2000  160A  118A  	fcall	stringdir
  3638  174B  00D7               	movwf	((??_eval_poly+1)^(0+128)+3)
  3639  174C  0857               	movf	(??_eval_poly+4)^(0+128),w
  3640  174D  00DB               	movwf	(eval_poly@res+3)^(0+128)
  3641  174E  0856               	movf	(??_eval_poly+3)^(0+128),w
  3642  174F  00DA               	movwf	(eval_poly@res+2)^(0+128)
  3643  1750  0855               	movf	(??_eval_poly+2)^(0+128),w
  3644  1751  00D9               	movwf	(eval_poly@res+1)^(0+128)
  3645  1752  0854               	movf	(??_eval_poly+1)^(0+128),w
  3646  1753  00D8               	movwf	eval_poly@res^(0+128)
  3647  1754  2FF1               	goto	l2834
  3648  1755                     l2832:	
  3649  1755  30FF               	movlw	255
  3650  1756  07D1               	addwf	eval_poly@n^(0+128),f
  3651  1757  1803               	skipnc
  3652  1758  0AD2               	incf	(eval_poly@n+1)^(0+128),f
  3653  1759  30FF               	movlw	255
  3654  175A  07D2               	addwf	(eval_poly@n+1)^(0+128),f
  3655  175B  0851               	movf	eval_poly@n^(0+128),w
  3656  175C  00D3               	movwf	??_eval_poly^(0+128)
  3657  175D  3001               	movlw	1
  3658  175E                     u3475:	
  3659  175E  1003               	clrc
  3660  175F  0DD3               	rlf	??_eval_poly^(0+128),f
  3661  1760  3EFF               	addlw	-1
  3662  1761  1D03               	skipz
  3663  1762  2F5E               	goto	u3475
  3664  1763  1003               	clrc
  3665  1764  0D53               	rlf	??_eval_poly^(0+128),w
  3666  1765  0750               	addwf	eval_poly@d^(0+128),w
  3667  1766  0084               	movwf	4
  3668  1767  160A  118A  2000  160A  118A  	fcall	stringdir
  3669  176C  00D4               	movwf	(??_eval_poly+1)^(0+128)
  3670  176D  160A  118A  2000  160A  118A  	fcall	stringdir
  3671  1772  00D5               	movwf	((??_eval_poly+1)^(0+128)+1)
  3672  1773  160A  118A  2000  160A  118A  	fcall	stringdir
  3673  1778  00D6               	movwf	((??_eval_poly+1)^(0+128)+2)
  3674  1779  160A  118A  2000  160A  118A  	fcall	stringdir
  3675  177E  00D7               	movwf	((??_eval_poly+1)^(0+128)+3)
  3676  177F  0857               	movf	(??_eval_poly+4)^(0+128),w
  3677  1780  1283               	bcf	3,5	;RP0=0, select bank0
  3678  1781  1303               	bcf	3,6	;RP1=0, select bank0
  3679  1782  00C2               	movwf	___fladd@b+3
  3680  1783  1683               	bsf	3,5	;RP0=1, select bank1
  3681  1784  1303               	bcf	3,6	;RP1=0, select bank1
  3682  1785  0856               	movf	(??_eval_poly+3)^(0+128),w
  3683  1786  1283               	bcf	3,5	;RP0=0, select bank0
  3684  1787  1303               	bcf	3,6	;RP1=0, select bank0
  3685  1788  00C1               	movwf	___fladd@b+2
  3686  1789  1683               	bsf	3,5	;RP0=1, select bank1
  3687  178A  1303               	bcf	3,6	;RP1=0, select bank1
  3688  178B  0855               	movf	(??_eval_poly+2)^(0+128),w
  3689  178C  1283               	bcf	3,5	;RP0=0, select bank0
  3690  178D  1303               	bcf	3,6	;RP1=0, select bank0
  3691  178E  00C0               	movwf	___fladd@b+1
  3692  178F  1683               	bsf	3,5	;RP0=1, select bank1
  3693  1790  1303               	bcf	3,6	;RP1=0, select bank1
  3694  1791  0854               	movf	(??_eval_poly+1)^(0+128),w
  3695  1792  1283               	bcf	3,5	;RP0=0, select bank0
  3696  1793  1303               	bcf	3,6	;RP1=0, select bank0
  3697  1794  00BF               	movwf	___fladd@b
  3698  1795  1683               	bsf	3,5	;RP0=1, select bank1
  3699  1796  1303               	bcf	3,6	;RP1=0, select bank1
  3700  1797  085B               	movf	(eval_poly@res+3)^(0+128),w
  3701  1798  1283               	bcf	3,5	;RP0=0, select bank0
  3702  1799  1303               	bcf	3,6	;RP1=0, select bank0
  3703  179A  00D6               	movwf	___flmul@b+3
  3704  179B  1683               	bsf	3,5	;RP0=1, select bank1
  3705  179C  1303               	bcf	3,6	;RP1=0, select bank1
  3706  179D  085A               	movf	(eval_poly@res+2)^(0+128),w
  3707  179E  1283               	bcf	3,5	;RP0=0, select bank0
  3708  179F  1303               	bcf	3,6	;RP1=0, select bank0
  3709  17A0  00D5               	movwf	___flmul@b+2
  3710  17A1  1683               	bsf	3,5	;RP0=1, select bank1
  3711  17A2  1303               	bcf	3,6	;RP1=0, select bank1
  3712  17A3  0859               	movf	(eval_poly@res+1)^(0+128),w
  3713  17A4  1283               	bcf	3,5	;RP0=0, select bank0
  3714  17A5  1303               	bcf	3,6	;RP1=0, select bank0
  3715  17A6  00D4               	movwf	___flmul@b+1
  3716  17A7  1683               	bsf	3,5	;RP0=1, select bank1
  3717  17A8  1303               	bcf	3,6	;RP1=0, select bank1
  3718  17A9  0858               	movf	eval_poly@res^(0+128),w
  3719  17AA  1283               	bcf	3,5	;RP0=0, select bank0
  3720  17AB  1303               	bcf	3,6	;RP1=0, select bank0
  3721  17AC  00D3               	movwf	___flmul@b
  3722  17AD  1683               	bsf	3,5	;RP0=1, select bank1
  3723  17AE  1303               	bcf	3,6	;RP1=0, select bank1
  3724  17AF  084F               	movf	(eval_poly@x+3)^(0+128),w
  3725  17B0  1283               	bcf	3,5	;RP0=0, select bank0
  3726  17B1  1303               	bcf	3,6	;RP1=0, select bank0
  3727  17B2  00DA               	movwf	___flmul@a+3
  3728  17B3  1683               	bsf	3,5	;RP0=1, select bank1
  3729  17B4  1303               	bcf	3,6	;RP1=0, select bank1
  3730  17B5  084E               	movf	(eval_poly@x+2)^(0+128),w
  3731  17B6  1283               	bcf	3,5	;RP0=0, select bank0
  3732  17B7  1303               	bcf	3,6	;RP1=0, select bank0
  3733  17B8  00D9               	movwf	___flmul@a+2
  3734  17B9  1683               	bsf	3,5	;RP0=1, select bank1
  3735  17BA  1303               	bcf	3,6	;RP1=0, select bank1
  3736  17BB  084D               	movf	(eval_poly@x+1)^(0+128),w
  3737  17BC  1283               	bcf	3,5	;RP0=0, select bank0
  3738  17BD  1303               	bcf	3,6	;RP1=0, select bank0
  3739  17BE  00D8               	movwf	___flmul@a+1
  3740  17BF  1683               	bsf	3,5	;RP0=1, select bank1
  3741  17C0  1303               	bcf	3,6	;RP1=0, select bank1
  3742  17C1  084C               	movf	eval_poly@x^(0+128),w
  3743  17C2  1283               	bcf	3,5	;RP0=0, select bank0
  3744  17C3  1303               	bcf	3,6	;RP1=0, select bank0
  3745  17C4  00D7               	movwf	___flmul@a
  3746  17C5  120A  158A  249F  160A  118A  	fcall	___flmul
  3747  17CA  1283               	bcf	3,5	;RP0=0, select bank0
  3748  17CB  1303               	bcf	3,6	;RP1=0, select bank0
  3749  17CC  0856               	movf	?___flmul+3,w
  3750  17CD  00C6               	movwf	___fladd@a+3
  3751  17CE  0855               	movf	?___flmul+2,w
  3752  17CF  00C5               	movwf	___fladd@a+2
  3753  17D0  0854               	movf	?___flmul+1,w
  3754  17D1  00C4               	movwf	___fladd@a+1
  3755  17D2  0853               	movf	?___flmul,w
  3756  17D3  00C3               	movwf	___fladd@a
  3757  17D4  120A  158A  2217  160A  118A  	fcall	___fladd
  3758  17D9  1283               	bcf	3,5	;RP0=0, select bank0
  3759  17DA  1303               	bcf	3,6	;RP1=0, select bank0
  3760  17DB  0842               	movf	?___fladd+3,w
  3761  17DC  1683               	bsf	3,5	;RP0=1, select bank1
  3762  17DD  1303               	bcf	3,6	;RP1=0, select bank1
  3763  17DE  00DB               	movwf	(eval_poly@res+3)^(0+128)
  3764  17DF  1283               	bcf	3,5	;RP0=0, select bank0
  3765  17E0  1303               	bcf	3,6	;RP1=0, select bank0
  3766  17E1  0841               	movf	?___fladd+2,w
  3767  17E2  1683               	bsf	3,5	;RP0=1, select bank1
  3768  17E3  1303               	bcf	3,6	;RP1=0, select bank1
  3769  17E4  00DA               	movwf	(eval_poly@res+2)^(0+128)
  3770  17E5  1283               	bcf	3,5	;RP0=0, select bank0
  3771  17E6  1303               	bcf	3,6	;RP1=0, select bank0
  3772  17E7  0840               	movf	?___fladd+1,w
  3773  17E8  1683               	bsf	3,5	;RP0=1, select bank1
  3774  17E9  1303               	bcf	3,6	;RP1=0, select bank1
  3775  17EA  00D9               	movwf	(eval_poly@res+1)^(0+128)
  3776  17EB  1283               	bcf	3,5	;RP0=0, select bank0
  3777  17EC  1303               	bcf	3,6	;RP1=0, select bank0
  3778  17ED  083F               	movf	?___fladd,w
  3779  17EE  1683               	bsf	3,5	;RP0=1, select bank1
  3780  17EF  1303               	bcf	3,6	;RP1=0, select bank1
  3781  17F0  00D8               	movwf	eval_poly@res^(0+128)
  3782  17F1                     l2834:	
  3783  17F1  0851               	movf	eval_poly@n^(0+128),w
  3784  17F2  0452               	iorwf	(eval_poly@n+1)^(0+128),w
  3785  17F3  1D03               	btfss	3,2
  3786  17F4  2FF6               	goto	u3481
  3787  17F5  2FF7               	goto	u3480
  3788  17F6                     u3481:	
  3789  17F6  2F55               	goto	l2832
  3790  17F7                     u3480:	
  3791  17F7                     l2836:	
  3792  17F7  085B               	movf	(eval_poly@res+3)^(0+128),w
  3793  17F8  00CF               	movwf	(?_eval_poly+3)^(0+128)
  3794  17F9  085A               	movf	(eval_poly@res+2)^(0+128),w
  3795  17FA  00CE               	movwf	(?_eval_poly+2)^(0+128)
  3796  17FB  0859               	movf	(eval_poly@res+1)^(0+128),w
  3797  17FC  00CD               	movwf	(?_eval_poly+1)^(0+128)
  3798  17FD  0858               	movf	eval_poly@res^(0+128),w
  3799  17FE  00CC               	movwf	?_eval_poly^(0+128)
  3800  17FF                     l858:	
  3801  17FF  0008               	return
  3802  1800                     __end_of_eval_poly:	
  3803                           
  3804                           	psect	text5
  3805  0C9F                     __ptext5:	
  3806 ;; *************** function ___flmul *****************
  3807 ;; Defined at:
  3808 ;;		line 8 in file "C:\Program Files (x86)\Microchip\xc8\v2.10\pic\sources\c90\common\sprcmul.c"
  3809 ;; Parameters:    Size  Location     Type
  3810 ;;  b               4   51[BANK0 ] int 
  3811 ;;  a               4   55[BANK0 ] int 
  3812 ;; Auto vars:     Size  Location     Type
  3813 ;;  prod            4   71[BANK0 ] struct .
  3814 ;;  grs             4   65[BANK0 ] unsigned long 
  3815 ;;  temp            2   75[BANK0 ] struct .
  3816 ;;  bexp            1   70[BANK0 ] unsigned char 
  3817 ;;  aexp            1   69[BANK0 ] unsigned char 
  3818 ;;  sign            1   64[BANK0 ] unsigned char 
  3819 ;; Return value:  Size  Location     Type
  3820 ;;                  4   51[BANK0 ] unsigned char 
  3821 ;; Registers used:
  3822 ;;		wreg, status,2, status,0, btemp+1, pclath, cstack
  3823 ;; Tracked objects:
  3824 ;;		On entry : 0/0
  3825 ;;		On exit  : 0/0
  3826 ;;		Unchanged: 0/0
  3827 ;; Data sizes:     COMMON   BANK0   BANK1   BANK3   BANK2
  3828 ;;      Params:         0       8       0       0       0
  3829 ;;      Locals:         0      13       0       0       0
  3830 ;;      Temps:          0       5       0       0       0
  3831 ;;      Totals:         0      26       0       0       0
  3832 ;;Total ram usage:       26 bytes
  3833 ;; Hardware stack levels used:    1
  3834 ;; Hardware stack levels required when called:    1
  3835 ;; This function calls:
  3836 ;;		__Umul8_16
  3837 ;; This function is called by:
  3838 ;;		_main
  3839 ;;		_log
  3840 ;;		_eval_poly
  3841 ;; This function uses a non-reentrant model
  3842 ;;
  3843                           
  3844                           
  3845                           ;psect for function ___flmul
  3846  0C9F                     ___flmul:	
  3847  0C9F                     l2530:	
  3848                           ;incstack = 0
  3849                           ; Regs used in ___flmul: [wreg+status,2+status,0+btemp+1+pclath+cstack]
  3850                           
  3851  0C9F  1283               	bcf	3,5	;RP0=0, select bank0
  3852  0CA0  1303               	bcf	3,6	;RP1=0, select bank0
  3853  0CA1  0856               	movf	___flmul@b+3,w
  3854  0CA2  3980               	andlw	128
  3855  0CA3  00DB               	movwf	??___flmul
  3856  0CA4  085B               	movf	??___flmul,w
  3857  0CA5  00E0               	movwf	___flmul@sign
  3858  0CA6                     l2532:	
  3859  0CA6  0856               	movf	___flmul@b+3,w
  3860  0CA7  00DB               	movwf	??___flmul
  3861  0CA8  075B               	addwf	??___flmul,w
  3862  0CA9  00DC               	movwf	??___flmul+1
  3863  0CAA  085C               	movf	??___flmul+1,w
  3864  0CAB  00E6               	movwf	___flmul@bexp
  3865  0CAC                     l2534:	
  3866  0CAC  1FD5               	btfss	___flmul@b+2,7
  3867  0CAD  2CAF               	goto	u2741
  3868  0CAE  2CB0               	goto	u2740
  3869  0CAF                     u2741:	
  3870  0CAF  2CB1               	goto	l2538
  3871  0CB0                     u2740:	
  3872  0CB0                     l2536:	
  3873  0CB0  1466               	bsf	___flmul@bexp,0
  3874  0CB1                     l2538:	
  3875  0CB1  0866               	movf	___flmul@bexp,w
  3876  0CB2  1903               	btfsc	3,2
  3877  0CB3  2CB5               	goto	u2751
  3878  0CB4  2CB6               	goto	u2750
  3879  0CB5                     u2751:	
  3880  0CB5  2CC5               	goto	l2546
  3881  0CB6                     u2750:	
  3882  0CB6                     l2540:	
  3883  0CB6  0A66               	incf	___flmul@bexp,w
  3884  0CB7  1D03               	btfss	3,2
  3885  0CB8  2CBA               	goto	u2761
  3886  0CB9  2CBB               	goto	u2760
  3887  0CBA                     u2761:	
  3888  0CBA  2CC3               	goto	l2544
  3889  0CBB                     u2760:	
  3890  0CBB                     l2542:	
  3891  0CBB  3000               	movlw	0
  3892  0CBC  00D6               	movwf	___flmul@b+3
  3893  0CBD  3000               	movlw	0
  3894  0CBE  00D5               	movwf	___flmul@b+2
  3895  0CBF  3000               	movlw	0
  3896  0CC0  00D4               	movwf	___flmul@b+1
  3897  0CC1  3000               	movlw	0
  3898  0CC2  00D3               	movwf	___flmul@b
  3899  0CC3                     l2544:	
  3900  0CC3  17D5               	bsf	___flmul@b+2,7
  3901  0CC4  2CCD               	goto	l2548
  3902  0CC5                     l2546:	
  3903  0CC5  3000               	movlw	0
  3904  0CC6  00D6               	movwf	___flmul@b+3
  3905  0CC7  3000               	movlw	0
  3906  0CC8  00D5               	movwf	___flmul@b+2
  3907  0CC9  3000               	movlw	0
  3908  0CCA  00D4               	movwf	___flmul@b+1
  3909  0CCB  3000               	movlw	0
  3910  0CCC  00D3               	movwf	___flmul@b
  3911  0CCD                     l2548:	
  3912  0CCD  085A               	movf	___flmul@a+3,w
  3913  0CCE  3980               	andlw	128
  3914  0CCF  00DB               	movwf	??___flmul
  3915  0CD0  085B               	movf	??___flmul,w
  3916  0CD1  06E0               	xorwf	___flmul@sign,f
  3917  0CD2                     l2550:	
  3918  0CD2  085A               	movf	___flmul@a+3,w
  3919  0CD3  00DB               	movwf	??___flmul
  3920  0CD4  075B               	addwf	??___flmul,w
  3921  0CD5  00DC               	movwf	??___flmul+1
  3922  0CD6  085C               	movf	??___flmul+1,w
  3923  0CD7  00E5               	movwf	___flmul@aexp
  3924  0CD8                     l2552:	
  3925  0CD8  1FD9               	btfss	___flmul@a+2,7
  3926  0CD9  2CDB               	goto	u2771
  3927  0CDA  2CDC               	goto	u2770
  3928  0CDB                     u2771:	
  3929  0CDB  2CDD               	goto	l2556
  3930  0CDC                     u2770:	
  3931  0CDC                     l2554:	
  3932  0CDC  1465               	bsf	___flmul@aexp,0
  3933  0CDD                     l2556:	
  3934  0CDD  0865               	movf	___flmul@aexp,w
  3935  0CDE  1903               	btfsc	3,2
  3936  0CDF  2CE1               	goto	u2781
  3937  0CE0  2CE2               	goto	u2780
  3938  0CE1                     u2781:	
  3939  0CE1  2CF1               	goto	l2564
  3940  0CE2                     u2780:	
  3941  0CE2                     l2558:	
  3942  0CE2  0A65               	incf	___flmul@aexp,w
  3943  0CE3  1D03               	btfss	3,2
  3944  0CE4  2CE6               	goto	u2791
  3945  0CE5  2CE7               	goto	u2790
  3946  0CE6                     u2791:	
  3947  0CE6  2CEF               	goto	l2562
  3948  0CE7                     u2790:	
  3949  0CE7                     l2560:	
  3950  0CE7  3000               	movlw	0
  3951  0CE8  00DA               	movwf	___flmul@a+3
  3952  0CE9  3000               	movlw	0
  3953  0CEA  00D9               	movwf	___flmul@a+2
  3954  0CEB  3000               	movlw	0
  3955  0CEC  00D8               	movwf	___flmul@a+1
  3956  0CED  3000               	movlw	0
  3957  0CEE  00D7               	movwf	___flmul@a
  3958  0CEF                     l2562:	
  3959  0CEF  17D9               	bsf	___flmul@a+2,7
  3960  0CF0  2CF9               	goto	l2566
  3961  0CF1                     l2564:	
  3962  0CF1  3000               	movlw	0
  3963  0CF2  00DA               	movwf	___flmul@a+3
  3964  0CF3  3000               	movlw	0
  3965  0CF4  00D9               	movwf	___flmul@a+2
  3966  0CF5  3000               	movlw	0
  3967  0CF6  00D8               	movwf	___flmul@a+1
  3968  0CF7  3000               	movlw	0
  3969  0CF8  00D7               	movwf	___flmul@a
  3970  0CF9                     l2566:	
  3971  0CF9  0865               	movf	___flmul@aexp,w
  3972  0CFA  1903               	btfsc	3,2
  3973  0CFB  2CFD               	goto	u2801
  3974  0CFC  2CFE               	goto	u2800
  3975  0CFD                     u2801:	
  3976  0CFD  2D03               	goto	l2570
  3977  0CFE                     u2800:	
  3978  0CFE                     l2568:	
  3979  0CFE  0866               	movf	___flmul@bexp,w
  3980  0CFF  1D03               	btfss	3,2
  3981  0D00  2D02               	goto	u2811
  3982  0D01  2D03               	goto	u2810
  3983  0D02                     u2811:	
  3984  0D02  2D0C               	goto	l2574
  3985  0D03                     u2810:	
  3986  0D03                     l2570:	
  3987  0D03  3000               	movlw	0
  3988  0D04  00D6               	movwf	?___flmul+3
  3989  0D05  3000               	movlw	0
  3990  0D06  00D5               	movwf	?___flmul+2
  3991  0D07  3000               	movlw	0
  3992  0D08  00D4               	movwf	?___flmul+1
  3993  0D09  3000               	movlw	0
  3994  0D0A  00D3               	movwf	?___flmul
  3995  0D0B  2FFF               	goto	l775
  3996  0D0C                     l2574:	
  3997  0D0C  0853               	movf	___flmul@b,w
  3998  0D0D  00DB               	movwf	??___flmul
  3999  0D0E  085B               	movf	??___flmul,w
  4000  0D0F  00F0               	movwf	__Umul8_16@multiplicand
  4001  0D10  0859               	movf	___flmul@a+2,w
  4002  0D11  160A  118A  2188  120A  158A  	fcall	__Umul8_16
  4003  0D16  0871               	movf	?__Umul8_16+1,w
  4004  0D17  1283               	bcf	3,5	;RP0=0, select bank0
  4005  0D18  1303               	bcf	3,6	;RP1=0, select bank0
  4006  0D19  00EC               	movwf	___flmul@temp+1
  4007  0D1A  0870               	movf	?__Umul8_16,w
  4008  0D1B  00EB               	movwf	___flmul@temp
  4009  0D1C                     l2576:	
  4010  0D1C  086B               	movf	___flmul@temp,w
  4011  0D1D  00DB               	movwf	??___flmul
  4012  0D1E  01DC               	clrf	??___flmul+1
  4013  0D1F  01DD               	clrf	??___flmul+2
  4014  0D20  01DE               	clrf	??___flmul+3
  4015  0D21  085E               	movf	??___flmul+3,w
  4016  0D22  00E4               	movwf	___flmul@grs+3
  4017  0D23  085D               	movf	??___flmul+2,w
  4018  0D24  00E3               	movwf	___flmul@grs+2
  4019  0D25  085C               	movf	??___flmul+1,w
  4020  0D26  00E2               	movwf	___flmul@grs+1
  4021  0D27  085B               	movf	??___flmul,w
  4022  0D28  00E1               	movwf	___flmul@grs
  4023  0D29                     l2578:	
  4024  0D29  086C               	movf	___flmul@temp+1,w
  4025  0D2A  00DB               	movwf	??___flmul
  4026  0D2B  01DC               	clrf	??___flmul+1
  4027  0D2C  01DD               	clrf	??___flmul+2
  4028  0D2D  01DE               	clrf	??___flmul+3
  4029  0D2E  085E               	movf	??___flmul+3,w
  4030  0D2F  00EA               	movwf	___flmul@prod+3
  4031  0D30  085D               	movf	??___flmul+2,w
  4032  0D31  00E9               	movwf	___flmul@prod+2
  4033  0D32  085C               	movf	??___flmul+1,w
  4034  0D33  00E8               	movwf	___flmul@prod+1
  4035  0D34  085B               	movf	??___flmul,w
  4036  0D35  00E7               	movwf	___flmul@prod
  4037  0D36  0854               	movf	___flmul@b+1,w
  4038  0D37  00DB               	movwf	??___flmul
  4039  0D38  085B               	movf	??___flmul,w
  4040  0D39  00F0               	movwf	__Umul8_16@multiplicand
  4041  0D3A  0858               	movf	___flmul@a+1,w
  4042  0D3B  160A  118A  2188  120A  158A  	fcall	__Umul8_16
  4043  0D40  0871               	movf	?__Umul8_16+1,w
  4044  0D41  1283               	bcf	3,5	;RP0=0, select bank0
  4045  0D42  1303               	bcf	3,6	;RP1=0, select bank0
  4046  0D43  00EC               	movwf	___flmul@temp+1
  4047  0D44  0870               	movf	?__Umul8_16,w
  4048  0D45  00EB               	movwf	___flmul@temp
  4049  0D46                     l2580:	
  4050  0D46  086B               	movf	___flmul@temp,w
  4051  0D47  00DB               	movwf	??___flmul
  4052  0D48  01DC               	clrf	??___flmul+1
  4053  0D49  01DD               	clrf	??___flmul+2
  4054  0D4A  01DE               	clrf	??___flmul+3
  4055  0D4B  085B               	movf	??___flmul,w
  4056  0D4C  07E1               	addwf	___flmul@grs,f
  4057  0D4D  085C               	movf	??___flmul+1,w
  4058  0D4E  1103               	clrz
  4059  0D4F  1803               	skipnc
  4060  0D50  3E01               	addlw	1
  4061  0D51  1903               	skipnz
  4062  0D52  2D54               	goto	u2821
  4063  0D53  07E2               	addwf	___flmul@grs+1,f
  4064  0D54                     u2821:	
  4065  0D54  085D               	movf	??___flmul+2,w
  4066  0D55  1103               	clrz
  4067  0D56  1803               	skipnc
  4068  0D57  3E01               	addlw	1
  4069  0D58  1903               	skipnz
  4070  0D59  2D5B               	goto	u2822
  4071  0D5A  07E3               	addwf	___flmul@grs+2,f
  4072  0D5B                     u2822:	
  4073  0D5B  085E               	movf	??___flmul+3,w
  4074  0D5C  1103               	clrz
  4075  0D5D  1803               	skipnc
  4076  0D5E  3E01               	addlw	1
  4077  0D5F  1903               	skipnz
  4078  0D60  2D62               	goto	u2823
  4079  0D61  07E4               	addwf	___flmul@grs+3,f
  4080  0D62                     u2823:	
  4081  0D62                     l2582:	
  4082  0D62  086C               	movf	___flmul@temp+1,w
  4083  0D63  00DB               	movwf	??___flmul
  4084  0D64  01DC               	clrf	??___flmul+1
  4085  0D65  01DD               	clrf	??___flmul+2
  4086  0D66  01DE               	clrf	??___flmul+3
  4087  0D67  085B               	movf	??___flmul,w
  4088  0D68  07E7               	addwf	___flmul@prod,f
  4089  0D69  085C               	movf	??___flmul+1,w
  4090  0D6A  1103               	clrz
  4091  0D6B  1803               	skipnc
  4092  0D6C  3E01               	addlw	1
  4093  0D6D  1903               	skipnz
  4094  0D6E  2D70               	goto	u2831
  4095  0D6F  07E8               	addwf	___flmul@prod+1,f
  4096  0D70                     u2831:	
  4097  0D70  085D               	movf	??___flmul+2,w
  4098  0D71  1103               	clrz
  4099  0D72  1803               	skipnc
  4100  0D73  3E01               	addlw	1
  4101  0D74  1903               	skipnz
  4102  0D75  2D77               	goto	u2832
  4103  0D76  07E9               	addwf	___flmul@prod+2,f
  4104  0D77                     u2832:	
  4105  0D77  085E               	movf	??___flmul+3,w
  4106  0D78  1103               	clrz
  4107  0D79  1803               	skipnc
  4108  0D7A  3E01               	addlw	1
  4109  0D7B  1903               	skipnz
  4110  0D7C  2D7E               	goto	u2833
  4111  0D7D  07EA               	addwf	___flmul@prod+3,f
  4112  0D7E                     u2833:	
  4113  0D7E  0855               	movf	___flmul@b+2,w
  4114  0D7F  00DB               	movwf	??___flmul
  4115  0D80  085B               	movf	??___flmul,w
  4116  0D81  00F0               	movwf	__Umul8_16@multiplicand
  4117  0D82  0857               	movf	___flmul@a,w
  4118  0D83  160A  118A  2188  120A  158A  	fcall	__Umul8_16
  4119  0D88  0871               	movf	?__Umul8_16+1,w
  4120  0D89  1283               	bcf	3,5	;RP0=0, select bank0
  4121  0D8A  1303               	bcf	3,6	;RP1=0, select bank0
  4122  0D8B  00EC               	movwf	___flmul@temp+1
  4123  0D8C  0870               	movf	?__Umul8_16,w
  4124  0D8D  00EB               	movwf	___flmul@temp
  4125  0D8E                     l2584:	
  4126  0D8E  086B               	movf	___flmul@temp,w
  4127  0D8F  00DB               	movwf	??___flmul
  4128  0D90  01DC               	clrf	??___flmul+1
  4129  0D91  01DD               	clrf	??___flmul+2
  4130  0D92  01DE               	clrf	??___flmul+3
  4131  0D93  085B               	movf	??___flmul,w
  4132  0D94  07E1               	addwf	___flmul@grs,f
  4133  0D95  085C               	movf	??___flmul+1,w
  4134  0D96  1103               	clrz
  4135  0D97  1803               	skipnc
  4136  0D98  3E01               	addlw	1
  4137  0D99  1903               	skipnz
  4138  0D9A  2D9C               	goto	u2841
  4139  0D9B  07E2               	addwf	___flmul@grs+1,f
  4140  0D9C                     u2841:	
  4141  0D9C  085D               	movf	??___flmul+2,w
  4142  0D9D  1103               	clrz
  4143  0D9E  1803               	skipnc
  4144  0D9F  3E01               	addlw	1
  4145  0DA0  1903               	skipnz
  4146  0DA1  2DA3               	goto	u2842
  4147  0DA2  07E3               	addwf	___flmul@grs+2,f
  4148  0DA3                     u2842:	
  4149  0DA3  085E               	movf	??___flmul+3,w
  4150  0DA4  1103               	clrz
  4151  0DA5  1803               	skipnc
  4152  0DA6  3E01               	addlw	1
  4153  0DA7  1903               	skipnz
  4154  0DA8  2DAA               	goto	u2843
  4155  0DA9  07E4               	addwf	___flmul@grs+3,f
  4156  0DAA                     u2843:	
  4157  0DAA                     l2586:	
  4158  0DAA  086C               	movf	___flmul@temp+1,w
  4159  0DAB  00DB               	movwf	??___flmul
  4160  0DAC  01DC               	clrf	??___flmul+1
  4161  0DAD  01DD               	clrf	??___flmul+2
  4162  0DAE  01DE               	clrf	??___flmul+3
  4163  0DAF  085B               	movf	??___flmul,w
  4164  0DB0  07E7               	addwf	___flmul@prod,f
  4165  0DB1  085C               	movf	??___flmul+1,w
  4166  0DB2  1103               	clrz
  4167  0DB3  1803               	skipnc
  4168  0DB4  3E01               	addlw	1
  4169  0DB5  1903               	skipnz
  4170  0DB6  2DB8               	goto	u2851
  4171  0DB7  07E8               	addwf	___flmul@prod+1,f
  4172  0DB8                     u2851:	
  4173  0DB8  085D               	movf	??___flmul+2,w
  4174  0DB9  1103               	clrz
  4175  0DBA  1803               	skipnc
  4176  0DBB  3E01               	addlw	1
  4177  0DBC  1903               	skipnz
  4178  0DBD  2DBF               	goto	u2852
  4179  0DBE  07E9               	addwf	___flmul@prod+2,f
  4180  0DBF                     u2852:	
  4181  0DBF  085E               	movf	??___flmul+3,w
  4182  0DC0  1103               	clrz
  4183  0DC1  1803               	skipnc
  4184  0DC2  3E01               	addlw	1
  4185  0DC3  1903               	skipnz
  4186  0DC4  2DC6               	goto	u2853
  4187  0DC5  07EA               	addwf	___flmul@prod+3,f
  4188  0DC6                     u2853:	
  4189  0DC6                     l2588:	
  4190  0DC6  3008               	movlw	8
  4191  0DC7  00DB               	movwf	??___flmul
  4192  0DC8                     u2865:	
  4193  0DC8  1003               	clrc
  4194  0DC9  0DE1               	rlf	___flmul@grs,f
  4195  0DCA  0DE2               	rlf	___flmul@grs+1,f
  4196  0DCB  0DE3               	rlf	___flmul@grs+2,f
  4197  0DCC  0DE4               	rlf	___flmul@grs+3,f
  4198  0DCD  0BDB               	decfsz	??___flmul,f
  4199  0DCE  2DC8               	goto	u2865
  4200  0DCF                     l2590:	
  4201  0DCF  0854               	movf	___flmul@b+1,w
  4202  0DD0  00DB               	movwf	??___flmul
  4203  0DD1  085B               	movf	??___flmul,w
  4204  0DD2  00F0               	movwf	__Umul8_16@multiplicand
  4205  0DD3  0857               	movf	___flmul@a,w
  4206  0DD4  160A  118A  2188  120A  158A  	fcall	__Umul8_16
  4207  0DD9  0871               	movf	?__Umul8_16+1,w
  4208  0DDA  1283               	bcf	3,5	;RP0=0, select bank0
  4209  0DDB  1303               	bcf	3,6	;RP1=0, select bank0
  4210  0DDC  00EC               	movwf	___flmul@temp+1
  4211  0DDD  0870               	movf	?__Umul8_16,w
  4212  0DDE  00EB               	movwf	___flmul@temp
  4213  0DDF                     l2592:	
  4214  0DDF  086B               	movf	___flmul@temp,w
  4215  0DE0  00DB               	movwf	??___flmul
  4216  0DE1  086C               	movf	___flmul@temp+1,w
  4217  0DE2  00DC               	movwf	??___flmul+1
  4218  0DE3  01DD               	clrf	??___flmul+2
  4219  0DE4  01DE               	clrf	??___flmul+3
  4220  0DE5  085B               	movf	??___flmul,w
  4221  0DE6  07E1               	addwf	___flmul@grs,f
  4222  0DE7  085C               	movf	??___flmul+1,w
  4223  0DE8  1103               	clrz
  4224  0DE9  1803               	skipnc
  4225  0DEA  3E01               	addlw	1
  4226  0DEB  1903               	skipnz
  4227  0DEC  2DEE               	goto	u2871
  4228  0DED  07E2               	addwf	___flmul@grs+1,f
  4229  0DEE                     u2871:	
  4230  0DEE  085D               	movf	??___flmul+2,w
  4231  0DEF  1103               	clrz
  4232  0DF0  1803               	skipnc
  4233  0DF1  3E01               	addlw	1
  4234  0DF2  1903               	skipnz
  4235  0DF3  2DF5               	goto	u2872
  4236  0DF4  07E3               	addwf	___flmul@grs+2,f
  4237  0DF5                     u2872:	
  4238  0DF5  085E               	movf	??___flmul+3,w
  4239  0DF6  1103               	clrz
  4240  0DF7  1803               	skipnc
  4241  0DF8  3E01               	addlw	1
  4242  0DF9  1903               	skipnz
  4243  0DFA  2DFC               	goto	u2873
  4244  0DFB  07E4               	addwf	___flmul@grs+3,f
  4245  0DFC                     u2873:	
  4246  0DFC                     l2594:	
  4247  0DFC  0853               	movf	___flmul@b,w
  4248  0DFD  00DB               	movwf	??___flmul
  4249  0DFE  085B               	movf	??___flmul,w
  4250  0DFF  00F0               	movwf	__Umul8_16@multiplicand
  4251  0E00  0858               	movf	___flmul@a+1,w
  4252  0E01  160A  118A  2188  120A  158A  	fcall	__Umul8_16
  4253  0E06  0871               	movf	?__Umul8_16+1,w
  4254  0E07  1283               	bcf	3,5	;RP0=0, select bank0
  4255  0E08  1303               	bcf	3,6	;RP1=0, select bank0
  4256  0E09  00EC               	movwf	___flmul@temp+1
  4257  0E0A  0870               	movf	?__Umul8_16,w
  4258  0E0B  00EB               	movwf	___flmul@temp
  4259  0E0C                     l2596:	
  4260  0E0C  086B               	movf	___flmul@temp,w
  4261  0E0D  00DB               	movwf	??___flmul
  4262  0E0E  086C               	movf	___flmul@temp+1,w
  4263  0E0F  00DC               	movwf	??___flmul+1
  4264  0E10  01DD               	clrf	??___flmul+2
  4265  0E11  01DE               	clrf	??___flmul+3
  4266  0E12  085B               	movf	??___flmul,w
  4267  0E13  07E1               	addwf	___flmul@grs,f
  4268  0E14  085C               	movf	??___flmul+1,w
  4269  0E15  1103               	clrz
  4270  0E16  1803               	skipnc
  4271  0E17  3E01               	addlw	1
  4272  0E18  1903               	skipnz
  4273  0E19  2E1B               	goto	u2881
  4274  0E1A  07E2               	addwf	___flmul@grs+1,f
  4275  0E1B                     u2881:	
  4276  0E1B  085D               	movf	??___flmul+2,w
  4277  0E1C  1103               	clrz
  4278  0E1D  1803               	skipnc
  4279  0E1E  3E01               	addlw	1
  4280  0E1F  1903               	skipnz
  4281  0E20  2E22               	goto	u2882
  4282  0E21  07E3               	addwf	___flmul@grs+2,f
  4283  0E22                     u2882:	
  4284  0E22  085E               	movf	??___flmul+3,w
  4285  0E23  1103               	clrz
  4286  0E24  1803               	skipnc
  4287  0E25  3E01               	addlw	1
  4288  0E26  1903               	skipnz
  4289  0E27  2E29               	goto	u2883
  4290  0E28  07E4               	addwf	___flmul@grs+3,f
  4291  0E29                     u2883:	
  4292  0E29                     l2598:	
  4293  0E29  3008               	movlw	8
  4294  0E2A  00DB               	movwf	??___flmul
  4295  0E2B                     u2895:	
  4296  0E2B  1003               	clrc
  4297  0E2C  0DE1               	rlf	___flmul@grs,f
  4298  0E2D  0DE2               	rlf	___flmul@grs+1,f
  4299  0E2E  0DE3               	rlf	___flmul@grs+2,f
  4300  0E2F  0DE4               	rlf	___flmul@grs+3,f
  4301  0E30  0BDB               	decfsz	??___flmul,f
  4302  0E31  2E2B               	goto	u2895
  4303  0E32  0853               	movf	___flmul@b,w
  4304  0E33  00DB               	movwf	??___flmul
  4305  0E34  085B               	movf	??___flmul,w
  4306  0E35  00F0               	movwf	__Umul8_16@multiplicand
  4307  0E36  0857               	movf	___flmul@a,w
  4308  0E37  160A  118A  2188  120A  158A  	fcall	__Umul8_16
  4309  0E3C  0871               	movf	?__Umul8_16+1,w
  4310  0E3D  1283               	bcf	3,5	;RP0=0, select bank0
  4311  0E3E  1303               	bcf	3,6	;RP1=0, select bank0
  4312  0E3F  00EC               	movwf	___flmul@temp+1
  4313  0E40  0870               	movf	?__Umul8_16,w
  4314  0E41  00EB               	movwf	___flmul@temp
  4315  0E42                     l2600:	
  4316  0E42  086B               	movf	___flmul@temp,w
  4317  0E43  00DB               	movwf	??___flmul
  4318  0E44  086C               	movf	___flmul@temp+1,w
  4319  0E45  00DC               	movwf	??___flmul+1
  4320  0E46  01DD               	clrf	??___flmul+2
  4321  0E47  01DE               	clrf	??___flmul+3
  4322  0E48  085B               	movf	??___flmul,w
  4323  0E49  07E1               	addwf	___flmul@grs,f
  4324  0E4A  085C               	movf	??___flmul+1,w
  4325  0E4B  1103               	clrz
  4326  0E4C  1803               	skipnc
  4327  0E4D  3E01               	addlw	1
  4328  0E4E  1903               	skipnz
  4329  0E4F  2E51               	goto	u2901
  4330  0E50  07E2               	addwf	___flmul@grs+1,f
  4331  0E51                     u2901:	
  4332  0E51  085D               	movf	??___flmul+2,w
  4333  0E52  1103               	clrz
  4334  0E53  1803               	skipnc
  4335  0E54  3E01               	addlw	1
  4336  0E55  1903               	skipnz
  4337  0E56  2E58               	goto	u2902
  4338  0E57  07E3               	addwf	___flmul@grs+2,f
  4339  0E58                     u2902:	
  4340  0E58  085E               	movf	??___flmul+3,w
  4341  0E59  1103               	clrz
  4342  0E5A  1803               	skipnc
  4343  0E5B  3E01               	addlw	1
  4344  0E5C  1903               	skipnz
  4345  0E5D  2E5F               	goto	u2903
  4346  0E5E  07E4               	addwf	___flmul@grs+3,f
  4347  0E5F                     u2903:	
  4348  0E5F                     l2602:	
  4349  0E5F  0854               	movf	___flmul@b+1,w
  4350  0E60  00DB               	movwf	??___flmul
  4351  0E61  085B               	movf	??___flmul,w
  4352  0E62  00F0               	movwf	__Umul8_16@multiplicand
  4353  0E63  0859               	movf	___flmul@a+2,w
  4354  0E64  160A  118A  2188  120A  158A  	fcall	__Umul8_16
  4355  0E69  0871               	movf	?__Umul8_16+1,w
  4356  0E6A  1283               	bcf	3,5	;RP0=0, select bank0
  4357  0E6B  1303               	bcf	3,6	;RP1=0, select bank0
  4358  0E6C  00EC               	movwf	___flmul@temp+1
  4359  0E6D  0870               	movf	?__Umul8_16,w
  4360  0E6E  00EB               	movwf	___flmul@temp
  4361  0E6F  086B               	movf	___flmul@temp,w
  4362  0E70  00DB               	movwf	??___flmul
  4363  0E71  086C               	movf	___flmul@temp+1,w
  4364  0E72  00DC               	movwf	??___flmul+1
  4365  0E73  01DD               	clrf	??___flmul+2
  4366  0E74  01DE               	clrf	??___flmul+3
  4367  0E75  085B               	movf	??___flmul,w
  4368  0E76  07E7               	addwf	___flmul@prod,f
  4369  0E77  085C               	movf	??___flmul+1,w
  4370  0E78  1103               	clrz
  4371  0E79  1803               	skipnc
  4372  0E7A  3E01               	addlw	1
  4373  0E7B  1903               	skipnz
  4374  0E7C  2E7E               	goto	u2911
  4375  0E7D  07E8               	addwf	___flmul@prod+1,f
  4376  0E7E                     u2911:	
  4377  0E7E  085D               	movf	??___flmul+2,w
  4378  0E7F  1103               	clrz
  4379  0E80  1803               	skipnc
  4380  0E81  3E01               	addlw	1
  4381  0E82  1903               	skipnz
  4382  0E83  2E85               	goto	u2912
  4383  0E84  07E9               	addwf	___flmul@prod+2,f
  4384  0E85                     u2912:	
  4385  0E85  085E               	movf	??___flmul+3,w
  4386  0E86  1103               	clrz
  4387  0E87  1803               	skipnc
  4388  0E88  3E01               	addlw	1
  4389  0E89  1903               	skipnz
  4390  0E8A  2E8C               	goto	u2913
  4391  0E8B  07EA               	addwf	___flmul@prod+3,f
  4392  0E8C                     u2913:	
  4393  0E8C                     l2604:	
  4394  0E8C  0855               	movf	___flmul@b+2,w
  4395  0E8D  00DB               	movwf	??___flmul
  4396  0E8E  085B               	movf	??___flmul,w
  4397  0E8F  00F0               	movwf	__Umul8_16@multiplicand
  4398  0E90  0858               	movf	___flmul@a+1,w
  4399  0E91  160A  118A  2188  120A  158A  	fcall	__Umul8_16
  4400  0E96  0871               	movf	?__Umul8_16+1,w
  4401  0E97  1283               	bcf	3,5	;RP0=0, select bank0
  4402  0E98  1303               	bcf	3,6	;RP1=0, select bank0
  4403  0E99  00EC               	movwf	___flmul@temp+1
  4404  0E9A  0870               	movf	?__Umul8_16,w
  4405  0E9B  00EB               	movwf	___flmul@temp
  4406  0E9C                     l2606:	
  4407  0E9C  086B               	movf	___flmul@temp,w
  4408  0E9D  00DB               	movwf	??___flmul
  4409  0E9E  086C               	movf	___flmul@temp+1,w
  4410  0E9F  00DC               	movwf	??___flmul+1
  4411  0EA0  01DD               	clrf	??___flmul+2
  4412  0EA1  01DE               	clrf	??___flmul+3
  4413  0EA2  085B               	movf	??___flmul,w
  4414  0EA3  07E7               	addwf	___flmul@prod,f
  4415  0EA4  085C               	movf	??___flmul+1,w
  4416  0EA5  1103               	clrz
  4417  0EA6  1803               	skipnc
  4418  0EA7  3E01               	addlw	1
  4419  0EA8  1903               	skipnz
  4420  0EA9  2EAB               	goto	u2921
  4421  0EAA  07E8               	addwf	___flmul@prod+1,f
  4422  0EAB                     u2921:	
  4423  0EAB  085D               	movf	??___flmul+2,w
  4424  0EAC  1103               	clrz
  4425  0EAD  1803               	skipnc
  4426  0EAE  3E01               	addlw	1
  4427  0EAF  1903               	skipnz
  4428  0EB0  2EB2               	goto	u2922
  4429  0EB1  07E9               	addwf	___flmul@prod+2,f
  4430  0EB2                     u2922:	
  4431  0EB2  085E               	movf	??___flmul+3,w
  4432  0EB3  1103               	clrz
  4433  0EB4  1803               	skipnc
  4434  0EB5  3E01               	addlw	1
  4435  0EB6  1903               	skipnz
  4436  0EB7  2EB9               	goto	u2923
  4437  0EB8  07EA               	addwf	___flmul@prod+3,f
  4438  0EB9                     u2923:	
  4439  0EB9  0855               	movf	___flmul@b+2,w
  4440  0EBA  00DB               	movwf	??___flmul
  4441  0EBB  085B               	movf	??___flmul,w
  4442  0EBC  00F0               	movwf	__Umul8_16@multiplicand
  4443  0EBD  0859               	movf	___flmul@a+2,w
  4444  0EBE  160A  118A  2188  120A  158A  	fcall	__Umul8_16
  4445  0EC3  0871               	movf	?__Umul8_16+1,w
  4446  0EC4  1283               	bcf	3,5	;RP0=0, select bank0
  4447  0EC5  1303               	bcf	3,6	;RP1=0, select bank0
  4448  0EC6  00EC               	movwf	___flmul@temp+1
  4449  0EC7  0870               	movf	?__Umul8_16,w
  4450  0EC8  00EB               	movwf	___flmul@temp
  4451  0EC9                     l2608:	
  4452  0EC9  086B               	movf	___flmul@temp,w
  4453  0ECA  00DB               	movwf	??___flmul
  4454  0ECB  086C               	movf	___flmul@temp+1,w
  4455  0ECC  00DC               	movwf	??___flmul+1
  4456  0ECD  01DD               	clrf	??___flmul+2
  4457  0ECE  01DE               	clrf	??___flmul+3
  4458  0ECF  3008               	movlw	8
  4459  0ED0                     u2935:	
  4460  0ED0  1003               	clrc
  4461  0ED1  0DDB               	rlf	??___flmul,f
  4462  0ED2  0DDC               	rlf	??___flmul+1,f
  4463  0ED3  0DDD               	rlf	??___flmul+2,f
  4464  0ED4  0DDE               	rlf	??___flmul+3,f
  4465  0ED5                     u2930:	
  4466  0ED5  3EFF               	addlw	-1
  4467  0ED6  1D03               	skipz
  4468  0ED7  2ED0               	goto	u2935
  4469  0ED8  085B               	movf	??___flmul,w
  4470  0ED9  07E7               	addwf	___flmul@prod,f
  4471  0EDA  085C               	movf	??___flmul+1,w
  4472  0EDB  1103               	clrz
  4473  0EDC  1803               	skipnc
  4474  0EDD  3E01               	addlw	1
  4475  0EDE  1903               	skipnz
  4476  0EDF  2EE1               	goto	u2941
  4477  0EE0  07E8               	addwf	___flmul@prod+1,f
  4478  0EE1                     u2941:	
  4479  0EE1  085D               	movf	??___flmul+2,w
  4480  0EE2  1103               	clrz
  4481  0EE3  1803               	skipnc
  4482  0EE4  3E01               	addlw	1
  4483  0EE5  1903               	skipnz
  4484  0EE6  2EE8               	goto	u2942
  4485  0EE7  07E9               	addwf	___flmul@prod+2,f
  4486  0EE8                     u2942:	
  4487  0EE8  085E               	movf	??___flmul+3,w
  4488  0EE9  1103               	clrz
  4489  0EEA  1803               	skipnc
  4490  0EEB  3E01               	addlw	1
  4491  0EEC  1903               	skipnz
  4492  0EED  2EEF               	goto	u2943
  4493  0EEE  07EA               	addwf	___flmul@prod+3,f
  4494  0EEF                     u2943:	
  4495  0EEF                     l2610:	
  4496  0EEF  0861               	movf	___flmul@grs,w
  4497  0EF0  00DB               	movwf	??___flmul
  4498  0EF1  0862               	movf	___flmul@grs+1,w
  4499  0EF2  00DC               	movwf	??___flmul+1
  4500  0EF3  0863               	movf	___flmul@grs+2,w
  4501  0EF4  00DD               	movwf	??___flmul+2
  4502  0EF5  0864               	movf	___flmul@grs+3,w
  4503  0EF6  00DE               	movwf	??___flmul+3
  4504  0EF7  3018               	movlw	24
  4505  0EF8                     u2955:	
  4506  0EF8  1003               	clrc
  4507  0EF9  0CDE               	rrf	??___flmul+3,f
  4508  0EFA  0CDD               	rrf	??___flmul+2,f
  4509  0EFB  0CDC               	rrf	??___flmul+1,f
  4510  0EFC  0CDB               	rrf	??___flmul,f
  4511  0EFD                     u2950:	
  4512  0EFD  3EFF               	addlw	-1
  4513  0EFE  1D03               	skipz
  4514  0EFF  2EF8               	goto	u2955
  4515  0F00  085B               	movf	??___flmul,w
  4516  0F01  07E7               	addwf	___flmul@prod,f
  4517  0F02  085C               	movf	??___flmul+1,w
  4518  0F03  1103               	clrz
  4519  0F04  1803               	skipnc
  4520  0F05  3E01               	addlw	1
  4521  0F06  1903               	skipnz
  4522  0F07  2F09               	goto	u2961
  4523  0F08  07E8               	addwf	___flmul@prod+1,f
  4524  0F09                     u2961:	
  4525  0F09  085D               	movf	??___flmul+2,w
  4526  0F0A  1103               	clrz
  4527  0F0B  1803               	skipnc
  4528  0F0C  3E01               	addlw	1
  4529  0F0D  1903               	skipnz
  4530  0F0E  2F10               	goto	u2962
  4531  0F0F  07E9               	addwf	___flmul@prod+2,f
  4532  0F10                     u2962:	
  4533  0F10  085E               	movf	??___flmul+3,w
  4534  0F11  1103               	clrz
  4535  0F12  1803               	skipnc
  4536  0F13  3E01               	addlw	1
  4537  0F14  1903               	skipnz
  4538  0F15  2F17               	goto	u2963
  4539  0F16  07EA               	addwf	___flmul@prod+3,f
  4540  0F17                     u2963:	
  4541  0F17                     l2612:	
  4542  0F17  3008               	movlw	8
  4543  0F18  00DB               	movwf	??___flmul
  4544  0F19                     u2975:	
  4545  0F19  1003               	clrc
  4546  0F1A  0DE1               	rlf	___flmul@grs,f
  4547  0F1B  0DE2               	rlf	___flmul@grs+1,f
  4548  0F1C  0DE3               	rlf	___flmul@grs+2,f
  4549  0F1D  0DE4               	rlf	___flmul@grs+3,f
  4550  0F1E  0BDB               	decfsz	??___flmul,f
  4551  0F1F  2F19               	goto	u2975
  4552  0F20                     l2614:	
  4553  0F20  0866               	movf	___flmul@bexp,w
  4554  0F21  0765               	addwf	___flmul@aexp,w
  4555  0F22  00DB               	movwf	??___flmul
  4556  0F23  01DC               	clrf	??___flmul+1
  4557  0F24  0DDC               	rlf	??___flmul+1,f
  4558  0F25  085B               	movf	??___flmul,w
  4559  0F26  3E82               	addlw	130
  4560  0F27  00EB               	movwf	___flmul@temp
  4561  0F28  085C               	movf	??___flmul+1,w
  4562  0F29  1803               	skipnc
  4563  0F2A  3E01               	addlw	1
  4564  0F2B  3EFF               	addlw	255
  4565  0F2C  00EC               	movwf	___flmul@temp+1
  4566  0F2D  2F4B               	goto	l2626
  4567  0F2E                     l2616:	
  4568  0F2E  3001               	movlw	1
  4569  0F2F  00DB               	movwf	??___flmul
  4570  0F30                     u2985:	
  4571  0F30  1003               	clrc
  4572  0F31  0DE7               	rlf	___flmul@prod,f
  4573  0F32  0DE8               	rlf	___flmul@prod+1,f
  4574  0F33  0DE9               	rlf	___flmul@prod+2,f
  4575  0F34  0DEA               	rlf	___flmul@prod+3,f
  4576  0F35  0BDB               	decfsz	??___flmul,f
  4577  0F36  2F30               	goto	u2985
  4578  0F37                     l2618:	
  4579  0F37  1FE4               	btfss	___flmul@grs+3,7
  4580  0F38  2F3A               	goto	u2991
  4581  0F39  2F3B               	goto	u2990
  4582  0F3A                     u2991:	
  4583  0F3A  2F3C               	goto	l2622
  4584  0F3B                     u2990:	
  4585  0F3B                     l2620:	
  4586  0F3B  1467               	bsf	___flmul@prod,0
  4587  0F3C                     l2622:	
  4588  0F3C  3001               	movlw	1
  4589  0F3D  00DB               	movwf	??___flmul
  4590  0F3E                     u3005:	
  4591  0F3E  1003               	clrc
  4592  0F3F  0DE1               	rlf	___flmul@grs,f
  4593  0F40  0DE2               	rlf	___flmul@grs+1,f
  4594  0F41  0DE3               	rlf	___flmul@grs+2,f
  4595  0F42  0DE4               	rlf	___flmul@grs+3,f
  4596  0F43  0BDB               	decfsz	??___flmul,f
  4597  0F44  2F3E               	goto	u3005
  4598  0F45                     l2624:	
  4599  0F45  30FF               	movlw	255
  4600  0F46  07EB               	addwf	___flmul@temp,f
  4601  0F47  1803               	skipnc
  4602  0F48  0AEC               	incf	___flmul@temp+1,f
  4603  0F49  30FF               	movlw	255
  4604  0F4A  07EC               	addwf	___flmul@temp+1,f
  4605  0F4B                     l2626:	
  4606  0F4B  1FE9               	btfss	___flmul@prod+2,7
  4607  0F4C  2F4E               	goto	u3011
  4608  0F4D  2F4F               	goto	u3010
  4609  0F4E                     u3011:	
  4610  0F4E  2F2E               	goto	l2616
  4611  0F4F                     u3010:	
  4612  0F4F                     l2628:	
  4613  0F4F  01E5               	clrf	___flmul@aexp
  4614  0F50                     l2630:	
  4615  0F50  1FE4               	btfss	___flmul@grs+3,7
  4616  0F51  2F53               	goto	u3021
  4617  0F52  2F54               	goto	u3020
  4618  0F53                     u3021:	
  4619  0F53  2F70               	goto	l2638
  4620  0F54                     u3020:	
  4621  0F54                     l2632:	
  4622  0F54  30FF               	movlw	255
  4623  0F55  0561               	andwf	___flmul@grs,w
  4624  0F56  00DB               	movwf	??___flmul
  4625  0F57  30FF               	movlw	255
  4626  0F58  0562               	andwf	___flmul@grs+1,w
  4627  0F59  00DC               	movwf	??___flmul+1
  4628  0F5A  30FF               	movlw	255
  4629  0F5B  0563               	andwf	___flmul@grs+2,w
  4630  0F5C  00DD               	movwf	??___flmul+2
  4631  0F5D  307F               	movlw	127
  4632  0F5E  0564               	andwf	___flmul@grs+3,w
  4633  0F5F  00DE               	movwf	??___flmul+3
  4634  0F60  085E               	movf	??___flmul+3,w
  4635  0F61  045D               	iorwf	??___flmul+2,w
  4636  0F62  045C               	iorwf	??___flmul+1,w
  4637  0F63  045B               	iorwf	??___flmul,w
  4638  0F64  1903               	skipnz
  4639  0F65  2F67               	goto	u3031
  4640  0F66  2F68               	goto	u3030
  4641  0F67                     u3031:	
  4642  0F67  2F6B               	goto	l781
  4643  0F68                     u3030:	
  4644  0F68                     l2634:	
  4645  0F68  01E5               	clrf	___flmul@aexp
  4646  0F69  0AE5               	incf	___flmul@aexp,f
  4647  0F6A  2F70               	goto	l2638
  4648  0F6B                     l781:	
  4649  0F6B  1C67               	btfss	___flmul@prod,0
  4650  0F6C  2F6E               	goto	u3041
  4651  0F6D  2F6F               	goto	u3040
  4652  0F6E                     u3041:	
  4653  0F6E  2F70               	goto	l2638
  4654  0F6F                     u3040:	
  4655  0F6F  2F68               	goto	l2634
  4656  0F70                     l2638:	
  4657  0F70  0865               	movf	___flmul@aexp,w
  4658  0F71  1903               	btfsc	3,2
  4659  0F72  2F74               	goto	u3051
  4660  0F73  2F75               	goto	u3050
  4661  0F74                     u3051:	
  4662  0F74  2FA6               	goto	l2648
  4663  0F75                     u3050:	
  4664  0F75                     l2640:	
  4665  0F75  3001               	movlw	1
  4666  0F76  07E7               	addwf	___flmul@prod,f
  4667  0F77  3000               	movlw	0
  4668  0F78  1803               	skipnc
  4669  0F79  3001               	movlw	1
  4670  0F7A  07E8               	addwf	___flmul@prod+1,f
  4671  0F7B  3000               	movlw	0
  4672  0F7C  1803               	skipnc
  4673  0F7D  3001               	movlw	1
  4674  0F7E  07E9               	addwf	___flmul@prod+2,f
  4675  0F7F  3000               	movlw	0
  4676  0F80  1803               	skipnc
  4677  0F81  3001               	movlw	1
  4678  0F82  07EA               	addwf	___flmul@prod+3,f
  4679  0F83                     l2642:	
  4680  0F83  1C6A               	btfss	___flmul@prod+3,0
  4681  0F84  2F86               	goto	u3061
  4682  0F85  2F87               	goto	u3060
  4683  0F86                     u3061:	
  4684  0F86  2FA6               	goto	l2648
  4685  0F87                     u3060:	
  4686  0F87                     l2644:	
  4687  0F87  0867               	movf	___flmul@prod,w
  4688  0F88  00DB               	movwf	??___flmul
  4689  0F89  0868               	movf	___flmul@prod+1,w
  4690  0F8A  00DC               	movwf	??___flmul+1
  4691  0F8B  0869               	movf	___flmul@prod+2,w
  4692  0F8C  00DD               	movwf	??___flmul+2
  4693  0F8D  086A               	movf	___flmul@prod+3,w
  4694  0F8E  00DE               	movwf	??___flmul+3
  4695  0F8F  3001               	movlw	1
  4696  0F90  00DF               	movwf	??___flmul+4
  4697  0F91                     u3075:	
  4698  0F91  0D5E               	rlf	??___flmul+3,w
  4699  0F92  0CDE               	rrf	??___flmul+3,f
  4700  0F93  0CDD               	rrf	??___flmul+2,f
  4701  0F94  0CDC               	rrf	??___flmul+1,f
  4702  0F95  0CDB               	rrf	??___flmul,f
  4703  0F96                     u3070:	
  4704  0F96  0BDF               	decfsz	??___flmul+4,f
  4705  0F97  2F91               	goto	u3075
  4706  0F98  085E               	movf	??___flmul+3,w
  4707  0F99  00EA               	movwf	___flmul@prod+3
  4708  0F9A  085D               	movf	??___flmul+2,w
  4709  0F9B  00E9               	movwf	___flmul@prod+2
  4710  0F9C  085C               	movf	??___flmul+1,w
  4711  0F9D  00E8               	movwf	___flmul@prod+1
  4712  0F9E  085B               	movf	??___flmul,w
  4713  0F9F  00E7               	movwf	___flmul@prod
  4714  0FA0                     l2646:	
  4715  0FA0  3001               	movlw	1
  4716  0FA1  07EB               	addwf	___flmul@temp,f
  4717  0FA2  1803               	skipnc
  4718  0FA3  0AEC               	incf	___flmul@temp+1,f
  4719  0FA4  3000               	movlw	0
  4720  0FA5  07EC               	addwf	___flmul@temp+1,f
  4721  0FA6                     l2648:	
  4722  0FA6  086C               	movf	___flmul@temp+1,w
  4723  0FA7  3A80               	xorlw	128
  4724  0FA8  00FF               	movwf	btemp+1
  4725  0FA9  3080               	movlw	128
  4726  0FAA  027F               	subwf	btemp+1,w
  4727  0FAB  1D03               	skipz
  4728  0FAC  2FAF               	goto	u3085
  4729  0FAD  30FF               	movlw	255
  4730  0FAE  026B               	subwf	___flmul@temp,w
  4731  0FAF                     u3085:	
  4732  0FAF  1C03               	skipc
  4733  0FB0  2FB2               	goto	u3081
  4734  0FB1  2FB3               	goto	u3080
  4735  0FB2                     u3081:	
  4736  0FB2  2FBE               	goto	l2652
  4737  0FB3                     u3080:	
  4738  0FB3                     l2650:	
  4739  0FB3  307F               	movlw	127
  4740  0FB4  1283               	bcf	3,5	;RP0=0, select bank0
  4741  0FB5  1303               	bcf	3,6	;RP1=0, select bank0
  4742  0FB6  00EA               	movwf	___flmul@prod+3
  4743  0FB7  3080               	movlw	128
  4744  0FB8  00E9               	movwf	___flmul@prod+2
  4745  0FB9  3000               	movlw	0
  4746  0FBA  00E8               	movwf	___flmul@prod+1
  4747  0FBB  3000               	movlw	0
  4748  0FBC  00E7               	movwf	___flmul@prod
  4749  0FBD  2FF3               	goto	l787
  4750  0FBE                     l2652:	
  4751  0FBE  1283               	bcf	3,5	;RP0=0, select bank0
  4752  0FBF  1303               	bcf	3,6	;RP1=0, select bank0
  4753  0FC0  086C               	movf	___flmul@temp+1,w
  4754  0FC1  3A80               	xorlw	128
  4755  0FC2  00FF               	movwf	btemp+1
  4756  0FC3  3080               	movlw	128
  4757  0FC4  027F               	subwf	btemp+1,w
  4758  0FC5  1D03               	skipz
  4759  0FC6  2FC9               	goto	u3095
  4760  0FC7  3001               	movlw	1
  4761  0FC8  026B               	subwf	___flmul@temp,w
  4762  0FC9                     u3095:	
  4763  0FC9  1803               	skipnc
  4764  0FCA  2FCC               	goto	u3091
  4765  0FCB  2FCD               	goto	u3090
  4766  0FCC                     u3091:	
  4767  0FCC  2FD9               	goto	l2658
  4768  0FCD                     u3090:	
  4769  0FCD                     l2654:	
  4770  0FCD  3000               	movlw	0
  4771  0FCE  1283               	bcf	3,5	;RP0=0, select bank0
  4772  0FCF  1303               	bcf	3,6	;RP1=0, select bank0
  4773  0FD0  00EA               	movwf	___flmul@prod+3
  4774  0FD1  3000               	movlw	0
  4775  0FD2  00E9               	movwf	___flmul@prod+2
  4776  0FD3  3000               	movlw	0
  4777  0FD4  00E8               	movwf	___flmul@prod+1
  4778  0FD5  3000               	movlw	0
  4779  0FD6  00E7               	movwf	___flmul@prod
  4780  0FD7                     l2656:	
  4781  0FD7  01E0               	clrf	___flmul@sign
  4782  0FD8  2FF3               	goto	l787
  4783  0FD9                     l2658:	
  4784  0FD9  1283               	bcf	3,5	;RP0=0, select bank0
  4785  0FDA  1303               	bcf	3,6	;RP1=0, select bank0
  4786  0FDB  086B               	movf	___flmul@temp,w
  4787  0FDC  00DB               	movwf	??___flmul
  4788  0FDD  085B               	movf	??___flmul,w
  4789  0FDE  00E6               	movwf	___flmul@bexp
  4790  0FDF  30FF               	movlw	255
  4791  0FE0  05E7               	andwf	___flmul@prod,f
  4792  0FE1  30FF               	movlw	255
  4793  0FE2  05E8               	andwf	___flmul@prod+1,f
  4794  0FE3  307F               	movlw	127
  4795  0FE4  05E9               	andwf	___flmul@prod+2,f
  4796  0FE5  3000               	movlw	0
  4797  0FE6  05EA               	andwf	___flmul@prod+3,f
  4798  0FE7                     l2660:	
  4799  0FE7  1C66               	btfss	___flmul@bexp,0
  4800  0FE8  2FEA               	goto	u3101
  4801  0FE9  2FEB               	goto	u3100
  4802  0FEA                     u3101:	
  4803  0FEA  2FEC               	goto	l2664
  4804  0FEB                     u3100:	
  4805  0FEB                     l2662:	
  4806  0FEB  17E9               	bsf	___flmul@prod+2,7
  4807  0FEC                     l2664:	
  4808  0FEC  0866               	movf	___flmul@bexp,w
  4809  0FED  00DB               	movwf	??___flmul
  4810  0FEE  1003               	clrc
  4811  0FEF  0C5B               	rrf	??___flmul,w
  4812  0FF0  00DC               	movwf	??___flmul+1
  4813  0FF1  085C               	movf	??___flmul+1,w
  4814  0FF2  00EA               	movwf	___flmul@prod+3
  4815  0FF3                     l787:	
  4816  0FF3  0860               	movf	___flmul@sign,w
  4817  0FF4  00DB               	movwf	??___flmul
  4818  0FF5  085B               	movf	??___flmul,w
  4819  0FF6  04EA               	iorwf	___flmul@prod+3,f
  4820  0FF7                     l2666:	
  4821  0FF7  086A               	movf	___flmul@prod+3,w
  4822  0FF8  00D6               	movwf	?___flmul+3
  4823  0FF9  0869               	movf	___flmul@prod+2,w
  4824  0FFA  00D5               	movwf	?___flmul+2
  4825  0FFB  0868               	movf	___flmul@prod+1,w
  4826  0FFC  00D4               	movwf	?___flmul+1
  4827  0FFD  0867               	movf	___flmul@prod,w
  4828  0FFE  00D3               	movwf	?___flmul
  4829  0FFF                     l775:	
  4830  0FFF  0008               	return
  4831  1000                     __end_of___flmul:	
  4832                           
  4833                           	psect	text6
  4834  1188                     __ptext6:	
  4835 ;; *************** function __Umul8_16 *****************
  4836 ;; Defined at:
  4837 ;;		line 4 in file "C:\Program Files (x86)\Microchip\xc8\v2.10\pic\sources\c90\common\Umul8_16.c"
  4838 ;; Parameters:    Size  Location     Type
  4839 ;;  multiplier      1    wreg     unsigned char 
  4840 ;;  multiplicand    1    0[COMMON] unsigned char 
  4841 ;; Auto vars:     Size  Location     Type
  4842 ;;  multiplier      1    8[COMMON] unsigned char 
  4843 ;;  word_mpld       2    6[COMMON] unsigned int 
  4844 ;;  product         2    4[COMMON] unsigned int 
  4845 ;; Return value:  Size  Location     Type
  4846 ;;                  2    0[COMMON] unsigned int 
  4847 ;; Registers used:
  4848 ;;		wreg, status,2, status,0
  4849 ;; Tracked objects:
  4850 ;;		On entry : 0/0
  4851 ;;		On exit  : 0/0
  4852 ;;		Unchanged: 0/0
  4853 ;; Data sizes:     COMMON   BANK0   BANK1   BANK3   BANK2
  4854 ;;      Params:         2       0       0       0       0
  4855 ;;      Locals:         5       0       0       0       0
  4856 ;;      Temps:          2       0       0       0       0
  4857 ;;      Totals:         9       0       0       0       0
  4858 ;;Total ram usage:        9 bytes
  4859 ;; Hardware stack levels used:    1
  4860 ;; This function calls:
  4861 ;;		Nothing
  4862 ;; This function is called by:
  4863 ;;		___flmul
  4864 ;; This function uses a non-reentrant model
  4865 ;;
  4866                           
  4867                           
  4868                           ;psect for function __Umul8_16
  4869  1188                     __Umul8_16:	
  4870                           
  4871                           ;incstack = 0
  4872                           ; Regs used in __Umul8_16: [wreg+status,2+status,0]
  4873                           ;__Umul8_16@multiplier stored from wreg
  4874  1188  00F8               	movwf	__Umul8_16@multiplier
  4875  1189                     l2260:	
  4876  1189  01F4               	clrf	__Umul8_16@product
  4877  118A  01F5               	clrf	__Umul8_16@product+1
  4878  118B                     l2262:	
  4879  118B  0870               	movf	__Umul8_16@multiplicand,w
  4880  118C  00F2               	movwf	??__Umul8_16
  4881  118D  01F3               	clrf	??__Umul8_16+1
  4882  118E  0872               	movf	??__Umul8_16,w
  4883  118F  00F6               	movwf	__Umul8_16@word_mpld
  4884  1190  0873               	movf	??__Umul8_16+1,w
  4885  1191  00F7               	movwf	__Umul8_16@word_mpld+1
  4886  1192                     l2264:	
  4887  1192  1C78               	btfss	__Umul8_16@multiplier,0
  4888  1193  2995               	goto	u2141
  4889  1194  2996               	goto	u2140
  4890  1195                     u2141:	
  4891  1195  299C               	goto	l848
  4892  1196                     u2140:	
  4893  1196                     l2266:	
  4894  1196  0876               	movf	__Umul8_16@word_mpld,w
  4895  1197  07F4               	addwf	__Umul8_16@product,f
  4896  1198  1803               	skipnc
  4897  1199  0AF5               	incf	__Umul8_16@product+1,f
  4898  119A  0877               	movf	__Umul8_16@word_mpld+1,w
  4899  119B  07F5               	addwf	__Umul8_16@product+1,f
  4900  119C                     l848:	
  4901  119C  3001               	movlw	1
  4902  119D                     u2155:	
  4903  119D  1003               	clrc
  4904  119E  0DF6               	rlf	__Umul8_16@word_mpld,f
  4905  119F  0DF7               	rlf	__Umul8_16@word_mpld+1,f
  4906  11A0  3EFF               	addlw	-1
  4907  11A1  1D03               	skipz
  4908  11A2  299D               	goto	u2155
  4909  11A3  1003               	clrc
  4910  11A4  0CF8               	rrf	__Umul8_16@multiplier,f
  4911  11A5                     l2268:	
  4912  11A5  0878               	movf	__Umul8_16@multiplier,w
  4913  11A6  1D03               	btfss	3,2
  4914  11A7  29A9               	goto	u2161
  4915  11A8  29AA               	goto	u2160
  4916  11A9                     u2161:	
  4917  11A9  2992               	goto	l2264
  4918  11AA                     u2160:	
  4919  11AA                     l2270:	
  4920  11AA  0875               	movf	__Umul8_16@product+1,w
  4921  11AB  00F1               	movwf	?__Umul8_16+1
  4922  11AC  0874               	movf	__Umul8_16@product,w
  4923  11AD  00F0               	movwf	?__Umul8_16
  4924  11AE                     l850:	
  4925  11AE  0008               	return
  4926  11AF                     __end_of__Umul8_16:	
  4927                           
  4928                           	psect	text7
  4929  0A17                     __ptext7:	
  4930 ;; *************** function ___fladd *****************
  4931 ;; Defined at:
  4932 ;;		line 10 in file "C:\Program Files (x86)\Microchip\xc8\v2.10\pic\sources\c90\common\sprcadd.c"
  4933 ;; Parameters:    Size  Location     Type
  4934 ;;  b               4   31[BANK0 ] unsigned int 
  4935 ;;  a               4   35[BANK0 ] unsigned int 
  4936 ;; Auto vars:     Size  Location     Type
  4937 ;;  grs             1   50[BANK0 ] unsigned char 
  4938 ;;  bexp            1   49[BANK0 ] unsigned char 
  4939 ;;  aexp            1   48[BANK0 ] unsigned char 
  4940 ;;  signs           1   47[BANK0 ] unsigned char 
  4941 ;; Return value:  Size  Location     Type
  4942 ;;                  4   31[BANK0 ] unsigned char 
  4943 ;; Registers used:
  4944 ;;		wreg, status,2, status,0, btemp+1
  4945 ;; Tracked objects:
  4946 ;;		On entry : 0/0
  4947 ;;		On exit  : 0/0
  4948 ;;		Unchanged: 0/0
  4949 ;; Data sizes:     COMMON   BANK0   BANK1   BANK3   BANK2
  4950 ;;      Params:         0       8       0       0       0
  4951 ;;      Locals:         0       4       0       0       0
  4952 ;;      Temps:          0       8       0       0       0
  4953 ;;      Totals:         0      20       0       0       0
  4954 ;;Total ram usage:       20 bytes
  4955 ;; Hardware stack levels used:    1
  4956 ;; This function calls:
  4957 ;;		Nothing
  4958 ;; This function is called by:
  4959 ;;		_main
  4960 ;;		_log
  4961 ;;		_eval_poly
  4962 ;; This function uses a non-reentrant model
  4963 ;;
  4964                           
  4965                           
  4966                           ;psect for function ___fladd
  4967  0A17                     ___fladd:	
  4968  0A17                     l2336:	
  4969                           ;incstack = 0
  4970                           ; Regs used in ___fladd: [wreg+status,2+status,0+btemp+1]
  4971                           
  4972  0A17  1283               	bcf	3,5	;RP0=0, select bank0
  4973  0A18  1303               	bcf	3,6	;RP1=0, select bank0
  4974  0A19  0842               	movf	___fladd@b+3,w
  4975  0A1A  3980               	andlw	128
  4976  0A1B  00C7               	movwf	??___fladd
  4977  0A1C  0847               	movf	??___fladd,w
  4978  0A1D  00CF               	movwf	___fladd@signs
  4979  0A1E                     l2338:	
  4980  0A1E  0842               	movf	___fladd@b+3,w
  4981  0A1F  00C7               	movwf	??___fladd
  4982  0A20  0747               	addwf	??___fladd,w
  4983  0A21  00C8               	movwf	??___fladd+1
  4984  0A22  0848               	movf	??___fladd+1,w
  4985  0A23  00D1               	movwf	___fladd@bexp
  4986  0A24                     l2340:	
  4987  0A24  1FC1               	btfss	___fladd@b+2,7
  4988  0A25  2A27               	goto	u2281
  4989  0A26  2A28               	goto	u2280
  4990  0A27                     u2281:	
  4991  0A27  2A29               	goto	l2344
  4992  0A28                     u2280:	
  4993  0A28                     l2342:	
  4994  0A28  1451               	bsf	___fladd@bexp,0
  4995  0A29                     l2344:	
  4996  0A29  0851               	movf	___fladd@bexp,w
  4997  0A2A  1903               	btfsc	3,2
  4998  0A2B  2A2D               	goto	u2291
  4999  0A2C  2A2E               	goto	u2290
  5000  0A2D                     u2291:	
  5001  0A2D  2A3E               	goto	l2354
  5002  0A2E                     u2290:	
  5003  0A2E                     l2346:	
  5004  0A2E  0A51               	incf	___fladd@bexp,w
  5005  0A2F  1D03               	btfss	3,2
  5006  0A30  2A32               	goto	u2301
  5007  0A31  2A33               	goto	u2300
  5008  0A32                     u2301:	
  5009  0A32  2A3B               	goto	l2350
  5010  0A33                     u2300:	
  5011  0A33                     l2348:	
  5012  0A33  3000               	movlw	0
  5013  0A34  00C2               	movwf	___fladd@b+3
  5014  0A35  3000               	movlw	0
  5015  0A36  00C1               	movwf	___fladd@b+2
  5016  0A37  3000               	movlw	0
  5017  0A38  00C0               	movwf	___fladd@b+1
  5018  0A39  3000               	movlw	0
  5019  0A3A  00BF               	movwf	___fladd@b
  5020  0A3B                     l2350:	
  5021  0A3B  17C1               	bsf	___fladd@b+2,7
  5022  0A3C                     l2352:	
  5023  0A3C  01C2               	clrf	___fladd@b+3
  5024  0A3D  2A46               	goto	l2356
  5025  0A3E                     l2354:	
  5026  0A3E  3000               	movlw	0
  5027  0A3F  00C2               	movwf	___fladd@b+3
  5028  0A40  3000               	movlw	0
  5029  0A41  00C1               	movwf	___fladd@b+2
  5030  0A42  3000               	movlw	0
  5031  0A43  00C0               	movwf	___fladd@b+1
  5032  0A44  3000               	movlw	0
  5033  0A45  00BF               	movwf	___fladd@b
  5034  0A46                     l2356:	
  5035  0A46  0846               	movf	___fladd@a+3,w
  5036  0A47  3980               	andlw	128
  5037  0A48  00C7               	movwf	??___fladd
  5038  0A49  0847               	movf	??___fladd,w
  5039  0A4A  00D0               	movwf	___fladd@aexp
  5040  0A4B                     l2358:	
  5041  0A4B  0850               	movf	___fladd@aexp,w
  5042  0A4C  064F               	xorwf	___fladd@signs,w
  5043  0A4D  1903               	skipnz
  5044  0A4E  2A50               	goto	u2311
  5045  0A4F  2A51               	goto	u2310
  5046  0A50                     u2311:	
  5047  0A50  2A52               	goto	l2362
  5048  0A51                     u2310:	
  5049  0A51                     l2360:	
  5050  0A51  174F               	bsf	___fladd@signs,6
  5051  0A52                     l2362:	
  5052  0A52  0846               	movf	___fladd@a+3,w
  5053  0A53  00C7               	movwf	??___fladd
  5054  0A54  0747               	addwf	??___fladd,w
  5055  0A55  00C8               	movwf	??___fladd+1
  5056  0A56  0848               	movf	??___fladd+1,w
  5057  0A57  00D0               	movwf	___fladd@aexp
  5058  0A58                     l2364:	
  5059  0A58  1FC5               	btfss	___fladd@a+2,7
  5060  0A59  2A5B               	goto	u2321
  5061  0A5A  2A5C               	goto	u2320
  5062  0A5B                     u2321:	
  5063  0A5B  2A5D               	goto	l2368
  5064  0A5C                     u2320:	
  5065  0A5C                     l2366:	
  5066  0A5C  1450               	bsf	___fladd@aexp,0
  5067  0A5D                     l2368:	
  5068  0A5D  0850               	movf	___fladd@aexp,w
  5069  0A5E  1903               	btfsc	3,2
  5070  0A5F  2A61               	goto	u2331
  5071  0A60  2A62               	goto	u2330
  5072  0A61                     u2331:	
  5073  0A61  2A72               	goto	l2378
  5074  0A62                     u2330:	
  5075  0A62                     l2370:	
  5076  0A62  0A50               	incf	___fladd@aexp,w
  5077  0A63  1D03               	btfss	3,2
  5078  0A64  2A66               	goto	u2341
  5079  0A65  2A67               	goto	u2340
  5080  0A66                     u2341:	
  5081  0A66  2A6F               	goto	l2374
  5082  0A67                     u2340:	
  5083  0A67                     l2372:	
  5084  0A67  3000               	movlw	0
  5085  0A68  00C6               	movwf	___fladd@a+3
  5086  0A69  3000               	movlw	0
  5087  0A6A  00C5               	movwf	___fladd@a+2
  5088  0A6B  3000               	movlw	0
  5089  0A6C  00C4               	movwf	___fladd@a+1
  5090  0A6D  3000               	movlw	0
  5091  0A6E  00C3               	movwf	___fladd@a
  5092  0A6F                     l2374:	
  5093  0A6F  17C5               	bsf	___fladd@a+2,7
  5094  0A70                     l2376:	
  5095  0A70  01C6               	clrf	___fladd@a+3
  5096  0A71  2A7A               	goto	l679
  5097  0A72                     l2378:	
  5098  0A72  3000               	movlw	0
  5099  0A73  00C6               	movwf	___fladd@a+3
  5100  0A74  3000               	movlw	0
  5101  0A75  00C5               	movwf	___fladd@a+2
  5102  0A76  3000               	movlw	0
  5103  0A77  00C4               	movwf	___fladd@a+1
  5104  0A78  3000               	movlw	0
  5105  0A79  00C3               	movwf	___fladd@a
  5106  0A7A                     l679:	
  5107  0A7A  0851               	movf	___fladd@bexp,w
  5108  0A7B  0250               	subwf	___fladd@aexp,w
  5109  0A7C  1803               	skipnc
  5110  0A7D  2A7F               	goto	u2351
  5111  0A7E  2A80               	goto	u2350
  5112  0A7F                     u2351:	
  5113  0A7F  2AC4               	goto	l2414
  5114  0A80                     u2350:	
  5115  0A80                     l2380:	
  5116  0A80  1F4F               	btfss	___fladd@signs,6
  5117  0A81  2A83               	goto	u2361
  5118  0A82  2A84               	goto	u2360
  5119  0A83                     u2361:	
  5120  0A83  2A88               	goto	l2384
  5121  0A84                     u2360:	
  5122  0A84                     l2382:	
  5123  0A84  3080               	movlw	128
  5124  0A85  00C7               	movwf	??___fladd
  5125  0A86  0847               	movf	??___fladd,w
  5126  0A87  06CF               	xorwf	___fladd@signs,f
  5127  0A88                     l2384:	
  5128  0A88  0851               	movf	___fladd@bexp,w
  5129  0A89  00C7               	movwf	??___fladd
  5130  0A8A  0847               	movf	??___fladd,w
  5131  0A8B  00D2               	movwf	___fladd@grs
  5132  0A8C                     l2386:	
  5133  0A8C  0850               	movf	___fladd@aexp,w
  5134  0A8D  00C7               	movwf	??___fladd
  5135  0A8E  0847               	movf	??___fladd,w
  5136  0A8F  00D1               	movwf	___fladd@bexp
  5137  0A90                     l2388:	
  5138  0A90  0852               	movf	___fladd@grs,w
  5139  0A91  00C7               	movwf	??___fladd
  5140  0A92  0847               	movf	??___fladd,w
  5141  0A93  00D0               	movwf	___fladd@aexp
  5142  0A94                     l2390:	
  5143  0A94  083F               	movf	___fladd@b,w
  5144  0A95  00C7               	movwf	??___fladd
  5145  0A96  0847               	movf	??___fladd,w
  5146  0A97  00D2               	movwf	___fladd@grs
  5147  0A98                     l2392:	
  5148  0A98  0843               	movf	___fladd@a,w
  5149  0A99  00C7               	movwf	??___fladd
  5150  0A9A  0847               	movf	??___fladd,w
  5151  0A9B  00BF               	movwf	___fladd@b
  5152  0A9C                     l2394:	
  5153  0A9C  0852               	movf	___fladd@grs,w
  5154  0A9D  00C7               	movwf	??___fladd
  5155  0A9E  0847               	movf	??___fladd,w
  5156  0A9F  00C3               	movwf	___fladd@a
  5157  0AA0                     l2396:	
  5158  0AA0  0840               	movf	___fladd@b+1,w
  5159  0AA1  00C7               	movwf	??___fladd
  5160  0AA2  0847               	movf	??___fladd,w
  5161  0AA3  00D2               	movwf	___fladd@grs
  5162  0AA4                     l2398:	
  5163  0AA4  0844               	movf	___fladd@a+1,w
  5164  0AA5  00C7               	movwf	??___fladd
  5165  0AA6  0847               	movf	??___fladd,w
  5166  0AA7  00C0               	movwf	___fladd@b+1
  5167  0AA8                     l2400:	
  5168  0AA8  0852               	movf	___fladd@grs,w
  5169  0AA9  00C7               	movwf	??___fladd
  5170  0AAA  0847               	movf	??___fladd,w
  5171  0AAB  00C4               	movwf	___fladd@a+1
  5172  0AAC                     l2402:	
  5173  0AAC  0841               	movf	___fladd@b+2,w
  5174  0AAD  00C7               	movwf	??___fladd
  5175  0AAE  0847               	movf	??___fladd,w
  5176  0AAF  00D2               	movwf	___fladd@grs
  5177  0AB0                     l2404:	
  5178  0AB0  0845               	movf	___fladd@a+2,w
  5179  0AB1  00C7               	movwf	??___fladd
  5180  0AB2  0847               	movf	??___fladd,w
  5181  0AB3  00C1               	movwf	___fladd@b+2
  5182  0AB4                     l2406:	
  5183  0AB4  0852               	movf	___fladd@grs,w
  5184  0AB5  00C7               	movwf	??___fladd
  5185  0AB6  0847               	movf	??___fladd,w
  5186  0AB7  00C5               	movwf	___fladd@a+2
  5187  0AB8                     l2408:	
  5188  0AB8  0842               	movf	___fladd@b+3,w
  5189  0AB9  00C7               	movwf	??___fladd
  5190  0ABA  0847               	movf	??___fladd,w
  5191  0ABB  00D2               	movwf	___fladd@grs
  5192  0ABC                     l2410:	
  5193  0ABC  0846               	movf	___fladd@a+3,w
  5194  0ABD  00C7               	movwf	??___fladd
  5195  0ABE  0847               	movf	??___fladd,w
  5196  0ABF  00C2               	movwf	___fladd@b+3
  5197  0AC0                     l2412:	
  5198  0AC0  0852               	movf	___fladd@grs,w
  5199  0AC1  00C7               	movwf	??___fladd
  5200  0AC2  0847               	movf	??___fladd,w
  5201  0AC3  00C6               	movwf	___fladd@a+3
  5202  0AC4                     l2414:	
  5203  0AC4  01D2               	clrf	___fladd@grs
  5204  0AC5                     l2416:	
  5205  0AC5  0850               	movf	___fladd@aexp,w
  5206  0AC6  00C7               	movwf	??___fladd
  5207  0AC7  01C8               	clrf	??___fladd+1
  5208  0AC8  0848               	movf	??___fladd+1,w
  5209  0AC9  00CA               	movwf	??___fladd+3
  5210  0ACA  0851               	movf	___fladd@bexp,w
  5211  0ACB  0247               	subwf	??___fladd,w
  5212  0ACC  00C9               	movwf	??___fladd+2
  5213  0ACD  1C03               	skipc
  5214  0ACE  03CA               	decf	??___fladd+3,f
  5215  0ACF  084A               	movf	??___fladd+3,w
  5216  0AD0  3A80               	xorlw	128
  5217  0AD1  00FF               	movwf	btemp+1
  5218  0AD2  3080               	movlw	128
  5219  0AD3  027F               	subwf	btemp+1,w
  5220  0AD4  1D03               	skipz
  5221  0AD5  2AD8               	goto	u2375
  5222  0AD6  301A               	movlw	26
  5223  0AD7  0249               	subwf	??___fladd+2,w
  5224  0AD8                     u2375:	
  5225  0AD8  1C03               	skipc
  5226  0AD9  2ADB               	goto	u2371
  5227  0ADA  2ADC               	goto	u2370
  5228  0ADB                     u2371:	
  5229  0ADB  2B19               	goto	l2432
  5230  0ADC                     u2370:	
  5231  0ADC                     l2418:	
  5232  0ADC  1283               	bcf	3,5	;RP0=0, select bank0
  5233  0ADD  1303               	bcf	3,6	;RP1=0, select bank0
  5234  0ADE  0842               	movf	___fladd@b+3,w
  5235  0ADF  0441               	iorwf	___fladd@b+2,w
  5236  0AE0  0440               	iorwf	___fladd@b+1,w
  5237  0AE1  043F               	iorwf	___fladd@b,w
  5238  0AE2  1D03               	skipz
  5239  0AE3  2AE5               	goto	u2381
  5240  0AE4  2AE7               	goto	u2380
  5241  0AE5                     u2381:	
  5242  0AE5  3001               	movlw	1
  5243  0AE6  2AE8               	goto	u2390
  5244  0AE7                     u2380:	
  5245  0AE7  3000               	movlw	0
  5246  0AE8                     u2390:	
  5247  0AE8  00C7               	movwf	??___fladd
  5248  0AE9  0847               	movf	??___fladd,w
  5249  0AEA  00D2               	movwf	___fladd@grs
  5250  0AEB  3000               	movlw	0
  5251  0AEC  00C2               	movwf	___fladd@b+3
  5252  0AED  3000               	movlw	0
  5253  0AEE  00C1               	movwf	___fladd@b+2
  5254  0AEF  3000               	movlw	0
  5255  0AF0  00C0               	movwf	___fladd@b+1
  5256  0AF1  3000               	movlw	0
  5257  0AF2  00BF               	movwf	___fladd@b
  5258  0AF3  0850               	movf	___fladd@aexp,w
  5259  0AF4  00C7               	movwf	??___fladd
  5260  0AF5  0847               	movf	??___fladd,w
  5261  0AF6  00D1               	movwf	___fladd@bexp
  5262  0AF7  2B21               	goto	l683
  5263  0AF8                     l685:	
  5264  0AF8  1C52               	btfss	___fladd@grs,0
  5265  0AF9  2AFB               	goto	u2401
  5266  0AFA  2AFC               	goto	u2400
  5267  0AFB                     u2401:	
  5268  0AFB  2B05               	goto	l2422
  5269  0AFC                     u2400:	
  5270  0AFC                     l2420:	
  5271  0AFC  0852               	movf	___fladd@grs,w
  5272  0AFD  00C7               	movwf	??___fladd
  5273  0AFE  1003               	clrc
  5274  0AFF  0C47               	rrf	??___fladd,w
  5275  0B00  3801               	iorlw	1
  5276  0B01  00C8               	movwf	??___fladd+1
  5277  0B02  0848               	movf	??___fladd+1,w
  5278  0B03  00D2               	movwf	___fladd@grs
  5279  0B04  2B07               	goto	l2424
  5280  0B05                     l2422:	
  5281  0B05  1003               	clrc
  5282  0B06  0CD2               	rrf	___fladd@grs,f
  5283  0B07                     l2424:	
  5284  0B07  1C3F               	btfss	___fladd@b,0
  5285  0B08  2B0A               	goto	u2411
  5286  0B09  2B0B               	goto	u2410
  5287  0B0A                     u2411:	
  5288  0B0A  2B0C               	goto	l2428
  5289  0B0B                     u2410:	
  5290  0B0B                     l2426:	
  5291  0B0B  17D2               	bsf	___fladd@grs,7
  5292  0B0C                     l2428:	
  5293  0B0C  3001               	movlw	1
  5294  0B0D  00C7               	movwf	??___fladd
  5295  0B0E                     u2425:	
  5296  0B0E  0D42               	rlf	___fladd@b+3,w
  5297  0B0F  0CC2               	rrf	___fladd@b+3,f
  5298  0B10  0CC1               	rrf	___fladd@b+2,f
  5299  0B11  0CC0               	rrf	___fladd@b+1,f
  5300  0B12  0CBF               	rrf	___fladd@b,f
  5301  0B13  0BC7               	decfsz	??___fladd& (0+127),f
  5302  0B14  2B0E               	goto	u2425
  5303  0B15                     l2430:	
  5304  0B15  3001               	movlw	1
  5305  0B16  00C7               	movwf	??___fladd
  5306  0B17  0847               	movf	??___fladd,w
  5307  0B18  07D1               	addwf	___fladd@bexp,f
  5308  0B19                     l2432:	
  5309  0B19  1283               	bcf	3,5	;RP0=0, select bank0
  5310  0B1A  1303               	bcf	3,6	;RP1=0, select bank0
  5311  0B1B  0850               	movf	___fladd@aexp,w
  5312  0B1C  0251               	subwf	___fladd@bexp,w
  5313  0B1D  1C03               	skipc
  5314  0B1E  2B20               	goto	u2431
  5315  0B1F  2B21               	goto	u2430
  5316  0B20                     u2431:	
  5317  0B20  2AF8               	goto	l685
  5318  0B21                     u2430:	
  5319  0B21                     l683:	
  5320  0B21  1B4F               	btfsc	___fladd@signs,6
  5321  0B22  2B24               	goto	u2441
  5322  0B23  2B25               	goto	u2440
  5323  0B24                     u2441:	
  5324  0B24  2B70               	goto	l2458
  5325  0B25                     u2440:	
  5326  0B25                     l2434:	
  5327  0B25  0851               	movf	___fladd@bexp,w
  5328  0B26  1D03               	btfss	3,2
  5329  0B27  2B29               	goto	u2451
  5330  0B28  2B2A               	goto	u2450
  5331  0B29                     u2451:	
  5332  0B29  2B33               	goto	l2440
  5333  0B2A                     u2450:	
  5334  0B2A                     l2436:	
  5335  0B2A  3000               	movlw	0
  5336  0B2B  00C2               	movwf	?___fladd+3
  5337  0B2C  3000               	movlw	0
  5338  0B2D  00C1               	movwf	?___fladd+2
  5339  0B2E  3000               	movlw	0
  5340  0B2F  00C0               	movwf	?___fladd+1
  5341  0B30  3000               	movlw	0
  5342  0B31  00BF               	movwf	?___fladd
  5343  0B32  2C9E               	goto	l692
  5344  0B33                     l2440:	
  5345  0B33  0843               	movf	___fladd@a,w
  5346  0B34  07BF               	addwf	___fladd@b,f
  5347  0B35  0844               	movf	___fladd@a+1,w
  5348  0B36  1103               	clrz
  5349  0B37  1803               	skipnc
  5350  0B38  3E01               	addlw	1
  5351  0B39  1903               	skipnz
  5352  0B3A  2B3C               	goto	u2461
  5353  0B3B  07C0               	addwf	___fladd@b+1,f
  5354  0B3C                     u2461:	
  5355  0B3C  0845               	movf	___fladd@a+2,w
  5356  0B3D  1103               	clrz
  5357  0B3E  1803               	skipnc
  5358  0B3F  3E01               	addlw	1
  5359  0B40  1903               	skipnz
  5360  0B41  2B43               	goto	u2462
  5361  0B42  07C1               	addwf	___fladd@b+2,f
  5362  0B43                     u2462:	
  5363  0B43  0846               	movf	___fladd@a+3,w
  5364  0B44  1103               	clrz
  5365  0B45  1803               	skipnc
  5366  0B46  3E01               	addlw	1
  5367  0B47  1903               	skipnz
  5368  0B48  2B4A               	goto	u2463
  5369  0B49  07C2               	addwf	___fladd@b+3,f
  5370  0B4A                     u2463:	
  5371  0B4A                     l2442:	
  5372  0B4A  1C42               	btfss	___fladd@b+3,0
  5373  0B4B  2B4D               	goto	u2471
  5374  0B4C  2B4E               	goto	u2470
  5375  0B4D                     u2471:	
  5376  0B4D  2C24               	goto	l2492
  5377  0B4E                     u2470:	
  5378  0B4E                     l2444:	
  5379  0B4E  1C52               	btfss	___fladd@grs,0
  5380  0B4F  2B51               	goto	u2481
  5381  0B50  2B52               	goto	u2480
  5382  0B51                     u2481:	
  5383  0B51  2B5B               	goto	l2448
  5384  0B52                     u2480:	
  5385  0B52                     l2446:	
  5386  0B52  0852               	movf	___fladd@grs,w
  5387  0B53  00C7               	movwf	??___fladd
  5388  0B54  1003               	clrc
  5389  0B55  0C47               	rrf	??___fladd,w
  5390  0B56  3801               	iorlw	1
  5391  0B57  00C8               	movwf	??___fladd+1
  5392  0B58  0848               	movf	??___fladd+1,w
  5393  0B59  00D2               	movwf	___fladd@grs
  5394  0B5A  2B5D               	goto	l2450
  5395  0B5B                     l2448:	
  5396  0B5B  1003               	clrc
  5397  0B5C  0CD2               	rrf	___fladd@grs,f
  5398  0B5D                     l2450:	
  5399  0B5D  1C3F               	btfss	___fladd@b,0
  5400  0B5E  2B60               	goto	u2491
  5401  0B5F  2B61               	goto	u2490
  5402  0B60                     u2491:	
  5403  0B60  2B62               	goto	l2454
  5404  0B61                     u2490:	
  5405  0B61                     l2452:	
  5406  0B61  17D2               	bsf	___fladd@grs,7
  5407  0B62                     l2454:	
  5408  0B62  3001               	movlw	1
  5409  0B63  00C7               	movwf	??___fladd
  5410  0B64                     u2505:	
  5411  0B64  0D42               	rlf	___fladd@b+3,w
  5412  0B65  0CC2               	rrf	___fladd@b+3,f
  5413  0B66  0CC1               	rrf	___fladd@b+2,f
  5414  0B67  0CC0               	rrf	___fladd@b+1,f
  5415  0B68  0CBF               	rrf	___fladd@b,f
  5416  0B69  0BC7               	decfsz	??___fladd& (0+127),f
  5417  0B6A  2B64               	goto	u2505
  5418  0B6B                     l2456:	
  5419  0B6B  3001               	movlw	1
  5420  0B6C  00C7               	movwf	??___fladd
  5421  0B6D  0847               	movf	??___fladd,w
  5422  0B6E  07D1               	addwf	___fladd@bexp,f
  5423  0B6F  2C24               	goto	l2492
  5424  0B70                     l2458:	
  5425  0B70  0842               	movf	___fladd@b+3,w
  5426  0B71  3A80               	xorlw	128
  5427  0B72  00FF               	movwf	btemp+1
  5428  0B73  0846               	movf	___fladd@a+3,w
  5429  0B74  3A80               	xorlw	128
  5430  0B75  027F               	subwf	btemp+1,w
  5431  0B76  1D03               	skipz
  5432  0B77  2B82               	goto	u2513
  5433  0B78  0845               	movf	___fladd@a+2,w
  5434  0B79  0241               	subwf	___fladd@b+2,w
  5435  0B7A  1D03               	skipz
  5436  0B7B  2B82               	goto	u2513
  5437  0B7C  0844               	movf	___fladd@a+1,w
  5438  0B7D  0240               	subwf	___fladd@b+1,w
  5439  0B7E  1D03               	skipz
  5440  0B7F  2B82               	goto	u2513
  5441  0B80  0843               	movf	___fladd@a,w
  5442  0B81  023F               	subwf	___fladd@b,w
  5443  0B82                     u2513:	
  5444  0B82  1803               	skipnc
  5445  0B83  2B85               	goto	u2511
  5446  0B84  2B86               	goto	u2510
  5447  0B85                     u2511:	
  5448  0B85  2BDE               	goto	l2468
  5449  0B86                     u2510:	
  5450  0B86                     l2460:	
  5451  0B86  30FF               	movlw	255
  5452  0B87  00C7               	movwf	??___fladd
  5453  0B88  30FF               	movlw	255
  5454  0B89  00C8               	movwf	??___fladd+1
  5455  0B8A  30FF               	movlw	255
  5456  0B8B  00C9               	movwf	??___fladd+2
  5457  0B8C  30FF               	movlw	255
  5458  0B8D  00CA               	movwf	??___fladd+3
  5459  0B8E  0843               	movf	___fladd@a,w
  5460  0B8F  00CB               	movwf	??___fladd+4
  5461  0B90  0844               	movf	___fladd@a+1,w
  5462  0B91  00CC               	movwf	??___fladd+5
  5463  0B92  0845               	movf	___fladd@a+2,w
  5464  0B93  00CD               	movwf	??___fladd+6
  5465  0B94  0846               	movf	___fladd@a+3,w
  5466  0B95  00CE               	movwf	??___fladd+7
  5467  0B96  083F               	movf	___fladd@b,w
  5468  0B97  02CB               	subwf	??___fladd+4,f
  5469  0B98  0840               	movf	___fladd@b+1,w
  5470  0B99  1C03               	skipc
  5471  0B9A  0F40               	incfsz	___fladd@b+1,w
  5472  0B9B  2B9D               	goto	u2521
  5473  0B9C  2B9E               	goto	u2522
  5474  0B9D                     u2521:	
  5475  0B9D  02CC               	subwf	??___fladd+5,f
  5476  0B9E                     u2522:	
  5477  0B9E  0841               	movf	___fladd@b+2,w
  5478  0B9F  1C03               	skipc
  5479  0BA0  0F41               	incfsz	___fladd@b+2,w
  5480  0BA1  2BA3               	goto	u2523
  5481  0BA2  2BA4               	goto	u2524
  5482  0BA3                     u2523:	
  5483  0BA3  02CD               	subwf	??___fladd+6,f
  5484  0BA4                     u2524:	
  5485  0BA4  0842               	movf	___fladd@b+3,w
  5486  0BA5  1C03               	skipc
  5487  0BA6  0F42               	incfsz	___fladd@b+3,w
  5488  0BA7  2BA9               	goto	u2525
  5489  0BA8  2BAA               	goto	u2526
  5490  0BA9                     u2525:	
  5491  0BA9  02CE               	subwf	??___fladd+7,f
  5492  0BAA                     u2526:	
  5493  0BAA  084B               	movf	??___fladd+4,w
  5494  0BAB  07C7               	addwf	??___fladd,f
  5495  0BAC  084C               	movf	??___fladd+5,w
  5496  0BAD  1803               	skipnc
  5497  0BAE  0F4C               	incfsz	??___fladd+5,w
  5498  0BAF  2BB1               	goto	u2530
  5499  0BB0  2BB2               	goto	u2531
  5500  0BB1                     u2530:	
  5501  0BB1  07C8               	addwf	??___fladd+1,f
  5502  0BB2                     u2531:	
  5503  0BB2  084D               	movf	??___fladd+6,w
  5504  0BB3  1803               	skipnc
  5505  0BB4  0F4D               	incfsz	??___fladd+6,w
  5506  0BB5  2BB7               	goto	u2532
  5507  0BB6  2BB8               	goto	u2533
  5508  0BB7                     u2532:	
  5509  0BB7  07C9               	addwf	??___fladd+2,f
  5510  0BB8                     u2533:	
  5511  0BB8  084E               	movf	??___fladd+7,w
  5512  0BB9  1803               	skipnc
  5513  0BBA  0A4E               	incf	??___fladd+7,w
  5514  0BBB  07CA               	addwf	??___fladd+3,f
  5515  0BBC  084A               	movf	??___fladd+3,w
  5516  0BBD  00C2               	movwf	___fladd@b+3
  5517  0BBE  0849               	movf	??___fladd+2,w
  5518  0BBF  00C1               	movwf	___fladd@b+2
  5519  0BC0  0848               	movf	??___fladd+1,w
  5520  0BC1  00C0               	movwf	___fladd@b+1
  5521  0BC2  0847               	movf	??___fladd,w
  5522  0BC3  00BF               	movwf	___fladd@b
  5523  0BC4                     l2462:	
  5524  0BC4  3080               	movlw	128
  5525  0BC5  00C7               	movwf	??___fladd
  5526  0BC6  0847               	movf	??___fladd,w
  5527  0BC7  06CF               	xorwf	___fladd@signs,f
  5528  0BC8  09D2               	comf	___fladd@grs,f
  5529  0BC9  0AD2               	incf	___fladd@grs,f
  5530  0BCA                     l2464:	
  5531  0BCA  0852               	movf	___fladd@grs,w
  5532  0BCB  1D03               	btfss	3,2
  5533  0BCC  2BCE               	goto	u2541
  5534  0BCD  2BCF               	goto	u2540
  5535  0BCE                     u2541:	
  5536  0BCE  2BEC               	goto	l700
  5537  0BCF                     u2540:	
  5538  0BCF                     l2466:	
  5539  0BCF  3001               	movlw	1
  5540  0BD0  07BF               	addwf	___fladd@b,f
  5541  0BD1  3000               	movlw	0
  5542  0BD2  1803               	skipnc
  5543  0BD3  3001               	movlw	1
  5544  0BD4  07C0               	addwf	___fladd@b+1,f
  5545  0BD5  3000               	movlw	0
  5546  0BD6  1803               	skipnc
  5547  0BD7  3001               	movlw	1
  5548  0BD8  07C1               	addwf	___fladd@b+2,f
  5549  0BD9  3000               	movlw	0
  5550  0BDA  1803               	skipnc
  5551  0BDB  3001               	movlw	1
  5552  0BDC  07C2               	addwf	___fladd@b+3,f
  5553  0BDD  2BEC               	goto	l700
  5554  0BDE                     l2468:	
  5555  0BDE  0843               	movf	___fladd@a,w
  5556  0BDF  02BF               	subwf	___fladd@b,f
  5557  0BE0  0844               	movf	___fladd@a+1,w
  5558  0BE1  1C03               	skipc
  5559  0BE2  0F44               	incfsz	___fladd@a+1,w
  5560  0BE3  02C0               	subwf	___fladd@b+1,f
  5561  0BE4  0845               	movf	___fladd@a+2,w
  5562  0BE5  1C03               	skipc
  5563  0BE6  0F45               	incfsz	___fladd@a+2,w
  5564  0BE7  02C1               	subwf	___fladd@b+2,f
  5565  0BE8  0846               	movf	___fladd@a+3,w
  5566  0BE9  1C03               	skipc
  5567  0BEA  0F46               	incfsz	___fladd@a+3,w
  5568  0BEB  02C2               	subwf	___fladd@b+3,f
  5569  0BEC                     l700:	
  5570  0BEC  0842               	movf	___fladd@b+3,w
  5571  0BED  0441               	iorwf	___fladd@b+2,w
  5572  0BEE  0440               	iorwf	___fladd@b+1,w
  5573  0BEF  043F               	iorwf	___fladd@b,w
  5574  0BF0  1D03               	skipz
  5575  0BF1  2BF3               	goto	u2551
  5576  0BF2  2BF4               	goto	u2550
  5577  0BF3                     u2551:	
  5578  0BF3  2C20               	goto	l2490
  5579  0BF4                     u2550:	
  5580  0BF4                     l2470:	
  5581  0BF4  0852               	movf	___fladd@grs,w
  5582  0BF5  1D03               	btfss	3,2
  5583  0BF6  2BF8               	goto	u2561
  5584  0BF7  2BF9               	goto	u2560
  5585  0BF8                     u2561:	
  5586  0BF8  2C20               	goto	l2490
  5587  0BF9                     u2560:	
  5588  0BF9                     l2472:	
  5589  0BF9  3000               	movlw	0
  5590  0BFA  00C2               	movwf	?___fladd+3
  5591  0BFB  3000               	movlw	0
  5592  0BFC  00C1               	movwf	?___fladd+2
  5593  0BFD  3000               	movlw	0
  5594  0BFE  00C0               	movwf	?___fladd+1
  5595  0BFF  3000               	movlw	0
  5596  0C00  00BF               	movwf	?___fladd
  5597  0C01  2C9E               	goto	l692
  5598  0C02                     l2476:	
  5599  0C02  3001               	movlw	1
  5600  0C03  00C7               	movwf	??___fladd
  5601  0C04                     u2575:	
  5602  0C04  1003               	clrc
  5603  0C05  0DBF               	rlf	___fladd@b,f
  5604  0C06  0DC0               	rlf	___fladd@b+1,f
  5605  0C07  0DC1               	rlf	___fladd@b+2,f
  5606  0C08  0DC2               	rlf	___fladd@b+3,f
  5607  0C09  0BC7               	decfsz	??___fladd,f
  5608  0C0A  2C04               	goto	u2575
  5609  0C0B                     l2478:	
  5610  0C0B  1FD2               	btfss	___fladd@grs,7
  5611  0C0C  2C0E               	goto	u2581
  5612  0C0D  2C0F               	goto	u2580
  5613  0C0E                     u2581:	
  5614  0C0E  2C10               	goto	l704
  5615  0C0F                     u2580:	
  5616  0C0F                     l2480:	
  5617  0C0F  143F               	bsf	___fladd@b,0
  5618  0C10                     l704:	
  5619  0C10  1C52               	btfss	___fladd@grs,0
  5620  0C11  2C13               	goto	u2591
  5621  0C12  2C14               	goto	u2590
  5622  0C13                     u2591:	
  5623  0C13  2C17               	goto	l2484
  5624  0C14                     u2590:	
  5625  0C14                     l2482:	
  5626  0C14  1403               	setc
  5627  0C15  0DD2               	rlf	___fladd@grs,f
  5628  0C16  2C19               	goto	l2486
  5629  0C17                     l2484:	
  5630  0C17  1003               	clrc
  5631  0C18  0DD2               	rlf	___fladd@grs,f
  5632  0C19                     l2486:	
  5633  0C19  0851               	movf	___fladd@bexp,w
  5634  0C1A  1903               	btfsc	3,2
  5635  0C1B  2C1D               	goto	u2601
  5636  0C1C  2C1E               	goto	u2600
  5637  0C1D                     u2601:	
  5638  0C1D  2C20               	goto	l2490
  5639  0C1E                     u2600:	
  5640  0C1E                     l2488:	
  5641  0C1E  3001               	movlw	1
  5642  0C1F  02D1               	subwf	___fladd@bexp,f
  5643  0C20                     l2490:	
  5644  0C20  1FC1               	btfss	___fladd@b+2,7
  5645  0C21  2C23               	goto	u2611
  5646  0C22  2C24               	goto	u2610
  5647  0C23                     u2611:	
  5648  0C23  2C02               	goto	l2476
  5649  0C24                     u2610:	
  5650  0C24                     l2492:	
  5651  0C24  01D0               	clrf	___fladd@aexp
  5652  0C25                     l2494:	
  5653  0C25  1FD2               	btfss	___fladd@grs,7
  5654  0C26  2C28               	goto	u2621
  5655  0C27  2C29               	goto	u2620
  5656  0C28                     u2621:	
  5657  0C28  2C37               	goto	l2502
  5658  0C29                     u2620:	
  5659  0C29                     l2496:	
  5660  0C29  0852               	movf	___fladd@grs,w
  5661  0C2A  397F               	andlw	127
  5662  0C2B  1903               	btfsc	3,2
  5663  0C2C  2C2E               	goto	u2631
  5664  0C2D  2C2F               	goto	u2630
  5665  0C2E                     u2631:	
  5666  0C2E  2C32               	goto	l710
  5667  0C2F                     u2630:	
  5668  0C2F                     l2498:	
  5669  0C2F  01D0               	clrf	___fladd@aexp
  5670  0C30  0AD0               	incf	___fladd@aexp,f
  5671  0C31  2C37               	goto	l2502
  5672  0C32                     l710:	
  5673  0C32  1C3F               	btfss	___fladd@b,0
  5674  0C33  2C35               	goto	u2641
  5675  0C34  2C36               	goto	u2640
  5676  0C35                     u2641:	
  5677  0C35  2C37               	goto	l2502
  5678  0C36                     u2640:	
  5679  0C36  2C2F               	goto	l2498
  5680  0C37                     l2502:	
  5681  0C37  0850               	movf	___fladd@aexp,w
  5682  0C38  1903               	btfsc	3,2
  5683  0C39  2C3B               	goto	u2651
  5684  0C3A  2C3C               	goto	u2650
  5685  0C3B                     u2651:	
  5686  0C3B  2C70               	goto	l713
  5687  0C3C                     u2650:	
  5688  0C3C                     l2504:	
  5689  0C3C  3001               	movlw	1
  5690  0C3D  07BF               	addwf	___fladd@b,f
  5691  0C3E  3000               	movlw	0
  5692  0C3F  1803               	skipnc
  5693  0C40  3001               	movlw	1
  5694  0C41  07C0               	addwf	___fladd@b+1,f
  5695  0C42  3000               	movlw	0
  5696  0C43  1803               	skipnc
  5697  0C44  3001               	movlw	1
  5698  0C45  07C1               	addwf	___fladd@b+2,f
  5699  0C46  3000               	movlw	0
  5700  0C47  1803               	skipnc
  5701  0C48  3001               	movlw	1
  5702  0C49  07C2               	addwf	___fladd@b+3,f
  5703  0C4A                     l2506:	
  5704  0C4A  1C42               	btfss	___fladd@b+3,0
  5705  0C4B  2C4D               	goto	u2661
  5706  0C4C  2C4E               	goto	u2660
  5707  0C4D                     u2661:	
  5708  0C4D  2C70               	goto	l713
  5709  0C4E                     u2660:	
  5710  0C4E                     l2508:	
  5711  0C4E  083F               	movf	___fladd@b,w
  5712  0C4F  00C7               	movwf	??___fladd
  5713  0C50  0840               	movf	___fladd@b+1,w
  5714  0C51  00C8               	movwf	??___fladd+1
  5715  0C52  0841               	movf	___fladd@b+2,w
  5716  0C53  00C9               	movwf	??___fladd+2
  5717  0C54  0842               	movf	___fladd@b+3,w
  5718  0C55  00CA               	movwf	??___fladd+3
  5719  0C56  3001               	movlw	1
  5720  0C57  00CB               	movwf	??___fladd+4
  5721  0C58                     u2675:	
  5722  0C58  0D4A               	rlf	??___fladd+3,w
  5723  0C59  0CCA               	rrf	??___fladd+3,f
  5724  0C5A  0CC9               	rrf	??___fladd+2,f
  5725  0C5B  0CC8               	rrf	??___fladd+1,f
  5726  0C5C  0CC7               	rrf	??___fladd,f
  5727  0C5D                     u2670:	
  5728  0C5D  0BCB               	decfsz	??___fladd+4,f
  5729  0C5E  2C58               	goto	u2675
  5730  0C5F  084A               	movf	??___fladd+3,w
  5731  0C60  00C2               	movwf	___fladd@b+3
  5732  0C61  0849               	movf	??___fladd+2,w
  5733  0C62  00C1               	movwf	___fladd@b+2
  5734  0C63  0848               	movf	??___fladd+1,w
  5735  0C64  00C0               	movwf	___fladd@b+1
  5736  0C65  0847               	movf	??___fladd,w
  5737  0C66  00BF               	movwf	___fladd@b
  5738  0C67  0A51               	incf	___fladd@bexp,w
  5739  0C68  1903               	btfsc	3,2
  5740  0C69  2C6B               	goto	u2681
  5741  0C6A  2C6C               	goto	u2680
  5742  0C6B                     u2681:	
  5743  0C6B  2C70               	goto	l713
  5744  0C6C                     u2680:	
  5745  0C6C                     l2510:	
  5746  0C6C  3001               	movlw	1
  5747  0C6D  00C7               	movwf	??___fladd
  5748  0C6E  0847               	movf	??___fladd,w
  5749  0C6F  07D1               	addwf	___fladd@bexp,f
  5750  0C70                     l713:	
  5751  0C70  0A51               	incf	___fladd@bexp,w
  5752  0C71  1903               	btfsc	3,2
  5753  0C72  2C74               	goto	u2691
  5754  0C73  2C75               	goto	u2690
  5755  0C74                     u2691:	
  5756  0C74  2C7A               	goto	l2514
  5757  0C75                     u2690:	
  5758  0C75                     l2512:	
  5759  0C75  0851               	movf	___fladd@bexp,w
  5760  0C76  1D03               	btfss	3,2
  5761  0C77  2C79               	goto	u2701
  5762  0C78  2C7A               	goto	u2700
  5763  0C79                     u2701:	
  5764  0C79  2C88               	goto	l2520
  5765  0C7A                     u2700:	
  5766  0C7A                     l2514:	
  5767  0C7A  3000               	movlw	0
  5768  0C7B  00C2               	movwf	___fladd@b+3
  5769  0C7C  3000               	movlw	0
  5770  0C7D  00C1               	movwf	___fladd@b+2
  5771  0C7E  3000               	movlw	0
  5772  0C7F  00C0               	movwf	___fladd@b+1
  5773  0C80  3000               	movlw	0
  5774  0C81  00BF               	movwf	___fladd@b
  5775  0C82                     l2516:	
  5776  0C82  0851               	movf	___fladd@bexp,w
  5777  0C83  1D03               	btfss	3,2
  5778  0C84  2C86               	goto	u2711
  5779  0C85  2C87               	goto	u2710
  5780  0C86                     u2711:	
  5781  0C86  2C88               	goto	l2520
  5782  0C87                     u2710:	
  5783  0C87                     l2518:	
  5784  0C87  01CF               	clrf	___fladd@signs
  5785  0C88                     l2520:	
  5786  0C88  1C51               	btfss	___fladd@bexp,0
  5787  0C89  2C8B               	goto	u2721
  5788  0C8A  2C8C               	goto	u2720
  5789  0C8B                     u2721:	
  5790  0C8B  2C8E               	goto	l2524
  5791  0C8C                     u2720:	
  5792  0C8C                     l2522:	
  5793  0C8C  17C1               	bsf	___fladd@b+2,7
  5794  0C8D  2C92               	goto	l721
  5795  0C8E                     l2524:	
  5796  0C8E  307F               	movlw	127
  5797  0C8F  00C7               	movwf	??___fladd
  5798  0C90  0847               	movf	??___fladd,w
  5799  0C91  05C1               	andwf	___fladd@b+2,f
  5800  0C92                     l721:	
  5801  0C92  0851               	movf	___fladd@bexp,w
  5802  0C93  00C7               	movwf	??___fladd
  5803  0C94  1003               	clrc
  5804  0C95  0C47               	rrf	??___fladd,w
  5805  0C96  00C8               	movwf	??___fladd+1
  5806  0C97  0848               	movf	??___fladd+1,w
  5807  0C98  00C2               	movwf	___fladd@b+3
  5808  0C99                     l2526:	
  5809  0C99  1FCF               	btfss	___fladd@signs,7
  5810  0C9A  2C9C               	goto	u2731
  5811  0C9B  2C9D               	goto	u2730
  5812  0C9C                     u2731:	
  5813  0C9C  2C9E               	goto	l722
  5814  0C9D                     u2730:	
  5815  0C9D                     l2528:	
  5816  0C9D  17C2               	bsf	___fladd@b+3,7
  5817  0C9E                     l722:	
  5818  0C9E                     l692:	
  5819  0C9E  0008               	return
  5820  0C9F                     __end_of___fladd:	
  5821                           
  5822                           	psect	text8
  5823  166C                     __ptext8:	
  5824 ;; *************** function ___xxtofl *****************
  5825 ;; Defined at:
  5826 ;;		line 10 in file "C:\Program Files (x86)\Microchip\xc8\v2.10\pic\sources\c90\common\xxtofl.c"
  5827 ;; Parameters:    Size  Location     Type
  5828 ;;  sign            1    wreg     unsigned char 
  5829 ;;  val             4    0[COMMON] long 
  5830 ;; Auto vars:     Size  Location     Type
  5831 ;;  sign            1    8[COMMON] unsigned char 
  5832 ;;  arg             4   10[COMMON] unsigned long 
  5833 ;;  exp             1    9[COMMON] unsigned char 
  5834 ;; Return value:  Size  Location     Type
  5835 ;;                  4    0[COMMON] unsigned char 
  5836 ;; Registers used:
  5837 ;;		wreg, status,2, status,0
  5838 ;; Tracked objects:
  5839 ;;		On entry : 0/0
  5840 ;;		On exit  : 0/0
  5841 ;;		Unchanged: 0/0
  5842 ;; Data sizes:     COMMON   BANK0   BANK1   BANK3   BANK2
  5843 ;;      Params:         4       0       0       0       0
  5844 ;;      Locals:         6       0       0       0       0
  5845 ;;      Temps:          4       0       0       0       0
  5846 ;;      Totals:        14       0       0       0       0
  5847 ;;Total ram usage:       14 bytes
  5848 ;; Hardware stack levels used:    1
  5849 ;; This function calls:
  5850 ;;		Nothing
  5851 ;; This function is called by:
  5852 ;;		_main
  5853 ;;		_log
  5854 ;; This function uses a non-reentrant model
  5855 ;;
  5856                           
  5857                           
  5858                           ;psect for function ___xxtofl
  5859  166C                     ___xxtofl:	
  5860                           
  5861                           ;incstack = 0
  5862                           ; Regs used in ___xxtofl: [wreg+status,2+status,0]
  5863                           ;___xxtofl@sign stored from wreg
  5864  166C  00F8               	movwf	___xxtofl@sign
  5865  166D                     l2766:	
  5866  166D  0878               	movf	___xxtofl@sign,w
  5867  166E  1903               	btfsc	3,2
  5868  166F  2E71               	goto	u3311
  5869  1670  2E72               	goto	u3310
  5870  1671                     u3311:	
  5871  1671  2E86               	goto	l2772
  5872  1672                     u3310:	
  5873  1672                     l2768:	
  5874  1672  1FF3               	btfss	___xxtofl@val+3,7
  5875  1673  2E75               	goto	u3321
  5876  1674  2E76               	goto	u3320
  5877  1675                     u3321:	
  5878  1675  2E86               	goto	l2772
  5879  1676                     u3320:	
  5880  1676                     l2770:	
  5881  1676  0970               	comf	___xxtofl@val,w
  5882  1677  00FA               	movwf	___xxtofl@arg
  5883  1678  0971               	comf	___xxtofl@val+1,w
  5884  1679  00FB               	movwf	___xxtofl@arg+1
  5885  167A  0972               	comf	___xxtofl@val+2,w
  5886  167B  00FC               	movwf	___xxtofl@arg+2
  5887  167C  0973               	comf	___xxtofl@val+3,w
  5888  167D  00FD               	movwf	___xxtofl@arg+3
  5889  167E  0AFA               	incf	___xxtofl@arg,f
  5890  167F  1903               	skipnz
  5891  1680  0AFB               	incf	___xxtofl@arg+1,f
  5892  1681  1903               	skipnz
  5893  1682  0AFC               	incf	___xxtofl@arg+2,f
  5894  1683  1903               	skipnz
  5895  1684  0AFD               	incf	___xxtofl@arg+3,f
  5896  1685  2E8E               	goto	l813
  5897  1686                     l2772:	
  5898  1686  0873               	movf	___xxtofl@val+3,w
  5899  1687  00FD               	movwf	___xxtofl@arg+3
  5900  1688  0872               	movf	___xxtofl@val+2,w
  5901  1689  00FC               	movwf	___xxtofl@arg+2
  5902  168A  0871               	movf	___xxtofl@val+1,w
  5903  168B  00FB               	movwf	___xxtofl@arg+1
  5904  168C  0870               	movf	___xxtofl@val,w
  5905  168D  00FA               	movwf	___xxtofl@arg
  5906  168E                     l813:	
  5907  168E  0873               	movf	___xxtofl@val+3,w
  5908  168F  0472               	iorwf	___xxtofl@val+2,w
  5909  1690  0471               	iorwf	___xxtofl@val+1,w
  5910  1691  0470               	iorwf	___xxtofl@val,w
  5911  1692  1D03               	skipz
  5912  1693  2E95               	goto	u3331
  5913  1694  2E96               	goto	u3330
  5914  1695                     u3331:	
  5915  1695  2E9F               	goto	l2778
  5916  1696                     u3330:	
  5917  1696                     l2774:	
  5918  1696  3000               	movlw	0
  5919  1697  00F3               	movwf	?___xxtofl+3
  5920  1698  3000               	movlw	0
  5921  1699  00F2               	movwf	?___xxtofl+2
  5922  169A  3000               	movlw	0
  5923  169B  00F1               	movwf	?___xxtofl+1
  5924  169C  3000               	movlw	0
  5925  169D  00F0               	movwf	?___xxtofl
  5926  169E  2F25               	goto	l815
  5927  169F                     l2778:	
  5928  169F  3096               	movlw	150
  5929  16A0  00F4               	movwf	??___xxtofl
  5930  16A1  0874               	movf	??___xxtofl,w
  5931  16A2  00F9               	movwf	___xxtofl@exp
  5932  16A3  2EB1               	goto	l2782
  5933  16A4                     l2780:	
  5934  16A4  3001               	movlw	1
  5935  16A5  00F4               	movwf	??___xxtofl
  5936  16A6  0874               	movf	??___xxtofl,w
  5937  16A7  07F9               	addwf	___xxtofl@exp,f
  5938  16A8  3001               	movlw	1
  5939  16A9                     u3345:	
  5940  16A9  1003               	clrc
  5941  16AA  0CFD               	rrf	___xxtofl@arg+3,f
  5942  16AB  0CFC               	rrf	___xxtofl@arg+2,f
  5943  16AC  0CFB               	rrf	___xxtofl@arg+1,f
  5944  16AD  0CFA               	rrf	___xxtofl@arg,f
  5945  16AE  3EFF               	addlw	-1
  5946  16AF  1D03               	skipz
  5947  16B0  2EA9               	goto	u3345
  5948  16B1                     l2782:	
  5949  16B1  30FE               	movlw	254
  5950  16B2  057D               	andwf	___xxtofl@arg+3,w
  5951  16B3  1D03               	btfss	3,2
  5952  16B4  2EB6               	goto	u3351
  5953  16B5  2EB7               	goto	u3350
  5954  16B6                     u3351:	
  5955  16B6  2EA4               	goto	l2780
  5956  16B7                     u3350:	
  5957  16B7  2ED3               	goto	l819
  5958  16B8                     l2784:	
  5959  16B8  3001               	movlw	1
  5960  16B9  00F4               	movwf	??___xxtofl
  5961  16BA  0874               	movf	??___xxtofl,w
  5962  16BB  07F9               	addwf	___xxtofl@exp,f
  5963  16BC                     l2786:	
  5964  16BC  3001               	movlw	1
  5965  16BD  07FA               	addwf	___xxtofl@arg,f
  5966  16BE  3000               	movlw	0
  5967  16BF  1803               	skipnc
  5968  16C0  3001               	movlw	1
  5969  16C1  07FB               	addwf	___xxtofl@arg+1,f
  5970  16C2  3000               	movlw	0
  5971  16C3  1803               	skipnc
  5972  16C4  3001               	movlw	1
  5973  16C5  07FC               	addwf	___xxtofl@arg+2,f
  5974  16C6  3000               	movlw	0
  5975  16C7  1803               	skipnc
  5976  16C8  3001               	movlw	1
  5977  16C9  07FD               	addwf	___xxtofl@arg+3,f
  5978  16CA                     l2788:	
  5979  16CA  3001               	movlw	1
  5980  16CB                     u3365:	
  5981  16CB  1003               	clrc
  5982  16CC  0CFD               	rrf	___xxtofl@arg+3,f
  5983  16CD  0CFC               	rrf	___xxtofl@arg+2,f
  5984  16CE  0CFB               	rrf	___xxtofl@arg+1,f
  5985  16CF  0CFA               	rrf	___xxtofl@arg,f
  5986  16D0  3EFF               	addlw	-1
  5987  16D1  1D03               	skipz
  5988  16D2  2ECB               	goto	u3365
  5989  16D3                     l819:	
  5990  16D3  30FF               	movlw	255
  5991  16D4  057D               	andwf	___xxtofl@arg+3,w
  5992  16D5  1D03               	btfss	3,2
  5993  16D6  2ED8               	goto	u3371
  5994  16D7  2ED9               	goto	u3370
  5995  16D8                     u3371:	
  5996  16D8  2EB8               	goto	l2784
  5997  16D9                     u3370:	
  5998  16D9  2EE5               	goto	l2792
  5999  16DA                     l2790:	
  6000  16DA  3001               	movlw	1
  6001  16DB  02F9               	subwf	___xxtofl@exp,f
  6002  16DC  3001               	movlw	1
  6003  16DD  00F4               	movwf	??___xxtofl
  6004  16DE                     u3385:	
  6005  16DE  1003               	clrc
  6006  16DF  0DFA               	rlf	___xxtofl@arg,f
  6007  16E0  0DFB               	rlf	___xxtofl@arg+1,f
  6008  16E1  0DFC               	rlf	___xxtofl@arg+2,f
  6009  16E2  0DFD               	rlf	___xxtofl@arg+3,f
  6010  16E3  0BF4               	decfsz	??___xxtofl,f
  6011  16E4  2EDE               	goto	u3385
  6012  16E5                     l2792:	
  6013  16E5  1BFC               	btfsc	___xxtofl@arg+2,7
  6014  16E6  2EE8               	goto	u3391
  6015  16E7  2EE9               	goto	u3390
  6016  16E8                     u3391:	
  6017  16E8  2EEF               	goto	l826
  6018  16E9                     u3390:	
  6019  16E9                     l2794:	
  6020  16E9  3002               	movlw	2
  6021  16EA  0279               	subwf	___xxtofl@exp,w
  6022  16EB  1803               	skipnc
  6023  16EC  2EEE               	goto	u3401
  6024  16ED  2EEF               	goto	u3400
  6025  16EE                     u3401:	
  6026  16EE  2EDA               	goto	l2790
  6027  16EF                     u3400:	
  6028  16EF                     l826:	
  6029  16EF  1879               	btfsc	___xxtofl@exp,0
  6030  16F0  2EF2               	goto	u3411
  6031  16F1  2EF3               	goto	u3410
  6032  16F2                     u3411:	
  6033  16F2  2EFB               	goto	l827
  6034  16F3                     u3410:	
  6035  16F3                     l2796:	
  6036  16F3  30FF               	movlw	255
  6037  16F4  05FA               	andwf	___xxtofl@arg,f
  6038  16F5  30FF               	movlw	255
  6039  16F6  05FB               	andwf	___xxtofl@arg+1,f
  6040  16F7  307F               	movlw	127
  6041  16F8  05FC               	andwf	___xxtofl@arg+2,f
  6042  16F9  30FF               	movlw	255
  6043  16FA  05FD               	andwf	___xxtofl@arg+3,f
  6044  16FB                     l827:	
  6045  16FB  1003               	clrc
  6046  16FC  0CF9               	rrf	___xxtofl@exp,f
  6047  16FD                     l2798:	
  6048  16FD  0879               	movf	___xxtofl@exp,w
  6049  16FE  00F4               	movwf	??___xxtofl
  6050  16FF  01F5               	clrf	??___xxtofl+1
  6051  1700  01F6               	clrf	??___xxtofl+2
  6052  1701  01F7               	clrf	??___xxtofl+3
  6053  1702  3018               	movlw	24
  6054  1703                     u3425:	
  6055  1703  1003               	clrc
  6056  1704  0DF4               	rlf	??___xxtofl,f
  6057  1705  0DF5               	rlf	??___xxtofl+1,f
  6058  1706  0DF6               	rlf	??___xxtofl+2,f
  6059  1707  0DF7               	rlf	??___xxtofl+3,f
  6060  1708                     u3420:	
  6061  1708  3EFF               	addlw	-1
  6062  1709  1D03               	skipz
  6063  170A  2F03               	goto	u3425
  6064  170B  0874               	movf	??___xxtofl,w
  6065  170C  04FA               	iorwf	___xxtofl@arg,f
  6066  170D  0875               	movf	??___xxtofl+1,w
  6067  170E  04FB               	iorwf	___xxtofl@arg+1,f
  6068  170F  0876               	movf	??___xxtofl+2,w
  6069  1710  04FC               	iorwf	___xxtofl@arg+2,f
  6070  1711  0877               	movf	??___xxtofl+3,w
  6071  1712  04FD               	iorwf	___xxtofl@arg+3,f
  6072  1713                     l2800:	
  6073  1713  0878               	movf	___xxtofl@sign,w
  6074  1714  1903               	btfsc	3,2
  6075  1715  2F17               	goto	u3431
  6076  1716  2F18               	goto	u3430
  6077  1717                     u3431:	
  6078  1717  2F1D               	goto	l2806
  6079  1718                     u3430:	
  6080  1718                     l2802:	
  6081  1718  1FF3               	btfss	___xxtofl@val+3,7
  6082  1719  2F1B               	goto	u3441
  6083  171A  2F1C               	goto	u3440
  6084  171B                     u3441:	
  6085  171B  2F1D               	goto	l2806
  6086  171C                     u3440:	
  6087  171C                     l2804:	
  6088  171C  17FD               	bsf	___xxtofl@arg+3,7
  6089  171D                     l2806:	
  6090  171D  087D               	movf	___xxtofl@arg+3,w
  6091  171E  00F3               	movwf	?___xxtofl+3
  6092  171F  087C               	movf	___xxtofl@arg+2,w
  6093  1720  00F2               	movwf	?___xxtofl+2
  6094  1721  087B               	movf	___xxtofl@arg+1,w
  6095  1722  00F1               	movwf	?___xxtofl+1
  6096  1723  087A               	movf	___xxtofl@arg,w
  6097  1724  00F0               	movwf	?___xxtofl
  6098  1725                     l815:	
  6099  1725  0008               	return
  6100  1726                     __end_of___xxtofl:	
  6101                           
  6102                           	psect	text9
  6103  15CA                     __ptext9:	
  6104 ;; *************** function ___flge *****************
  6105 ;; Defined at:
  6106 ;;		line 4 in file "C:\Program Files (x86)\Microchip\xc8\v2.10\pic\sources\c90\common\flge.c"
  6107 ;; Parameters:    Size  Location     Type
  6108 ;;  ff1             4    0[COMMON] unsigned char 
  6109 ;;  ff2             4    4[COMMON] unsigned char 
  6110 ;; Auto vars:     Size  Location     Type
  6111 ;;		None
  6112 ;; Return value:  Size  Location     Type
  6113 ;;		None               void
  6114 ;; Registers used:
  6115 ;;		wreg, status,2, status,0
  6116 ;; Tracked objects:
  6117 ;;		On entry : 0/0
  6118 ;;		On exit  : 0/0
  6119 ;;		Unchanged: 0/0
  6120 ;; Data sizes:     COMMON   BANK0   BANK1   BANK3   BANK2
  6121 ;;      Params:         8       0       0       0       0
  6122 ;;      Locals:         0       0       0       0       0
  6123 ;;      Temps:          4       0       0       0       0
  6124 ;;      Totals:        12       0       0       0       0
  6125 ;;Total ram usage:       12 bytes
  6126 ;; Hardware stack levels used:    1
  6127 ;; This function calls:
  6128 ;;		Nothing
  6129 ;; This function is called by:
  6130 ;;		_log
  6131 ;; This function uses a non-reentrant model
  6132 ;;
  6133                           
  6134                           
  6135                           ;psect for function ___flge
  6136  15CA                     ___flge:	
  6137  15CA                     l2746:	
  6138                           ;incstack = 0
  6139                           ; Regs used in ___flge: [wreg+status,2+status,0]
  6140                           
  6141  15CA  3000               	movlw	0
  6142  15CB  0570               	andwf	___flge@ff1,w
  6143  15CC  00F8               	movwf	??___flge
  6144  15CD  3000               	movlw	0
  6145  15CE  0571               	andwf	___flge@ff1+1,w
  6146  15CF  00F9               	movwf	??___flge+1
  6147  15D0  3080               	movlw	128
  6148  15D1  0572               	andwf	___flge@ff1+2,w
  6149  15D2  00FA               	movwf	??___flge+2
  6150  15D3  307F               	movlw	127
  6151  15D4  0573               	andwf	___flge@ff1+3,w
  6152  15D5  00FB               	movwf	??___flge+3
  6153  15D6  087B               	movf	??___flge+3,w
  6154  15D7  047A               	iorwf	??___flge+2,w
  6155  15D8  0479               	iorwf	??___flge+1,w
  6156  15D9  0478               	iorwf	??___flge,w
  6157  15DA  1D03               	skipz
  6158  15DB  2DDD               	goto	u3241
  6159  15DC  2DDE               	goto	u3240
  6160  15DD                     u3241:	
  6161  15DD  2DE6               	goto	l560
  6162  15DE                     u3240:	
  6163  15DE                     l2748:	
  6164  15DE  3000               	movlw	0
  6165  15DF  00F3               	movwf	___flge@ff1+3
  6166  15E0  3000               	movlw	0
  6167  15E1  00F2               	movwf	___flge@ff1+2
  6168  15E2  3000               	movlw	0
  6169  15E3  00F1               	movwf	___flge@ff1+1
  6170  15E4  3000               	movlw	0
  6171  15E5  00F0               	movwf	___flge@ff1
  6172  15E6                     l560:	
  6173  15E6  3000               	movlw	0
  6174  15E7  0574               	andwf	___flge@ff2,w
  6175  15E8  00F8               	movwf	??___flge
  6176  15E9  3000               	movlw	0
  6177  15EA  0575               	andwf	___flge@ff2+1,w
  6178  15EB  00F9               	movwf	??___flge+1
  6179  15EC  3080               	movlw	128
  6180  15ED  0576               	andwf	___flge@ff2+2,w
  6181  15EE  00FA               	movwf	??___flge+2
  6182  15EF  307F               	movlw	127
  6183  15F0  0577               	andwf	___flge@ff2+3,w
  6184  15F1  00FB               	movwf	??___flge+3
  6185  15F2  087B               	movf	??___flge+3,w
  6186  15F3  047A               	iorwf	??___flge+2,w
  6187  15F4  0479               	iorwf	??___flge+1,w
  6188  15F5  0478               	iorwf	??___flge,w
  6189  15F6  1D03               	skipz
  6190  15F7  2DF9               	goto	u3251
  6191  15F8  2DFA               	goto	u3250
  6192  15F9                     u3251:	
  6193  15F9  2E02               	goto	l2752
  6194  15FA                     u3250:	
  6195  15FA                     l2750:	
  6196  15FA  3000               	movlw	0
  6197  15FB  00F7               	movwf	___flge@ff2+3
  6198  15FC  3000               	movlw	0
  6199  15FD  00F6               	movwf	___flge@ff2+2
  6200  15FE  3000               	movlw	0
  6201  15FF  00F5               	movwf	___flge@ff2+1
  6202  1600  3000               	movlw	0
  6203  1601  00F4               	movwf	___flge@ff2
  6204  1602                     l2752:	
  6205  1602  1FF3               	btfss	___flge@ff1+3,7
  6206  1603  2E05               	goto	u3261
  6207  1604  2E06               	goto	u3260
  6208  1605                     u3261:	
  6209  1605  2E2A               	goto	l2756
  6210  1606                     u3260:	
  6211  1606                     l2754:	
  6212  1606  3000               	movlw	0
  6213  1607  00F8               	movwf	??___flge
  6214  1608  3000               	movlw	0
  6215  1609  00F9               	movwf	??___flge+1
  6216  160A  3000               	movlw	0
  6217  160B  00FA               	movwf	??___flge+2
  6218  160C  3080               	movlw	128
  6219  160D  00FB               	movwf	??___flge+3
  6220  160E  0870               	movf	___flge@ff1,w
  6221  160F  02F8               	subwf	??___flge,f
  6222  1610  0871               	movf	___flge@ff1+1,w
  6223  1611  1C03               	skipc
  6224  1612  0F71               	incfsz	___flge@ff1+1,w
  6225  1613  2E15               	goto	u3271
  6226  1614  2E16               	goto	u3272
  6227  1615                     u3271:	
  6228  1615  02F9               	subwf	??___flge+1,f
  6229  1616                     u3272:	
  6230  1616  0872               	movf	___flge@ff1+2,w
  6231  1617  1C03               	skipc
  6232  1618  0F72               	incfsz	___flge@ff1+2,w
  6233  1619  2E1B               	goto	u3273
  6234  161A  2E1C               	goto	u3274
  6235  161B                     u3273:	
  6236  161B  02FA               	subwf	??___flge+2,f
  6237  161C                     u3274:	
  6238  161C  0873               	movf	___flge@ff1+3,w
  6239  161D  1C03               	skipc
  6240  161E  0F73               	incfsz	___flge@ff1+3,w
  6241  161F  2E21               	goto	u3275
  6242  1620  2E22               	goto	u3276
  6243  1621                     u3275:	
  6244  1621  02FB               	subwf	??___flge+3,f
  6245  1622                     u3276:	
  6246  1622  087B               	movf	??___flge+3,w
  6247  1623  00F3               	movwf	___flge@ff1+3
  6248  1624  087A               	movf	??___flge+2,w
  6249  1625  00F2               	movwf	___flge@ff1+2
  6250  1626  0879               	movf	??___flge+1,w
  6251  1627  00F1               	movwf	___flge@ff1+1
  6252  1628  0878               	movf	??___flge,w
  6253  1629  00F0               	movwf	___flge@ff1
  6254  162A                     l2756:	
  6255  162A  1FF7               	btfss	___flge@ff2+3,7
  6256  162B  2E2D               	goto	u3281
  6257  162C  2E2E               	goto	u3280
  6258  162D                     u3281:	
  6259  162D  2E52               	goto	l563
  6260  162E                     u3280:	
  6261  162E                     l2758:	
  6262  162E  3000               	movlw	0
  6263  162F  00F8               	movwf	??___flge
  6264  1630  3000               	movlw	0
  6265  1631  00F9               	movwf	??___flge+1
  6266  1632  3000               	movlw	0
  6267  1633  00FA               	movwf	??___flge+2
  6268  1634  3080               	movlw	128
  6269  1635  00FB               	movwf	??___flge+3
  6270  1636  0874               	movf	___flge@ff2,w
  6271  1637  02F8               	subwf	??___flge,f
  6272  1638  0875               	movf	___flge@ff2+1,w
  6273  1639  1C03               	skipc
  6274  163A  0F75               	incfsz	___flge@ff2+1,w
  6275  163B  2E3D               	goto	u3291
  6276  163C  2E3E               	goto	u3292
  6277  163D                     u3291:	
  6278  163D  02F9               	subwf	??___flge+1,f
  6279  163E                     u3292:	
  6280  163E  0876               	movf	___flge@ff2+2,w
  6281  163F  1C03               	skipc
  6282  1640  0F76               	incfsz	___flge@ff2+2,w
  6283  1641  2E43               	goto	u3293
  6284  1642  2E44               	goto	u3294
  6285  1643                     u3293:	
  6286  1643  02FA               	subwf	??___flge+2,f
  6287  1644                     u3294:	
  6288  1644  0877               	movf	___flge@ff2+3,w
  6289  1645  1C03               	skipc
  6290  1646  0F77               	incfsz	___flge@ff2+3,w
  6291  1647  2E49               	goto	u3295
  6292  1648  2E4A               	goto	u3296
  6293  1649                     u3295:	
  6294  1649  02FB               	subwf	??___flge+3,f
  6295  164A                     u3296:	
  6296  164A  087B               	movf	??___flge+3,w
  6297  164B  00F7               	movwf	___flge@ff2+3
  6298  164C  087A               	movf	??___flge+2,w
  6299  164D  00F6               	movwf	___flge@ff2+2
  6300  164E  0879               	movf	??___flge+1,w
  6301  164F  00F5               	movwf	___flge@ff2+1
  6302  1650  0878               	movf	??___flge,w
  6303  1651  00F4               	movwf	___flge@ff2
  6304  1652                     l563:	
  6305  1652  3080               	movlw	128
  6306  1653  06F3               	xorwf	___flge@ff1+3,f
  6307  1654  3080               	movlw	128
  6308  1655  06F7               	xorwf	___flge@ff2+3,f
  6309  1656  0877               	movf	___flge@ff2+3,w
  6310  1657  0273               	subwf	___flge@ff1+3,w
  6311  1658  1D03               	skipz
  6312  1659  2E64               	goto	u3305
  6313  165A  0876               	movf	___flge@ff2+2,w
  6314  165B  0272               	subwf	___flge@ff1+2,w
  6315  165C  1D03               	skipz
  6316  165D  2E64               	goto	u3305
  6317  165E  0875               	movf	___flge@ff2+1,w
  6318  165F  0271               	subwf	___flge@ff1+1,w
  6319  1660  1D03               	skipz
  6320  1661  2E64               	goto	u3305
  6321  1662  0874               	movf	___flge@ff2,w
  6322  1663  0270               	subwf	___flge@ff1,w
  6323  1664                     u3305:	
  6324  1664  1803               	skipnc
  6325  1665  2E67               	goto	u3301
  6326  1666  2E68               	goto	u3300
  6327  1667                     u3301:	
  6328  1667  2E6A               	goto	l2762
  6329  1668                     u3300:	
  6330  1668                     l2760:	
  6331  1668  1003               	clrc
  6332  1669  2E6B               	goto	l564
  6333  166A                     l2762:	
  6334  166A  1403               	setc
  6335  166B                     l564:	
  6336  166B  0008               	return
  6337  166C                     __end_of___flge:	
  6338                           
  6339                           	psect	text10
  6340  1169                     __ptext10:	
  6341 ;; *************** function _lcd_msg *****************
  6342 ;; Defined at:
  6343 ;;		line 58 in file "LCD.c"
  6344 ;; Parameters:    Size  Location     Type
  6345 ;;  c               1    wreg     PTR unsigned char 
  6346 ;;		 -> STR_11(5), STR_10(5), STR_9(4), STR_8(3), 
  6347 ;;		 -> STR_7(3), STR_6(4), STR_5(3), STR_4(4), 
  6348 ;;		 -> STR_3(4), STR_2(4), STR_1(4), 
  6349 ;; Auto vars:     Size  Location     Type
  6350 ;;  c               1    4[COMMON] PTR unsigned char 
  6351 ;;		 -> STR_11(5), STR_10(5), STR_9(4), STR_8(3), 
  6352 ;;		 -> STR_7(3), STR_6(4), STR_5(3), STR_4(4), 
  6353 ;;		 -> STR_3(4), STR_2(4), STR_1(4), 
  6354 ;; Return value:  Size  Location     Type
  6355 ;;                  1    wreg      void 
  6356 ;; Registers used:
  6357 ;;		wreg, fsr0l, fsr0h, status,2, status,0, pclath, cstack
  6358 ;; Tracked objects:
  6359 ;;		On entry : 0/0
  6360 ;;		On exit  : 0/0
  6361 ;;		Unchanged: 0/0
  6362 ;; Data sizes:     COMMON   BANK0   BANK1   BANK3   BANK2
  6363 ;;      Params:         0       0       0       0       0
  6364 ;;      Locals:         1       0       0       0       0
  6365 ;;      Temps:          1       0       0       0       0
  6366 ;;      Totals:         2       0       0       0       0
  6367 ;;Total ram usage:        2 bytes
  6368 ;; Hardware stack levels used:    1
  6369 ;; Hardware stack levels required when called:    2
  6370 ;; This function calls:
  6371 ;;		_lcd_dwr
  6372 ;; This function is called by:
  6373 ;;		_main
  6374 ;; This function uses a non-reentrant model
  6375 ;;
  6376                           
  6377                           
  6378                           ;psect for function _lcd_msg
  6379  1169                     _lcd_msg:	
  6380                           
  6381                           ;incstack = 0
  6382                           ; Regs used in _lcd_msg: [wreg-fsr0h+status,2+status,0+pclath+cstack]
  6383                           ;lcd_msg@c stored from wreg
  6384  1169  00F4               	movwf	lcd_msg@c
  6385  116A                     l2894:	
  6386                           
  6387                           ;LCD.c: 60:     while(*c != 0)
  6388  116A  297B               	goto	l2900
  6389  116B                     l2896:	
  6390                           
  6391                           ;LCD.c: 61:         lcd_dwr(*c++);
  6392  116B  0874               	movf	lcd_msg@c,w
  6393  116C  0084               	movwf	4
  6394  116D  160A  118A  2000  160A  118A  	fcall	stringdir
  6395  1172  160A  118A  211C  160A  118A  	fcall	_lcd_dwr
  6396  1177                     l2898:	
  6397  1177  3001               	movlw	1
  6398  1178  00F3               	movwf	??_lcd_msg
  6399  1179  0873               	movf	??_lcd_msg,w
  6400  117A  07F4               	addwf	lcd_msg@c,f
  6401  117B                     l2900:	
  6402                           
  6403                           ;LCD.c: 60:     while(*c != 0)
  6404  117B  0874               	movf	lcd_msg@c,w
  6405  117C  0084               	movwf	4
  6406  117D  160A  118A  2000  160A  118A  	fcall	stringdir
  6407  1182  3A00               	xorlw	0
  6408  1183  1D03               	skipz
  6409  1184  2986               	goto	u3551
  6410  1185  2987               	goto	u3550
  6411  1186                     u3551:	
  6412  1186  296B               	goto	l2896
  6413  1187                     u3550:	
  6414  1187                     l245:	
  6415  1187  0008               	return
  6416  1188                     __end_of_lcd_msg:	
  6417                           
  6418                           	psect	text11
  6419  111C                     __ptext11:	
  6420 ;; *************** function _lcd_dwr *****************
  6421 ;; Defined at:
  6422 ;;		line 48 in file "LCD.c"
  6423 ;; Parameters:    Size  Location     Type
  6424 ;;  x               1    wreg     unsigned char 
  6425 ;; Auto vars:     Size  Location     Type
  6426 ;;  x               1    2[COMMON] unsigned char 
  6427 ;; Return value:  Size  Location     Type
  6428 ;;                  1    wreg      void 
  6429 ;; Registers used:
  6430 ;;		wreg, status,2, status,0, pclath, cstack
  6431 ;; Tracked objects:
  6432 ;;		On entry : 0/0
  6433 ;;		On exit  : 0/0
  6434 ;;		Unchanged: 0/0
  6435 ;; Data sizes:     COMMON   BANK0   BANK1   BANK3   BANK2
  6436 ;;      Params:         0       0       0       0       0
  6437 ;;      Locals:         1       0       0       0       0
  6438 ;;      Temps:          0       0       0       0       0
  6439 ;;      Totals:         1       0       0       0       0
  6440 ;;Total ram usage:        1 bytes
  6441 ;; Hardware stack levels used:    1
  6442 ;; Hardware stack levels required when called:    1
  6443 ;; This function calls:
  6444 ;;		_lcd_lat
  6445 ;;		_lcd_ready
  6446 ;; This function is called by:
  6447 ;;		_main
  6448 ;;		_lcd_msg
  6449 ;; This function uses a non-reentrant model
  6450 ;;
  6451                           
  6452                           
  6453                           ;psect for function _lcd_dwr
  6454  111C                     _lcd_dwr:	
  6455                           
  6456                           ;incstack = 0
  6457                           ; Regs used in _lcd_dwr: [wreg+status,2+status,0+pclath+cstack]
  6458                           ;lcd_dwr@x stored from wreg
  6459  111C  00F2               	movwf	lcd_dwr@x
  6460  111D                     l2680:	
  6461                           
  6462                           ;LCD.c: 49:     lcd_ready();
  6463  111D  160A  118A  21AF  160A  118A  	fcall	_lcd_ready
  6464  1122                     l2682:	
  6465                           
  6466                           ;LCD.c: 50:     PORTB = x;
  6467  1122  0872               	movf	lcd_dwr@x,w
  6468  1123  1283               	bcf	3,5	;RP0=0, select bank0
  6469  1124  1303               	bcf	3,6	;RP1=0, select bank0
  6470  1125  0086               	movwf	6	;volatile
  6471  1126                     l2684:	
  6472                           
  6473                           ;LCD.c: 51:     RD7 = 1;
  6474  1126  1788               	bsf	8,7	;volatile
  6475  1127                     l2686:	
  6476                           
  6477                           ;LCD.c: 52:     RD2 = 0;
  6478  1127  1108               	bcf	8,2	;volatile
  6479  1128                     l2688:	
  6480                           
  6481                           ;LCD.c: 53:     lcd_lat();
  6482  1128  160A  118A  20FB  160A  118A  	fcall	_lcd_lat
  6483  112D                     l239:	
  6484  112D  0008               	return
  6485  112E                     __end_of_lcd_dwr:	
  6486                           
  6487                           	psect	text12
  6488  114A                     __ptext12:	
  6489 ;; *************** function _lcd_init *****************
  6490 ;; Defined at:
  6491 ;;		line 64 in file "LCD.c"
  6492 ;; Parameters:    Size  Location     Type
  6493 ;;		None
  6494 ;; Auto vars:     Size  Location     Type
  6495 ;;		None
  6496 ;; Return value:  Size  Location     Type
  6497 ;;                  1    wreg      void 
  6498 ;; Registers used:
  6499 ;;		wreg, status,2, status,0, pclath, cstack
  6500 ;; Tracked objects:
  6501 ;;		On entry : 0/0
  6502 ;;		On exit  : 0/0
  6503 ;;		Unchanged: 0/0
  6504 ;; Data sizes:     COMMON   BANK0   BANK1   BANK3   BANK2
  6505 ;;      Params:         0       0       0       0       0
  6506 ;;      Locals:         0       0       0       0       0
  6507 ;;      Temps:          0       0       0       0       0
  6508 ;;      Totals:         0       0       0       0       0
  6509 ;;Total ram usage:        0 bytes
  6510 ;; Hardware stack levels used:    1
  6511 ;; Hardware stack levels required when called:    2
  6512 ;; This function calls:
  6513 ;;		_lcd_cmd
  6514 ;; This function is called by:
  6515 ;;		_main
  6516 ;; This function uses a non-reentrant model
  6517 ;;
  6518                           
  6519                           
  6520                           ;psect for function _lcd_init
  6521  114A                     _lcd_init:	
  6522  114A                     l2860:	
  6523                           ;incstack = 0
  6524                           ; Regs used in _lcd_init: [wreg+status,2+status,0+pclath+cstack]
  6525                           
  6526                           
  6527                           ;LCD.c: 66:     lcd_cmd(0x38);
  6528  114A  3038               	movlw	56
  6529  114B  160A  118A  210A  160A  118A  	fcall	_lcd_cmd
  6530                           
  6531                           ;LCD.c: 67:     lcd_cmd(0x0C);
  6532  1150  300C               	movlw	12
  6533  1151  160A  118A  210A  160A  118A  	fcall	_lcd_cmd
  6534                           
  6535                           ;LCD.c: 68:     lcd_cmd(0x01);
  6536  1156  3001               	movlw	1
  6537  1157  160A  118A  210A  160A  118A  	fcall	_lcd_cmd
  6538                           
  6539                           ;LCD.c: 69:     lcd_cmd(0x06);
  6540  115C  3006               	movlw	6
  6541  115D  160A  118A  210A  160A  118A  	fcall	_lcd_cmd
  6542                           
  6543                           ;LCD.c: 70:     lcd_cmd(0x80);
  6544  1162  3080               	movlw	128
  6545  1163  160A  118A  210A  160A  118A  	fcall	_lcd_cmd
  6546  1168                     l248:	
  6547  1168  0008               	return
  6548  1169                     __end_of_lcd_init:	
  6549                           
  6550                           	psect	text13
  6551  1395                     __ptext13:	
  6552 ;; *************** function _initOsc *****************
  6553 ;; Defined at:
  6554 ;;		line 8 in file "Oscilador.c"
  6555 ;; Parameters:    Size  Location     Type
  6556 ;;  frec            1    wreg     unsigned char 
  6557 ;; Auto vars:     Size  Location     Type
  6558 ;;  frec            1    2[COMMON] unsigned char 
  6559 ;; Return value:  Size  Location     Type
  6560 ;;                  1    wreg      void 
  6561 ;; Registers used:
  6562 ;;		wreg, fsr0l, fsr0h, status,2, status,0
  6563 ;; Tracked objects:
  6564 ;;		On entry : 0/0
  6565 ;;		On exit  : 0/0
  6566 ;;		Unchanged: 0/0
  6567 ;; Data sizes:     COMMON   BANK0   BANK1   BANK3   BANK2
  6568 ;;      Params:         0       0       0       0       0
  6569 ;;      Locals:         1       0       0       0       0
  6570 ;;      Temps:          2       0       0       0       0
  6571 ;;      Totals:         3       0       0       0       0
  6572 ;;Total ram usage:        3 bytes
  6573 ;; Hardware stack levels used:    1
  6574 ;; This function calls:
  6575 ;;		Nothing
  6576 ;; This function is called by:
  6577 ;;		_main
  6578 ;; This function uses a non-reentrant model
  6579 ;;
  6580                           
  6581                           
  6582                           ;psect for function _initOsc
  6583  1395                     _initOsc:	
  6584                           
  6585                           ;incstack = 0
  6586                           ; Regs used in _initOsc: [wreg-fsr0h+status,2+status,0]
  6587                           ;initOsc@frec stored from wreg
  6588  1395  00F2               	movwf	initOsc@frec
  6589  1396                     l2840:	
  6590                           
  6591                           ;Oscilador.c: 9:     switch(frec){
  6592  1396  2BCD               	goto	l2844
  6593  1397                     l265:	
  6594                           ;Oscilador.c: 10:         case 0:
  6595                           
  6596                           
  6597                           ;Oscilador.c: 11:             OSCCONbits.IRCF0 = 0;
  6598  1397  1683               	bsf	3,5	;RP0=1, select bank1
  6599  1398  1303               	bcf	3,6	;RP1=0, select bank1
  6600  1399  120F               	bcf	15,4	;volatile
  6601                           
  6602                           ;Oscilador.c: 12:             OSCCONbits.IRCF1 = 0;
  6603  139A  128F               	bcf	15,5	;volatile
  6604                           
  6605                           ;Oscilador.c: 13:             OSCCONbits.IRCF2 = 0;
  6606  139B  130F               	bcf	15,6	;volatile
  6607                           
  6608                           ;Oscilador.c: 14:             break;
  6609  139C  2BEF               	goto	l266
  6610  139D                     l267:	
  6611                           ;Oscilador.c: 15:         case 1:
  6612                           
  6613                           
  6614                           ;Oscilador.c: 16:             OSCCONbits.IRCF0 = 1;
  6615  139D  1683               	bsf	3,5	;RP0=1, select bank1
  6616  139E  1303               	bcf	3,6	;RP1=0, select bank1
  6617  139F  160F               	bsf	15,4	;volatile
  6618                           
  6619                           ;Oscilador.c: 17:             OSCCONbits.IRCF1 = 0;
  6620  13A0  128F               	bcf	15,5	;volatile
  6621                           
  6622                           ;Oscilador.c: 18:             OSCCONbits.IRCF2 = 0;
  6623  13A1  130F               	bcf	15,6	;volatile
  6624                           
  6625                           ;Oscilador.c: 19:             break;
  6626  13A2  2BEF               	goto	l266
  6627  13A3                     l268:	
  6628                           ;Oscilador.c: 20:         case 2:
  6629                           
  6630                           
  6631                           ;Oscilador.c: 21:             OSCCONbits.IRCF0 = 0;
  6632  13A3  1683               	bsf	3,5	;RP0=1, select bank1
  6633  13A4  1303               	bcf	3,6	;RP1=0, select bank1
  6634  13A5  120F               	bcf	15,4	;volatile
  6635                           
  6636                           ;Oscilador.c: 22:             OSCCONbits.IRCF1 = 1;
  6637  13A6  168F               	bsf	15,5	;volatile
  6638                           
  6639                           ;Oscilador.c: 23:             OSCCONbits.IRCF2 = 0;
  6640  13A7  130F               	bcf	15,6	;volatile
  6641                           
  6642                           ;Oscilador.c: 24:             break;
  6643  13A8  2BEF               	goto	l266
  6644  13A9                     l269:	
  6645                           ;Oscilador.c: 25:         case 3:
  6646                           
  6647                           
  6648                           ;Oscilador.c: 26:             OSCCONbits.IRCF0 = 1;
  6649  13A9  1683               	bsf	3,5	;RP0=1, select bank1
  6650  13AA  1303               	bcf	3,6	;RP1=0, select bank1
  6651  13AB  160F               	bsf	15,4	;volatile
  6652                           
  6653                           ;Oscilador.c: 27:             OSCCONbits.IRCF1 = 1;
  6654  13AC  168F               	bsf	15,5	;volatile
  6655                           
  6656                           ;Oscilador.c: 28:             OSCCONbits.IRCF2 = 0;
  6657  13AD  130F               	bcf	15,6	;volatile
  6658                           
  6659                           ;Oscilador.c: 29:             break;
  6660  13AE  2BEF               	goto	l266
  6661  13AF                     l270:	
  6662                           ;Oscilador.c: 30:         case 4:
  6663                           
  6664                           
  6665                           ;Oscilador.c: 31:             OSCCONbits.IRCF0 = 0;
  6666  13AF  1683               	bsf	3,5	;RP0=1, select bank1
  6667  13B0  1303               	bcf	3,6	;RP1=0, select bank1
  6668  13B1  120F               	bcf	15,4	;volatile
  6669                           
  6670                           ;Oscilador.c: 32:             OSCCONbits.IRCF1 = 0;
  6671  13B2  128F               	bcf	15,5	;volatile
  6672                           
  6673                           ;Oscilador.c: 33:             OSCCONbits.IRCF2 = 1;
  6674  13B3  170F               	bsf	15,6	;volatile
  6675                           
  6676                           ;Oscilador.c: 34:             break;
  6677  13B4  2BEF               	goto	l266
  6678  13B5                     l271:	
  6679                           ;Oscilador.c: 35:         case 5:
  6680                           
  6681                           
  6682                           ;Oscilador.c: 36:             OSCCONbits.IRCF0 = 1;
  6683  13B5  1683               	bsf	3,5	;RP0=1, select bank1
  6684  13B6  1303               	bcf	3,6	;RP1=0, select bank1
  6685  13B7  160F               	bsf	15,4	;volatile
  6686                           
  6687                           ;Oscilador.c: 37:             OSCCONbits.IRCF1 = 0;
  6688  13B8  128F               	bcf	15,5	;volatile
  6689                           
  6690                           ;Oscilador.c: 38:             OSCCONbits.IRCF2 = 1;
  6691  13B9  170F               	bsf	15,6	;volatile
  6692                           
  6693                           ;Oscilador.c: 39:             break;
  6694  13BA  2BEF               	goto	l266
  6695  13BB                     l272:	
  6696                           ;Oscilador.c: 40:         case 6:
  6697                           
  6698                           
  6699                           ;Oscilador.c: 41:             OSCCONbits.IRCF0 = 0;
  6700  13BB  1683               	bsf	3,5	;RP0=1, select bank1
  6701  13BC  1303               	bcf	3,6	;RP1=0, select bank1
  6702  13BD  120F               	bcf	15,4	;volatile
  6703                           
  6704                           ;Oscilador.c: 42:             OSCCONbits.IRCF1 = 1;
  6705  13BE  168F               	bsf	15,5	;volatile
  6706                           
  6707                           ;Oscilador.c: 43:             OSCCONbits.IRCF2 = 1;
  6708  13BF  170F               	bsf	15,6	;volatile
  6709                           
  6710                           ;Oscilador.c: 44:             break;
  6711  13C0  2BEF               	goto	l266
  6712  13C1                     l273:	
  6713                           ;Oscilador.c: 45:         case 7:
  6714                           
  6715                           
  6716                           ;Oscilador.c: 46:             OSCCONbits.IRCF0 = 1;
  6717  13C1  1683               	bsf	3,5	;RP0=1, select bank1
  6718  13C2  1303               	bcf	3,6	;RP1=0, select bank1
  6719  13C3  160F               	bsf	15,4	;volatile
  6720                           
  6721                           ;Oscilador.c: 47:             OSCCONbits.IRCF1 = 1;
  6722  13C4  168F               	bsf	15,5	;volatile
  6723                           
  6724                           ;Oscilador.c: 48:             OSCCONbits.IRCF2 = 1;
  6725  13C5  170F               	bsf	15,6	;volatile
  6726                           
  6727                           ;Oscilador.c: 49:             break;
  6728  13C6  2BEF               	goto	l266
  6729  13C7                     l274:	
  6730                           ;Oscilador.c: 50:         default:
  6731                           
  6732                           
  6733                           ;Oscilador.c: 51:             OSCCONbits.IRCF0 = 0;
  6734  13C7  1683               	bsf	3,5	;RP0=1, select bank1
  6735  13C8  1303               	bcf	3,6	;RP1=0, select bank1
  6736  13C9  120F               	bcf	15,4	;volatile
  6737                           
  6738                           ;Oscilador.c: 52:             OSCCONbits.IRCF1 = 1;
  6739  13CA  168F               	bsf	15,5	;volatile
  6740                           
  6741                           ;Oscilador.c: 53:             OSCCONbits.IRCF2 = 1;
  6742  13CB  170F               	bsf	15,6	;volatile
  6743                           
  6744                           ;Oscilador.c: 54:             break;
  6745  13CC  2BEF               	goto	l266
  6746  13CD                     l2844:	
  6747  13CD  0872               	movf	initOsc@frec,w
  6748  13CE  00F0               	movwf	??_initOsc
  6749  13CF  01F1               	clrf	??_initOsc+1
  6750                           
  6751                           ; Switch on 2 bytes has been partitioned into a top level switch of size 1, and 1 sub-sw
      +                          itches
  6752                           ; Switch size 1, requested type "simple"
  6753                           ; Number of cases is 1, Range of values is 0 to 0
  6754                           ; switch strategies available:
  6755                           ; Name         Instructions Cycles
  6756                           ; simple_byte            4     3 (average)
  6757                           ; direct_byte           11     8 (fixed)
  6758                           ; jumptable            260     6 (fixed)
  6759                           ;	Chosen strategy is simple_byte
  6760  13D0  0871               	movf	??_initOsc+1,w
  6761  13D1  3A00               	xorlw	0	; case 0
  6762  13D2  1903               	skipnz
  6763  13D3  2BD5               	goto	l3532
  6764  13D4  2BC7               	goto	l274
  6765  13D5                     l3532:	
  6766                           
  6767                           ; Switch size 1, requested type "simple"
  6768                           ; Number of cases is 8, Range of values is 0 to 7
  6769                           ; switch strategies available:
  6770                           ; Name         Instructions Cycles
  6771                           ; simple_byte           25    13 (average)
  6772                           ; direct_byte           32     8 (fixed)
  6773                           ; jumptable            260     6 (fixed)
  6774                           ;	Chosen strategy is simple_byte
  6775  13D5  0870               	movf	??_initOsc,w
  6776  13D6  3A00               	xorlw	0	; case 0
  6777  13D7  1903               	skipnz
  6778  13D8  2B97               	goto	l265
  6779  13D9  3A01               	xorlw	1	; case 1
  6780  13DA  1903               	skipnz
  6781  13DB  2B9D               	goto	l267
  6782  13DC  3A03               	xorlw	3	; case 2
  6783  13DD  1903               	skipnz
  6784  13DE  2BA3               	goto	l268
  6785  13DF  3A01               	xorlw	1	; case 3
  6786  13E0  1903               	skipnz
  6787  13E1  2BA9               	goto	l269
  6788  13E2  3A07               	xorlw	7	; case 4
  6789  13E3  1903               	skipnz
  6790  13E4  2BAF               	goto	l270
  6791  13E5  3A01               	xorlw	1	; case 5
  6792  13E6  1903               	skipnz
  6793  13E7  2BB5               	goto	l271
  6794  13E8  3A03               	xorlw	3	; case 6
  6795  13E9  1903               	skipnz
  6796  13EA  2BBB               	goto	l272
  6797  13EB  3A01               	xorlw	1	; case 7
  6798  13EC  1903               	skipnz
  6799  13ED  2BC1               	goto	l273
  6800  13EE  2BC7               	goto	l274
  6801  13EF                     l266:	
  6802                           
  6803                           ;Oscilador.c: 57:     OSCCONbits.SCS = 1;
  6804  13EF  140F               	bsf	15,0	;volatile
  6805  13F0                     l275:	
  6806  13F0  0008               	return
  6807  13F1                     __end_of_initOsc:	
  6808                           
  6809                           	psect	text14
  6810  112E                     __ptext14:	
  6811 ;; *************** function _init *****************
  6812 ;; Defined at:
  6813 ;;		line 315 in file "MASTER_Proyecto.c"
  6814 ;; Parameters:    Size  Location     Type
  6815 ;;		None
  6816 ;; Auto vars:     Size  Location     Type
  6817 ;;		None
  6818 ;; Return value:  Size  Location     Type
  6819 ;;                  1    wreg      void 
  6820 ;; Registers used:
  6821 ;;		wreg, status,2, status,0, pclath, cstack
  6822 ;; Tracked objects:
  6823 ;;		On entry : 0/0
  6824 ;;		On exit  : 0/0
  6825 ;;		Unchanged: 0/0
  6826 ;; Data sizes:     COMMON   BANK0   BANK1   BANK3   BANK2
  6827 ;;      Params:         0       0       0       0       0
  6828 ;;      Locals:         0       0       0       0       0
  6829 ;;      Temps:          0       0       0       0       0
  6830 ;;      Totals:         0       0       0       0       0
  6831 ;;Total ram usage:        0 bytes
  6832 ;; Hardware stack levels used:    1
  6833 ;; Hardware stack levels required when called:    2
  6834 ;; This function calls:
  6835 ;;		_I2C_Master_Init
  6836 ;; This function is called by:
  6837 ;;		_main
  6838 ;; This function uses a non-reentrant model
  6839 ;;
  6840                           
  6841                           
  6842                           ;psect for function _init
  6843  112E                     _init:	
  6844  112E                     l2850:	
  6845                           ;incstack = 0
  6846                           ; Regs used in _init: [wreg+status,2+status,0+pclath+cstack]
  6847                           
  6848                           
  6849                           ;MASTER_Proyecto.c: 316:     TRISA = 0;
  6850  112E  1683               	bsf	3,5	;RP0=1, select bank1
  6851  112F  1303               	bcf	3,6	;RP1=0, select bank1
  6852  1130  0185               	clrf	5	;volatile
  6853                           
  6854                           ;MASTER_Proyecto.c: 317:     TRISB = 0;
  6855  1131  0186               	clrf	6	;volatile
  6856                           
  6857                           ;MASTER_Proyecto.c: 318:     TRISC = 0;
  6858  1132  0187               	clrf	7	;volatile
  6859                           
  6860                           ;MASTER_Proyecto.c: 319:     TRISD = 0;
  6861  1133  0188               	clrf	8	;volatile
  6862  1134                     l2852:	
  6863                           
  6864                           ;MASTER_Proyecto.c: 320:     TRISE = 0b00000110;
  6865  1134  3006               	movlw	6
  6866  1135  0089               	movwf	9	;volatile
  6867  1136                     l2854:	
  6868                           
  6869                           ;MASTER_Proyecto.c: 321:     ANSEL = 0;
  6870  1136  1683               	bsf	3,5	;RP0=1, select bank3
  6871  1137  1703               	bsf	3,6	;RP1=1, select bank3
  6872  1138  0188               	clrf	8	;volatile
  6873  1139                     l2856:	
  6874                           
  6875                           ;MASTER_Proyecto.c: 322:     ANSELH = 0;
  6876  1139  0189               	clrf	9	;volatile
  6877  113A                     l2858:	
  6878                           
  6879                           ;MASTER_Proyecto.c: 323:     I2C_Master_Init(100000);
  6880  113A  3000               	movlw	0
  6881  113B  1283               	bcf	3,5	;RP0=0, select bank0
  6882  113C  1303               	bcf	3,6	;RP1=0, select bank0
  6883  113D  00A3               	movwf	I2C_Master_Init@c+3
  6884  113E  3001               	movlw	1
  6885  113F  00A2               	movwf	I2C_Master_Init@c+2
  6886  1140  3086               	movlw	134
  6887  1141  00A1               	movwf	I2C_Master_Init@c+1
  6888  1142  30A0               	movlw	160
  6889  1143  00A0               	movwf	I2C_Master_Init@c
  6890  1144  160A  118A  2233  160A  118A  	fcall	_I2C_Master_Init
  6891  1149                     l143:	
  6892  1149  0008               	return
  6893  114A                     __end_of_init:	
  6894                           
  6895                           	psect	text15
  6896  1233                     __ptext15:	
  6897 ;; *************** function _I2C_Master_Init *****************
  6898 ;; Defined at:
  6899 ;;		line 7 in file "I2C.c"
  6900 ;; Parameters:    Size  Location     Type
  6901 ;;  c               4    0[BANK0 ] const unsigned long 
  6902 ;; Auto vars:     Size  Location     Type
  6903 ;;		None
  6904 ;; Return value:  Size  Location     Type
  6905 ;;                  1    wreg      void 
  6906 ;; Registers used:
  6907 ;;		wreg, status,2, status,0, pclath, cstack
  6908 ;; Tracked objects:
  6909 ;;		On entry : 0/0
  6910 ;;		On exit  : 0/0
  6911 ;;		Unchanged: 0/0
  6912 ;; Data sizes:     COMMON   BANK0   BANK1   BANK3   BANK2
  6913 ;;      Params:         0       4       0       0       0
  6914 ;;      Locals:         0       0       0       0       0
  6915 ;;      Temps:          0       4       0       0       0
  6916 ;;      Totals:         0       8       0       0       0
  6917 ;;Total ram usage:        8 bytes
  6918 ;; Hardware stack levels used:    1
  6919 ;; Hardware stack levels required when called:    1
  6920 ;; This function calls:
  6921 ;;		___lldiv
  6922 ;; This function is called by:
  6923 ;;		_init
  6924 ;; This function uses a non-reentrant model
  6925 ;;
  6926                           
  6927                           
  6928                           ;psect for function _I2C_Master_Init
  6929  1233                     _I2C_Master_Init:	
  6930  1233                     l2690:	
  6931                           ;incstack = 0
  6932                           ; Regs used in _I2C_Master_Init: [wreg+status,2+status,0+pclath+cstack]
  6933                           
  6934                           
  6935                           ;I2C.c: 7: void I2C_Master_Init(const unsigned long c);I2C.c: 8: {;I2C.c: 9:     SSPCON 
      +                          = 0b00101000;
  6936  1233  3028               	movlw	40
  6937  1234  1283               	bcf	3,5	;RP0=0, select bank0
  6938  1235  1303               	bcf	3,6	;RP1=0, select bank0
  6939  1236  0094               	movwf	20	;volatile
  6940  1237                     l2692:	
  6941                           
  6942                           ;I2C.c: 10:     SSPCON2 = 0;
  6943  1237  1683               	bsf	3,5	;RP0=1, select bank1
  6944  1238  1303               	bcf	3,6	;RP1=0, select bank1
  6945  1239  0191               	clrf	17	;volatile
  6946  123A                     l2694:	
  6947                           
  6948                           ;I2C.c: 11:     SSPADD = (8000000/(4*c))-1;
  6949  123A  1283               	bcf	3,5	;RP0=0, select bank0
  6950  123B  1303               	bcf	3,6	;RP1=0, select bank0
  6951  123C  0820               	movf	I2C_Master_Init@c,w
  6952  123D  00A4               	movwf	??_I2C_Master_Init
  6953  123E  0821               	movf	I2C_Master_Init@c+1,w
  6954  123F  00A5               	movwf	??_I2C_Master_Init+1
  6955  1240  0822               	movf	I2C_Master_Init@c+2,w
  6956  1241  00A6               	movwf	??_I2C_Master_Init+2
  6957  1242  0823               	movf	I2C_Master_Init@c+3,w
  6958  1243  00A7               	movwf	??_I2C_Master_Init+3
  6959  1244  3002               	movlw	2
  6960  1245                     u3115:	
  6961  1245  1003               	clrc
  6962  1246  0DA4               	rlf	??_I2C_Master_Init,f
  6963  1247  0DA5               	rlf	??_I2C_Master_Init+1,f
  6964  1248  0DA6               	rlf	??_I2C_Master_Init+2,f
  6965  1249  0DA7               	rlf	??_I2C_Master_Init+3,f
  6966  124A                     u3110:	
  6967  124A  3EFF               	addlw	-1
  6968  124B  1D03               	skipz
  6969  124C  2A45               	goto	u3115
  6970  124D  0827               	movf	??_I2C_Master_Init+3,w
  6971  124E  00F3               	movwf	___lldiv@divisor+3
  6972  124F  0826               	movf	??_I2C_Master_Init+2,w
  6973  1250  00F2               	movwf	___lldiv@divisor+2
  6974  1251  0825               	movf	??_I2C_Master_Init+1,w
  6975  1252  00F1               	movwf	___lldiv@divisor+1
  6976  1253  0824               	movf	??_I2C_Master_Init,w
  6977  1254  00F0               	movwf	___lldiv@divisor
  6978  1255  3000               	movlw	0
  6979  1256  00F7               	movwf	___lldiv@dividend+3
  6980  1257  307A               	movlw	122
  6981  1258  00F6               	movwf	___lldiv@dividend+2
  6982  1259  3012               	movlw	18
  6983  125A  00F5               	movwf	___lldiv@dividend+1
  6984  125B  3000               	movlw	0
  6985  125C  00F4               	movwf	___lldiv@dividend
  6986  125D  160A  118A  244D  160A  118A  	fcall	___lldiv
  6987  1262  0870               	movf	?___lldiv,w
  6988  1263  3EFF               	addlw	255
  6989  1264  1683               	bsf	3,5	;RP0=1, select bank1
  6990  1265  1303               	bcf	3,6	;RP1=0, select bank1
  6991  1266  0093               	movwf	19	;volatile
  6992  1267                     l2696:	
  6993                           
  6994                           ;I2C.c: 12:     SSPSTAT = 0;
  6995  1267  0194               	clrf	20	;volatile
  6996  1268                     l2698:	
  6997                           
  6998                           ;I2C.c: 13:     TRISCbits.TRISC3 = 1;
  6999  1268  1587               	bsf	7,3	;volatile
  7000  1269                     l2700:	
  7001                           
  7002                           ;I2C.c: 14:     TRISCbits.TRISC4 = 1;
  7003  1269  1607               	bsf	7,4	;volatile
  7004  126A                     l187:	
  7005  126A  0008               	return
  7006  126B                     __end_of_I2C_Master_Init:	
  7007                           
  7008                           	psect	text16
  7009  144D                     __ptext16:	
  7010 ;; *************** function ___lldiv *****************
  7011 ;; Defined at:
  7012 ;;		line 5 in file "C:\Program Files (x86)\Microchip\xc8\v2.10\pic\sources\c90\common\__lldiv.c"
  7013 ;; Parameters:    Size  Location     Type
  7014 ;;  divisor         4    0[COMMON] unsigned long 
  7015 ;;  dividend        4    4[COMMON] unsigned long 
  7016 ;; Auto vars:     Size  Location     Type
  7017 ;;  quotient        4    9[COMMON] unsigned long 
  7018 ;;  counter         1   13[COMMON] unsigned char 
  7019 ;; Return value:  Size  Location     Type
  7020 ;;                  4    0[COMMON] unsigned long 
  7021 ;; Registers used:
  7022 ;;		wreg, status,2, status,0
  7023 ;; Tracked objects:
  7024 ;;		On entry : 0/0
  7025 ;;		On exit  : 0/0
  7026 ;;		Unchanged: 0/0
  7027 ;; Data sizes:     COMMON   BANK0   BANK1   BANK3   BANK2
  7028 ;;      Params:         8       0       0       0       0
  7029 ;;      Locals:         5       0       0       0       0
  7030 ;;      Temps:          1       0       0       0       0
  7031 ;;      Totals:        14       0       0       0       0
  7032 ;;Total ram usage:       14 bytes
  7033 ;; Hardware stack levels used:    1
  7034 ;; This function calls:
  7035 ;;		Nothing
  7036 ;; This function is called by:
  7037 ;;		_I2C_Master_Init
  7038 ;; This function uses a non-reentrant model
  7039 ;;
  7040                           
  7041                           
  7042                           ;psect for function ___lldiv
  7043  144D                     ___lldiv:	
  7044  144D                     l2300:	
  7045                           ;incstack = 0
  7046                           ; Regs used in ___lldiv: [wreg+status,2+status,0]
  7047                           
  7048  144D  3000               	movlw	0
  7049  144E  00FC               	movwf	___lldiv@quotient+3
  7050  144F  3000               	movlw	0
  7051  1450  00FB               	movwf	___lldiv@quotient+2
  7052  1451  3000               	movlw	0
  7053  1452  00FA               	movwf	___lldiv@quotient+1
  7054  1453  3000               	movlw	0
  7055  1454  00F9               	movwf	___lldiv@quotient
  7056  1455  0873               	movf	___lldiv@divisor+3,w
  7057  1456  0472               	iorwf	___lldiv@divisor+2,w
  7058  1457  0471               	iorwf	___lldiv@divisor+1,w
  7059  1458  0470               	iorwf	___lldiv@divisor,w
  7060  1459  1903               	skipnz
  7061  145A  2C5C               	goto	u2181
  7062  145B  2C5D               	goto	u2180
  7063  145C                     u2181:	
  7064  145C  2CAA               	goto	l2320
  7065  145D                     u2180:	
  7066  145D                     l2302:	
  7067  145D  01FD               	clrf	___lldiv@counter
  7068  145E  0AFD               	incf	___lldiv@counter,f
  7069  145F  2C6D               	goto	l2306
  7070  1460                     l2304:	
  7071  1460  3001               	movlw	1
  7072  1461  00F8               	movwf	??___lldiv
  7073  1462                     u2195:	
  7074  1462  1003               	clrc
  7075  1463  0DF0               	rlf	___lldiv@divisor,f
  7076  1464  0DF1               	rlf	___lldiv@divisor+1,f
  7077  1465  0DF2               	rlf	___lldiv@divisor+2,f
  7078  1466  0DF3               	rlf	___lldiv@divisor+3,f
  7079  1467  0BF8               	decfsz	??___lldiv,f
  7080  1468  2C62               	goto	u2195
  7081  1469  3001               	movlw	1
  7082  146A  00F8               	movwf	??___lldiv
  7083  146B  0878               	movf	??___lldiv,w
  7084  146C  07FD               	addwf	___lldiv@counter,f
  7085  146D                     l2306:	
  7086  146D  1FF3               	btfss	___lldiv@divisor+3,7
  7087  146E  2C70               	goto	u2201
  7088  146F  2C71               	goto	u2200
  7089  1470                     u2201:	
  7090  1470  2C60               	goto	l2304
  7091  1471                     u2200:	
  7092  1471                     l2308:	
  7093  1471  3001               	movlw	1
  7094  1472  00F8               	movwf	??___lldiv
  7095  1473                     u2215:	
  7096  1473  1003               	clrc
  7097  1474  0DF9               	rlf	___lldiv@quotient,f
  7098  1475  0DFA               	rlf	___lldiv@quotient+1,f
  7099  1476  0DFB               	rlf	___lldiv@quotient+2,f
  7100  1477  0DFC               	rlf	___lldiv@quotient+3,f
  7101  1478  0BF8               	decfsz	??___lldiv,f
  7102  1479  2C73               	goto	u2215
  7103  147A                     l2310:	
  7104  147A  0873               	movf	___lldiv@divisor+3,w
  7105  147B  0277               	subwf	___lldiv@dividend+3,w
  7106  147C  1D03               	skipz
  7107  147D  2C88               	goto	u2225
  7108  147E  0872               	movf	___lldiv@divisor+2,w
  7109  147F  0276               	subwf	___lldiv@dividend+2,w
  7110  1480  1D03               	skipz
  7111  1481  2C88               	goto	u2225
  7112  1482  0871               	movf	___lldiv@divisor+1,w
  7113  1483  0275               	subwf	___lldiv@dividend+1,w
  7114  1484  1D03               	skipz
  7115  1485  2C88               	goto	u2225
  7116  1486  0870               	movf	___lldiv@divisor,w
  7117  1487  0274               	subwf	___lldiv@dividend,w
  7118  1488                     u2225:	
  7119  1488  1C03               	skipc
  7120  1489  2C8B               	goto	u2221
  7121  148A  2C8C               	goto	u2220
  7122  148B                     u2221:	
  7123  148B  2C9B               	goto	l2316
  7124  148C                     u2220:	
  7125  148C                     l2312:	
  7126  148C  0870               	movf	___lldiv@divisor,w
  7127  148D  02F4               	subwf	___lldiv@dividend,f
  7128  148E  0871               	movf	___lldiv@divisor+1,w
  7129  148F  1C03               	skipc
  7130  1490  0F71               	incfsz	___lldiv@divisor+1,w
  7131  1491  02F5               	subwf	___lldiv@dividend+1,f
  7132  1492  0872               	movf	___lldiv@divisor+2,w
  7133  1493  1C03               	skipc
  7134  1494  0F72               	incfsz	___lldiv@divisor+2,w
  7135  1495  02F6               	subwf	___lldiv@dividend+2,f
  7136  1496  0873               	movf	___lldiv@divisor+3,w
  7137  1497  1C03               	skipc
  7138  1498  0F73               	incfsz	___lldiv@divisor+3,w
  7139  1499  02F7               	subwf	___lldiv@dividend+3,f
  7140  149A                     l2314:	
  7141  149A  1479               	bsf	___lldiv@quotient,0
  7142  149B                     l2316:	
  7143  149B  3001               	movlw	1
  7144  149C                     u2235:	
  7145  149C  1003               	clrc
  7146  149D  0CF3               	rrf	___lldiv@divisor+3,f
  7147  149E  0CF2               	rrf	___lldiv@divisor+2,f
  7148  149F  0CF1               	rrf	___lldiv@divisor+1,f
  7149  14A0  0CF0               	rrf	___lldiv@divisor,f
  7150  14A1  3EFF               	addlw	-1
  7151  14A2  1D03               	skipz
  7152  14A3  2C9C               	goto	u2235
  7153  14A4                     l2318:	
  7154  14A4  3001               	movlw	1
  7155  14A5  02FD               	subwf	___lldiv@counter,f
  7156  14A6  1D03               	btfss	3,2
  7157  14A7  2CA9               	goto	u2241
  7158  14A8  2CAA               	goto	u2240
  7159  14A9                     u2241:	
  7160  14A9  2C71               	goto	l2308
  7161  14AA                     u2240:	
  7162  14AA                     l2320:	
  7163  14AA  087C               	movf	___lldiv@quotient+3,w
  7164  14AB  00F3               	movwf	?___lldiv+3
  7165  14AC  087B               	movf	___lldiv@quotient+2,w
  7166  14AD  00F2               	movwf	?___lldiv+2
  7167  14AE  087A               	movf	___lldiv@quotient+1,w
  7168  14AF  00F1               	movwf	?___lldiv+1
  7169  14B0  0879               	movf	___lldiv@quotient,w
  7170  14B1  00F0               	movwf	?___lldiv
  7171  14B2                     l422:	
  7172  14B2  0008               	return
  7173  14B3                     __end_of___lldiv:	
  7174                           
  7175                           	psect	text17
  7176  0800                     __ptext17:	
  7177 ;; *************** function ___lwmod *****************
  7178 ;; Defined at:
  7179 ;;		line 5 in file "C:\Program Files (x86)\Microchip\xc8\v2.10\pic\sources\c90\common\lwmod.c"
  7180 ;; Parameters:    Size  Location     Type
  7181 ;;  divisor         2    0[COMMON] unsigned int 
  7182 ;;  dividend        2    2[COMMON] unsigned int 
  7183 ;; Auto vars:     Size  Location     Type
  7184 ;;  counter         1    5[COMMON] unsigned char 
  7185 ;; Return value:  Size  Location     Type
  7186 ;;                  2    0[COMMON] unsigned int 
  7187 ;; Registers used:
  7188 ;;		wreg, status,2, status,0
  7189 ;; Tracked objects:
  7190 ;;		On entry : 0/0
  7191 ;;		On exit  : 0/0
  7192 ;;		Unchanged: 0/0
  7193 ;; Data sizes:     COMMON   BANK0   BANK1   BANK3   BANK2
  7194 ;;      Params:         4       0       0       0       0
  7195 ;;      Locals:         1       0       0       0       0
  7196 ;;      Temps:          1       0       0       0       0
  7197 ;;      Totals:         6       0       0       0       0
  7198 ;;Total ram usage:        6 bytes
  7199 ;; Hardware stack levels used:    1
  7200 ;; This function calls:
  7201 ;;		Nothing
  7202 ;; This function is called by:
  7203 ;;		_main
  7204 ;; This function uses a non-reentrant model
  7205 ;;
  7206                           
  7207                           
  7208                           ;psect for function ___lwmod
  7209  0800                     ___lwmod:	
  7210  0800                     l3106:	
  7211                           ;incstack = 0
  7212                           ; Regs used in ___lwmod: [wreg+status,2+status,0]
  7213                           
  7214  0800  0870               	movf	___lwmod@divisor,w
  7215  0801  0471               	iorwf	___lwmod@divisor+1,w
  7216  0802  1903               	btfsc	3,2
  7217  0803  2805               	goto	u3871
  7218  0804  2806               	goto	u3870
  7219  0805                     u3871:	
  7220  0805  2835               	goto	l3124
  7221  0806                     u3870:	
  7222  0806                     l3108:	
  7223  0806  01F5               	clrf	___lwmod@counter
  7224  0807  0AF5               	incf	___lwmod@counter,f
  7225  0808  2814               	goto	l3114
  7226  0809                     l3110:	
  7227  0809  3001               	movlw	1
  7228  080A                     u3885:	
  7229  080A  1003               	clrc
  7230  080B  0DF0               	rlf	___lwmod@divisor,f
  7231  080C  0DF1               	rlf	___lwmod@divisor+1,f
  7232  080D  3EFF               	addlw	-1
  7233  080E  1D03               	skipz
  7234  080F  280A               	goto	u3885
  7235  0810                     l3112:	
  7236  0810  3001               	movlw	1
  7237  0811  00F4               	movwf	??___lwmod
  7238  0812  0874               	movf	??___lwmod,w
  7239  0813  07F5               	addwf	___lwmod@counter,f
  7240  0814                     l3114:	
  7241  0814  1FF1               	btfss	___lwmod@divisor+1,7
  7242  0815  2817               	goto	u3891
  7243  0816  2818               	goto	u3890
  7244  0817                     u3891:	
  7245  0817  2809               	goto	l3110
  7246  0818                     u3890:	
  7247  0818                     l3116:	
  7248  0818  0871               	movf	___lwmod@divisor+1,w
  7249  0819  0273               	subwf	___lwmod@dividend+1,w
  7250  081A  1D03               	skipz
  7251  081B  281E               	goto	u3905
  7252  081C  0870               	movf	___lwmod@divisor,w
  7253  081D  0272               	subwf	___lwmod@dividend,w
  7254  081E                     u3905:	
  7255  081E  1C03               	skipc
  7256  081F  2821               	goto	u3901
  7257  0820  2822               	goto	u3900
  7258  0821                     u3901:	
  7259  0821  2828               	goto	l3120
  7260  0822                     u3900:	
  7261  0822                     l3118:	
  7262  0822  0870               	movf	___lwmod@divisor,w
  7263  0823  02F2               	subwf	___lwmod@dividend,f
  7264  0824  0871               	movf	___lwmod@divisor+1,w
  7265  0825  1C03               	skipc
  7266  0826  03F3               	decf	___lwmod@dividend+1,f
  7267  0827  02F3               	subwf	___lwmod@dividend+1,f
  7268  0828                     l3120:	
  7269  0828  3001               	movlw	1
  7270  0829                     u3915:	
  7271  0829  1003               	clrc
  7272  082A  0CF1               	rrf	___lwmod@divisor+1,f
  7273  082B  0CF0               	rrf	___lwmod@divisor,f
  7274  082C  3EFF               	addlw	-1
  7275  082D  1D03               	skipz
  7276  082E  2829               	goto	u3915
  7277  082F                     l3122:	
  7278  082F  3001               	movlw	1
  7279  0830  02F5               	subwf	___lwmod@counter,f
  7280  0831  1D03               	btfss	3,2
  7281  0832  2834               	goto	u3921
  7282  0833  2835               	goto	u3920
  7283  0834                     u3921:	
  7284  0834  2818               	goto	l3116
  7285  0835                     u3920:	
  7286  0835                     l3124:	
  7287  0835  0873               	movf	___lwmod@dividend+1,w
  7288  0836  00F1               	movwf	?___lwmod+1
  7289  0837  0872               	movf	___lwmod@dividend,w
  7290  0838  00F0               	movwf	?___lwmod
  7291  0839                     l668:	
  7292  0839  0008               	return
  7293  083A                     __end_of___lwmod:	
  7294                           
  7295                           	psect	text18
  7296  12AA                     __ptext18:	
  7297 ;; *************** function ___lwdiv *****************
  7298 ;; Defined at:
  7299 ;;		line 5 in file "C:\Program Files (x86)\Microchip\xc8\v2.10\pic\sources\c90\common\lwdiv.c"
  7300 ;; Parameters:    Size  Location     Type
  7301 ;;  divisor         2    0[COMMON] unsigned int 
  7302 ;;  dividend        2    2[COMMON] unsigned int 
  7303 ;; Auto vars:     Size  Location     Type
  7304 ;;  quotient        2    5[COMMON] unsigned int 
  7305 ;;  counter         1    7[COMMON] unsigned char 
  7306 ;; Return value:  Size  Location     Type
  7307 ;;                  2    0[COMMON] unsigned int 
  7308 ;; Registers used:
  7309 ;;		wreg, status,2, status,0
  7310 ;; Tracked objects:
  7311 ;;		On entry : 0/0
  7312 ;;		On exit  : 0/0
  7313 ;;		Unchanged: 0/0
  7314 ;; Data sizes:     COMMON   BANK0   BANK1   BANK3   BANK2
  7315 ;;      Params:         4       0       0       0       0
  7316 ;;      Locals:         3       0       0       0       0
  7317 ;;      Temps:          1       0       0       0       0
  7318 ;;      Totals:         8       0       0       0       0
  7319 ;;Total ram usage:        8 bytes
  7320 ;; Hardware stack levels used:    1
  7321 ;; This function calls:
  7322 ;;		Nothing
  7323 ;; This function is called by:
  7324 ;;		_main
  7325 ;; This function uses a non-reentrant model
  7326 ;;
  7327                           
  7328                           
  7329                           ;psect for function ___lwdiv
  7330  12AA                     ___lwdiv:	
  7331  12AA                     l3080:	
  7332                           ;incstack = 0
  7333                           ; Regs used in ___lwdiv: [wreg+status,2+status,0]
  7334                           
  7335  12AA  01F5               	clrf	___lwdiv@quotient
  7336  12AB  01F6               	clrf	___lwdiv@quotient+1
  7337  12AC                     l3082:	
  7338  12AC  0870               	movf	___lwdiv@divisor,w
  7339  12AD  0471               	iorwf	___lwdiv@divisor+1,w
  7340  12AE  1903               	btfsc	3,2
  7341  12AF  2AB1               	goto	u3801
  7342  12B0  2AB2               	goto	u3800
  7343  12B1                     u3801:	
  7344  12B1  2AE9               	goto	l3102
  7345  12B2                     u3800:	
  7346  12B2                     l3084:	
  7347  12B2  01F7               	clrf	___lwdiv@counter
  7348  12B3  0AF7               	incf	___lwdiv@counter,f
  7349  12B4  2AC0               	goto	l3090
  7350  12B5                     l3086:	
  7351  12B5  3001               	movlw	1
  7352  12B6                     u3815:	
  7353  12B6  1003               	clrc
  7354  12B7  0DF0               	rlf	___lwdiv@divisor,f
  7355  12B8  0DF1               	rlf	___lwdiv@divisor+1,f
  7356  12B9  3EFF               	addlw	-1
  7357  12BA  1D03               	skipz
  7358  12BB  2AB6               	goto	u3815
  7359  12BC                     l3088:	
  7360  12BC  3001               	movlw	1
  7361  12BD  00F4               	movwf	??___lwdiv
  7362  12BE  0874               	movf	??___lwdiv,w
  7363  12BF  07F7               	addwf	___lwdiv@counter,f
  7364  12C0                     l3090:	
  7365  12C0  1FF1               	btfss	___lwdiv@divisor+1,7
  7366  12C1  2AC3               	goto	u3821
  7367  12C2  2AC4               	goto	u3820
  7368  12C3                     u3821:	
  7369  12C3  2AB5               	goto	l3086
  7370  12C4                     u3820:	
  7371  12C4                     l3092:	
  7372  12C4  3001               	movlw	1
  7373  12C5                     u3835:	
  7374  12C5  1003               	clrc
  7375  12C6  0DF5               	rlf	___lwdiv@quotient,f
  7376  12C7  0DF6               	rlf	___lwdiv@quotient+1,f
  7377  12C8  3EFF               	addlw	-1
  7378  12C9  1D03               	skipz
  7379  12CA  2AC5               	goto	u3835
  7380  12CB  0871               	movf	___lwdiv@divisor+1,w
  7381  12CC  0273               	subwf	___lwdiv@dividend+1,w
  7382  12CD  1D03               	skipz
  7383  12CE  2AD1               	goto	u3845
  7384  12CF  0870               	movf	___lwdiv@divisor,w
  7385  12D0  0272               	subwf	___lwdiv@dividend,w
  7386  12D1                     u3845:	
  7387  12D1  1C03               	skipc
  7388  12D2  2AD4               	goto	u3841
  7389  12D3  2AD5               	goto	u3840
  7390  12D4                     u3841:	
  7391  12D4  2ADC               	goto	l3098
  7392  12D5                     u3840:	
  7393  12D5                     l3094:	
  7394  12D5  0870               	movf	___lwdiv@divisor,w
  7395  12D6  02F2               	subwf	___lwdiv@dividend,f
  7396  12D7  0871               	movf	___lwdiv@divisor+1,w
  7397  12D8  1C03               	skipc
  7398  12D9  03F3               	decf	___lwdiv@dividend+1,f
  7399  12DA  02F3               	subwf	___lwdiv@dividend+1,f
  7400  12DB                     l3096:	
  7401  12DB  1475               	bsf	___lwdiv@quotient,0
  7402  12DC                     l3098:	
  7403  12DC  3001               	movlw	1
  7404  12DD                     u3855:	
  7405  12DD  1003               	clrc
  7406  12DE  0CF1               	rrf	___lwdiv@divisor+1,f
  7407  12DF  0CF0               	rrf	___lwdiv@divisor,f
  7408  12E0  3EFF               	addlw	-1
  7409  12E1  1D03               	skipz
  7410  12E2  2ADD               	goto	u3855
  7411  12E3                     l3100:	
  7412  12E3  3001               	movlw	1
  7413  12E4  02F7               	subwf	___lwdiv@counter,f
  7414  12E5  1D03               	btfss	3,2
  7415  12E6  2AE8               	goto	u3861
  7416  12E7  2AE9               	goto	u3860
  7417  12E8                     u3861:	
  7418  12E8  2AC4               	goto	l3092
  7419  12E9                     u3860:	
  7420  12E9                     l3102:	
  7421  12E9  0876               	movf	___lwdiv@quotient+1,w
  7422  12EA  00F1               	movwf	?___lwdiv+1
  7423  12EB  0875               	movf	___lwdiv@quotient,w
  7424  12EC  00F0               	movwf	?___lwdiv
  7425  12ED                     l658:	
  7426  12ED  0008               	return
  7427  12EE                     __end_of___lwdiv:	
  7428                           
  7429                           	psect	text19
  7430  14B3                     __ptext19:	
  7431 ;; *************** function ___fltol *****************
  7432 ;; Defined at:
  7433 ;;		line 43 in file "C:\Program Files (x86)\Microchip\xc8\v2.10\pic\sources\c90\common\fltol.c"
  7434 ;; Parameters:    Size  Location     Type
  7435 ;;  f1              4    0[COMMON] unsigned int 
  7436 ;; Auto vars:     Size  Location     Type
  7437 ;;  exp1            1   10[COMMON] unsigned char 
  7438 ;;  sign1           1    9[COMMON] unsigned char 
  7439 ;; Return value:  Size  Location     Type
  7440 ;;                  4    0[COMMON] long 
  7441 ;; Registers used:
  7442 ;;		wreg, status,2, status,0
  7443 ;; Tracked objects:
  7444 ;;		On entry : 0/0
  7445 ;;		On exit  : 0/0
  7446 ;;		Unchanged: 0/0
  7447 ;; Data sizes:     COMMON   BANK0   BANK1   BANK3   BANK2
  7448 ;;      Params:         4       0       0       0       0
  7449 ;;      Locals:         2       0       0       0       0
  7450 ;;      Temps:          5       0       0       0       0
  7451 ;;      Totals:        11       0       0       0       0
  7452 ;;Total ram usage:       11 bytes
  7453 ;; Hardware stack levels used:    1
  7454 ;; This function calls:
  7455 ;;		Nothing
  7456 ;; This function is called by:
  7457 ;;		_main
  7458 ;; This function uses a non-reentrant model
  7459 ;;
  7460                           
  7461                           
  7462                           ;psect for function ___fltol
  7463  14B3                     ___fltol:	
  7464  14B3                     l3044:	
  7465                           ;incstack = 0
  7466                           ; Regs used in ___fltol: [wreg+status,2+status,0]
  7467                           
  7468  14B3  1003               	clrc
  7469  14B4  0D72               	rlf	___fltol@f1+2,w
  7470  14B5  0D73               	rlf	___fltol@f1+3,w
  7471  14B6  00F4               	movwf	??___fltol
  7472  14B7  0874               	movf	??___fltol,w
  7473  14B8  00FA               	movwf	___fltol@exp1
  7474  14B9  087A               	movf	___fltol@exp1,w
  7475  14BA  1D03               	btfss	3,2
  7476  14BB  2CBD               	goto	u3701
  7477  14BC  2CBE               	goto	u3700
  7478  14BD                     u3701:	
  7479  14BD  2CC7               	goto	l3050
  7480  14BE                     u3700:	
  7481  14BE                     l3046:	
  7482  14BE  3000               	movlw	0
  7483  14BF  00F3               	movwf	?___fltol+3
  7484  14C0  3000               	movlw	0
  7485  14C1  00F2               	movwf	?___fltol+2
  7486  14C2  3000               	movlw	0
  7487  14C3  00F1               	movwf	?___fltol+1
  7488  14C4  3000               	movlw	0
  7489  14C5  00F0               	movwf	?___fltol
  7490  14C6  2D2C               	goto	l572
  7491  14C7                     l3050:	
  7492  14C7  0870               	movf	___fltol@f1,w
  7493  14C8  00F4               	movwf	??___fltol
  7494  14C9  0871               	movf	___fltol@f1+1,w
  7495  14CA  00F5               	movwf	??___fltol+1
  7496  14CB  0872               	movf	___fltol@f1+2,w
  7497  14CC  00F6               	movwf	??___fltol+2
  7498  14CD  0873               	movf	___fltol@f1+3,w
  7499  14CE  00F7               	movwf	??___fltol+3
  7500  14CF  301F               	movlw	31
  7501  14D0                     u3715:	
  7502  14D0  1003               	clrc
  7503  14D1  0CF7               	rrf	??___fltol+3,f
  7504  14D2  0CF6               	rrf	??___fltol+2,f
  7505  14D3  0CF5               	rrf	??___fltol+1,f
  7506  14D4  0CF4               	rrf	??___fltol,f
  7507  14D5                     u3710:	
  7508  14D5  3EFF               	addlw	-1
  7509  14D6  1D03               	skipz
  7510  14D7  2CD0               	goto	u3715
  7511  14D8  0874               	movf	??___fltol,w
  7512  14D9  00F8               	movwf	??___fltol+4
  7513  14DA  0878               	movf	??___fltol+4,w
  7514  14DB  00F9               	movwf	___fltol@sign1
  7515  14DC                     l3052:	
  7516  14DC  17F2               	bsf	___fltol@f1+2,7
  7517  14DD                     l3054:	
  7518  14DD  30FF               	movlw	255
  7519  14DE  05F0               	andwf	___fltol@f1,f
  7520  14DF  30FF               	movlw	255
  7521  14E0  05F1               	andwf	___fltol@f1+1,f
  7522  14E1  30FF               	movlw	255
  7523  14E2  05F2               	andwf	___fltol@f1+2,f
  7524  14E3  3000               	movlw	0
  7525  14E4  05F3               	andwf	___fltol@f1+3,f
  7526  14E5                     l3056:	
  7527  14E5  3096               	movlw	150
  7528  14E6  02FA               	subwf	___fltol@exp1,f
  7529  14E7                     l3058:	
  7530  14E7  1FFA               	btfss	___fltol@exp1,7
  7531  14E8  2CEA               	goto	u3721
  7532  14E9  2CEB               	goto	u3720
  7533  14EA                     u3721:	
  7534  14EA  2D05               	goto	l3068
  7535  14EB                     u3720:	
  7536  14EB                     l3060:	
  7537  14EB  087A               	movf	___fltol@exp1,w
  7538  14EC  3A80               	xorlw	128
  7539  14ED  3E97               	addlw	151
  7540  14EE  1803               	skipnc
  7541  14EF  2CF1               	goto	u3731
  7542  14F0  2CF2               	goto	u3730
  7543  14F1                     u3731:	
  7544  14F1  2CF3               	goto	l3066
  7545  14F2                     u3730:	
  7546  14F2  2CBE               	goto	l3046
  7547  14F3                     l3066:	
  7548  14F3  3001               	movlw	1
  7549  14F4                     u3745:	
  7550  14F4  1003               	clrc
  7551  14F5  0CF3               	rrf	___fltol@f1+3,f
  7552  14F6  0CF2               	rrf	___fltol@f1+2,f
  7553  14F7  0CF1               	rrf	___fltol@f1+1,f
  7554  14F8  0CF0               	rrf	___fltol@f1,f
  7555  14F9  3EFF               	addlw	-1
  7556  14FA  1D03               	skipz
  7557  14FB  2CF4               	goto	u3745
  7558  14FC  3001               	movlw	1
  7559  14FD  00F4               	movwf	??___fltol
  7560  14FE  0874               	movf	??___fltol,w
  7561  14FF  07FA               	addwf	___fltol@exp1,f
  7562  1500  1D03               	btfss	3,2
  7563  1501  2D03               	goto	u3751
  7564  1502  2D04               	goto	u3750
  7565  1503                     u3751:	
  7566  1503  2CF3               	goto	l3066
  7567  1504                     u3750:	
  7568  1504  2D1C               	goto	l3076
  7569  1505                     l3068:	
  7570  1505  3020               	movlw	32
  7571  1506  027A               	subwf	___fltol@exp1,w
  7572  1507  1C03               	skipc
  7573  1508  2D0A               	goto	u3761
  7574  1509  2D0B               	goto	u3760
  7575  150A                     u3761:	
  7576  150A  2D17               	goto	l579
  7577  150B                     u3760:	
  7578  150B  2CBE               	goto	l3046
  7579  150C                     l3074:	
  7580  150C  3001               	movlw	1
  7581  150D  00F4               	movwf	??___fltol
  7582  150E                     u3775:	
  7583  150E  1003               	clrc
  7584  150F  0DF0               	rlf	___fltol@f1,f
  7585  1510  0DF1               	rlf	___fltol@f1+1,f
  7586  1511  0DF2               	rlf	___fltol@f1+2,f
  7587  1512  0DF3               	rlf	___fltol@f1+3,f
  7588  1513  0BF4               	decfsz	??___fltol,f
  7589  1514  2D0E               	goto	u3775
  7590  1515  3001               	movlw	1
  7591  1516  02FA               	subwf	___fltol@exp1,f
  7592  1517                     l579:	
  7593  1517  087A               	movf	___fltol@exp1,w
  7594  1518  1D03               	btfss	3,2
  7595  1519  2D1B               	goto	u3781
  7596  151A  2D1C               	goto	u3780
  7597  151B                     u3781:	
  7598  151B  2D0C               	goto	l3074
  7599  151C                     u3780:	
  7600  151C                     l3076:	
  7601  151C  0879               	movf	___fltol@sign1,w
  7602  151D  1903               	btfsc	3,2
  7603  151E  2D20               	goto	u3791
  7604  151F  2D21               	goto	u3790
  7605  1520                     u3791:	
  7606  1520  2D2C               	goto	l582
  7607  1521                     u3790:	
  7608  1521                     l3078:	
  7609  1521  09F0               	comf	___fltol@f1,f
  7610  1522  09F1               	comf	___fltol@f1+1,f
  7611  1523  09F2               	comf	___fltol@f1+2,f
  7612  1524  09F3               	comf	___fltol@f1+3,f
  7613  1525  0AF0               	incf	___fltol@f1,f
  7614  1526  1903               	skipnz
  7615  1527  0AF1               	incf	___fltol@f1+1,f
  7616  1528  1903               	skipnz
  7617  1529  0AF2               	incf	___fltol@f1+2,f
  7618  152A  1903               	skipnz
  7619  152B  0AF3               	incf	___fltol@f1+3,f
  7620  152C                     l582:	
  7621  152C                     l572:	
  7622  152C  0008               	return
  7623  152D                     __end_of___fltol:	
  7624                           
  7625                           	psect	text20
  7626  083A                     __ptext20:	
  7627 ;; *************** function ___fldiv *****************
  7628 ;; Defined at:
  7629 ;;		line 8 in file "C:\Program Files (x86)\Microchip\xc8\v2.10\pic\sources\c90\common\sprcdiv.c"
  7630 ;; Parameters:    Size  Location     Type
  7631 ;;  a               4    5[BANK0 ] long 
  7632 ;;  b               4    9[BANK0 ] long 
  7633 ;; Auto vars:     Size  Location     Type
  7634 ;;  grs             4   25[BANK0 ] unsigned long 
  7635 ;;  rem             4   18[BANK0 ] unsigned long 
  7636 ;;  new_exp         2   23[BANK0 ] int 
  7637 ;;  aexp            1   30[BANK0 ] unsigned char 
  7638 ;;  bexp            1   29[BANK0 ] unsigned char 
  7639 ;;  sign            1   22[BANK0 ] unsigned char 
  7640 ;; Return value:  Size  Location     Type
  7641 ;;                  4    5[BANK0 ] unsigned char 
  7642 ;; Registers used:
  7643 ;;		wreg, status,2, status,0, btemp+1
  7644 ;; Tracked objects:
  7645 ;;		On entry : 0/0
  7646 ;;		On exit  : 0/0
  7647 ;;		Unchanged: 0/0
  7648 ;; Data sizes:     COMMON   BANK0   BANK1   BANK3   BANK2
  7649 ;;      Params:         0       8       0       0       0
  7650 ;;      Locals:         0      13       0       0       0
  7651 ;;      Temps:          0       5       0       0       0
  7652 ;;      Totals:         0      26       0       0       0
  7653 ;;Total ram usage:       26 bytes
  7654 ;; Hardware stack levels used:    1
  7655 ;; This function calls:
  7656 ;;		Nothing
  7657 ;; This function is called by:
  7658 ;;		_main
  7659 ;; This function uses a non-reentrant model
  7660 ;;
  7661                           
  7662                           
  7663                           ;psect for function ___fldiv
  7664  083A                     ___fldiv:	
  7665  083A                     l3128:	
  7666                           ;incstack = 0
  7667                           ; Regs used in ___fldiv: [wreg+status,2+status,0+btemp+1]
  7668                           
  7669  083A  1283               	bcf	3,5	;RP0=0, select bank0
  7670  083B  1303               	bcf	3,6	;RP1=0, select bank0
  7671  083C  082C               	movf	___fldiv@b+3,w
  7672  083D  3980               	andlw	128
  7673  083E  00AD               	movwf	??___fldiv
  7674  083F  082D               	movf	??___fldiv,w
  7675  0840  00B6               	movwf	___fldiv@sign
  7676  0841                     l3130:	
  7677  0841  082C               	movf	___fldiv@b+3,w
  7678  0842  00AD               	movwf	??___fldiv
  7679  0843  072D               	addwf	??___fldiv,w
  7680  0844  00AE               	movwf	??___fldiv+1
  7681  0845  082E               	movf	??___fldiv+1,w
  7682  0846  00BD               	movwf	___fldiv@bexp
  7683  0847                     l3132:	
  7684  0847  1FAB               	btfss	___fldiv@b+2,7
  7685  0848  284A               	goto	u3931
  7686  0849  284B               	goto	u3930
  7687  084A                     u3931:	
  7688  084A  284C               	goto	l3136
  7689  084B                     u3930:	
  7690  084B                     l3134:	
  7691  084B  143D               	bsf	___fldiv@bexp,0
  7692  084C                     l3136:	
  7693  084C  083D               	movf	___fldiv@bexp,w
  7694  084D  1903               	btfsc	3,2
  7695  084E  2850               	goto	u3941
  7696  084F  2851               	goto	u3940
  7697  0850                     u3941:	
  7698  0850  2861               	goto	l3146
  7699  0851                     u3940:	
  7700  0851                     l3138:	
  7701  0851  0A3D               	incf	___fldiv@bexp,w
  7702  0852  1D03               	btfss	3,2
  7703  0853  2855               	goto	u3951
  7704  0854  2856               	goto	u3950
  7705  0855                     u3951:	
  7706  0855  285E               	goto	l3142
  7707  0856                     u3950:	
  7708  0856                     l3140:	
  7709  0856  3000               	movlw	0
  7710  0857  00AC               	movwf	___fldiv@b+3
  7711  0858  3000               	movlw	0
  7712  0859  00AB               	movwf	___fldiv@b+2
  7713  085A  3000               	movlw	0
  7714  085B  00AA               	movwf	___fldiv@b+1
  7715  085C  3000               	movlw	0
  7716  085D  00A9               	movwf	___fldiv@b
  7717  085E                     l3142:	
  7718  085E  17AB               	bsf	___fldiv@b+2,7
  7719  085F                     l3144:	
  7720  085F  01AC               	clrf	___fldiv@b+3
  7721  0860  2869               	goto	l3148
  7722  0861                     l3146:	
  7723  0861  3000               	movlw	0
  7724  0862  00AC               	movwf	___fldiv@b+3
  7725  0863  3000               	movlw	0
  7726  0864  00AB               	movwf	___fldiv@b+2
  7727  0865  3000               	movlw	0
  7728  0866  00AA               	movwf	___fldiv@b+1
  7729  0867  3000               	movlw	0
  7730  0868  00A9               	movwf	___fldiv@b
  7731  0869                     l3148:	
  7732  0869  0828               	movf	___fldiv@a+3,w
  7733  086A  3980               	andlw	128
  7734  086B  00AD               	movwf	??___fldiv
  7735  086C  082D               	movf	??___fldiv,w
  7736  086D  06B6               	xorwf	___fldiv@sign,f
  7737  086E                     l3150:	
  7738  086E  0828               	movf	___fldiv@a+3,w
  7739  086F  00AD               	movwf	??___fldiv
  7740  0870  072D               	addwf	??___fldiv,w
  7741  0871  00AE               	movwf	??___fldiv+1
  7742  0872  082E               	movf	??___fldiv+1,w
  7743  0873  00BE               	movwf	___fldiv@aexp
  7744  0874                     l3152:	
  7745  0874  1FA7               	btfss	___fldiv@a+2,7
  7746  0875  2877               	goto	u3961
  7747  0876  2878               	goto	u3960
  7748  0877                     u3961:	
  7749  0877  2879               	goto	l3156
  7750  0878                     u3960:	
  7751  0878                     l3154:	
  7752  0878  143E               	bsf	___fldiv@aexp,0
  7753  0879                     l3156:	
  7754  0879  083E               	movf	___fldiv@aexp,w
  7755  087A  1903               	btfsc	3,2
  7756  087B  287D               	goto	u3971
  7757  087C  287E               	goto	u3970
  7758  087D                     u3971:	
  7759  087D  288E               	goto	l3166
  7760  087E                     u3970:	
  7761  087E                     l3158:	
  7762  087E  0A3E               	incf	___fldiv@aexp,w
  7763  087F  1D03               	btfss	3,2
  7764  0880  2882               	goto	u3981
  7765  0881  2883               	goto	u3980
  7766  0882                     u3981:	
  7767  0882  288B               	goto	l3162
  7768  0883                     u3980:	
  7769  0883                     l3160:	
  7770  0883  3000               	movlw	0
  7771  0884  00A8               	movwf	___fldiv@a+3
  7772  0885  3000               	movlw	0
  7773  0886  00A7               	movwf	___fldiv@a+2
  7774  0887  3000               	movlw	0
  7775  0888  00A6               	movwf	___fldiv@a+1
  7776  0889  3000               	movlw	0
  7777  088A  00A5               	movwf	___fldiv@a
  7778  088B                     l3162:	
  7779  088B  17A7               	bsf	___fldiv@a+2,7
  7780  088C                     l3164:	
  7781  088C  01A8               	clrf	___fldiv@a+3
  7782  088D  2896               	goto	l735
  7783  088E                     l3166:	
  7784  088E  3000               	movlw	0
  7785  088F  00A8               	movwf	___fldiv@a+3
  7786  0890  3000               	movlw	0
  7787  0891  00A7               	movwf	___fldiv@a+2
  7788  0892  3000               	movlw	0
  7789  0893  00A6               	movwf	___fldiv@a+1
  7790  0894  3000               	movlw	0
  7791  0895  00A5               	movwf	___fldiv@a
  7792  0896                     l735:	
  7793  0896  0828               	movf	___fldiv@a+3,w
  7794  0897  0427               	iorwf	___fldiv@a+2,w
  7795  0898  0426               	iorwf	___fldiv@a+1,w
  7796  0899  0425               	iorwf	___fldiv@a,w
  7797  089A  1D03               	skipz
  7798  089B  289D               	goto	u3991
  7799  089C  289E               	goto	u3990
  7800  089D                     u3991:	
  7801  089D  28B7               	goto	l3176
  7802  089E                     u3990:	
  7803  089E                     l3168:	
  7804  089E  3000               	movlw	0
  7805  089F  00AC               	movwf	___fldiv@b+3
  7806  08A0  3000               	movlw	0
  7807  08A1  00AB               	movwf	___fldiv@b+2
  7808  08A2  3000               	movlw	0
  7809  08A3  00AA               	movwf	___fldiv@b+1
  7810  08A4  3000               	movlw	0
  7811  08A5  00A9               	movwf	___fldiv@b
  7812  08A6  3080               	movlw	128
  7813  08A7  04AB               	iorwf	___fldiv@b+2,f
  7814  08A8  307F               	movlw	127
  7815  08A9  04AC               	iorwf	___fldiv@b+3,f
  7816  08AA                     l3170:	
  7817  08AA  0836               	movf	___fldiv@sign,w
  7818  08AB  00AD               	movwf	??___fldiv
  7819  08AC  082D               	movf	??___fldiv,w
  7820  08AD  04AC               	iorwf	___fldiv@b+3,f
  7821  08AE                     l3172:	
  7822  08AE  082C               	movf	___fldiv@b+3,w
  7823  08AF  00A8               	movwf	?___fldiv+3
  7824  08B0  082B               	movf	___fldiv@b+2,w
  7825  08B1  00A7               	movwf	?___fldiv+2
  7826  08B2  082A               	movf	___fldiv@b+1,w
  7827  08B3  00A6               	movwf	?___fldiv+1
  7828  08B4  0829               	movf	___fldiv@b,w
  7829  08B5  00A5               	movwf	?___fldiv
  7830  08B6  2A16               	goto	l737
  7831  08B7                     l3176:	
  7832  08B7  083D               	movf	___fldiv@bexp,w
  7833  08B8  1D03               	btfss	3,2
  7834  08B9  28BB               	goto	u4001
  7835  08BA  28BC               	goto	u4000
  7836  08BB                     u4001:	
  7837  08BB  28C5               	goto	l3182
  7838  08BC                     u4000:	
  7839  08BC                     l3178:	
  7840  08BC  3000               	movlw	0
  7841  08BD  00A8               	movwf	?___fldiv+3
  7842  08BE  3000               	movlw	0
  7843  08BF  00A7               	movwf	?___fldiv+2
  7844  08C0  3000               	movlw	0
  7845  08C1  00A6               	movwf	?___fldiv+1
  7846  08C2  3000               	movlw	0
  7847  08C3  00A5               	movwf	?___fldiv
  7848  08C4  2A16               	goto	l737
  7849  08C5                     l3182:	
  7850  08C5  083D               	movf	___fldiv@bexp,w
  7851  08C6  00AD               	movwf	??___fldiv
  7852  08C7  01AE               	clrf	??___fldiv+1
  7853  08C8  082E               	movf	??___fldiv+1,w
  7854  08C9  00B0               	movwf	??___fldiv+3
  7855  08CA  083E               	movf	___fldiv@aexp,w
  7856  08CB  022D               	subwf	??___fldiv,w
  7857  08CC  00AF               	movwf	??___fldiv+2
  7858  08CD  1C03               	skipc
  7859  08CE  03B0               	decf	??___fldiv+3,f
  7860  08CF  082F               	movf	??___fldiv+2,w
  7861  08D0  3E7F               	addlw	127
  7862  08D1  00B7               	movwf	___fldiv@new_exp
  7863  08D2  0830               	movf	??___fldiv+3,w
  7864  08D3  1803               	skipnc
  7865  08D4  3E01               	addlw	1
  7866  08D5  3E00               	addlw	0
  7867  08D6  00B8               	movwf	___fldiv@new_exp+1
  7868  08D7                     l3184:	
  7869  08D7  082C               	movf	___fldiv@b+3,w
  7870  08D8  00B5               	movwf	___fldiv@rem+3
  7871  08D9  082B               	movf	___fldiv@b+2,w
  7872  08DA  00B4               	movwf	___fldiv@rem+2
  7873  08DB  082A               	movf	___fldiv@b+1,w
  7874  08DC  00B3               	movwf	___fldiv@rem+1
  7875  08DD  0829               	movf	___fldiv@b,w
  7876  08DE  00B2               	movwf	___fldiv@rem
  7877  08DF                     l3186:	
  7878  08DF  3000               	movlw	0
  7879  08E0  00AC               	movwf	___fldiv@b+3
  7880  08E1  3000               	movlw	0
  7881  08E2  00AB               	movwf	___fldiv@b+2
  7882  08E3  3000               	movlw	0
  7883  08E4  00AA               	movwf	___fldiv@b+1
  7884  08E5  3000               	movlw	0
  7885  08E6  00A9               	movwf	___fldiv@b
  7886  08E7                     l3188:	
  7887  08E7  3000               	movlw	0
  7888  08E8  00BC               	movwf	___fldiv@grs+3
  7889  08E9  3000               	movlw	0
  7890  08EA  00BB               	movwf	___fldiv@grs+2
  7891  08EB  3000               	movlw	0
  7892  08EC  00BA               	movwf	___fldiv@grs+1
  7893  08ED  3000               	movlw	0
  7894  08EE  00B9               	movwf	___fldiv@grs
  7895  08EF                     l3190:	
  7896  08EF  01BE               	clrf	___fldiv@aexp
  7897  08F0  293B               	goto	l3210
  7898  08F1                     l3192:	
  7899  08F1  083E               	movf	___fldiv@aexp,w
  7900  08F2  1903               	btfsc	3,2
  7901  08F3  28F5               	goto	u4011
  7902  08F4  28F6               	goto	u4010
  7903  08F5                     u4011:	
  7904  08F5  2916               	goto	l3202
  7905  08F6                     u4010:	
  7906  08F6                     l3194:	
  7907  08F6  3001               	movlw	1
  7908  08F7  00AD               	movwf	??___fldiv
  7909  08F8                     u4025:	
  7910  08F8  1003               	clrc
  7911  08F9  0DB2               	rlf	___fldiv@rem,f
  7912  08FA  0DB3               	rlf	___fldiv@rem+1,f
  7913  08FB  0DB4               	rlf	___fldiv@rem+2,f
  7914  08FC  0DB5               	rlf	___fldiv@rem+3,f
  7915  08FD  0BAD               	decfsz	??___fldiv,f
  7916  08FE  28F8               	goto	u4025
  7917  08FF  3001               	movlw	1
  7918  0900  00AD               	movwf	??___fldiv
  7919  0901                     u4035:	
  7920  0901  1003               	clrc
  7921  0902  0DA9               	rlf	___fldiv@b,f
  7922  0903  0DAA               	rlf	___fldiv@b+1,f
  7923  0904  0DAB               	rlf	___fldiv@b+2,f
  7924  0905  0DAC               	rlf	___fldiv@b+3,f
  7925  0906  0BAD               	decfsz	??___fldiv,f
  7926  0907  2901               	goto	u4035
  7927  0908                     l3196:	
  7928  0908  1FBC               	btfss	___fldiv@grs+3,7
  7929  0909  290B               	goto	u4041
  7930  090A  290C               	goto	u4040
  7931  090B                     u4041:	
  7932  090B  290D               	goto	l3200
  7933  090C                     u4040:	
  7934  090C                     l3198:	
  7935  090C  1429               	bsf	___fldiv@b,0
  7936  090D                     l3200:	
  7937  090D  3001               	movlw	1
  7938  090E  00AD               	movwf	??___fldiv
  7939  090F                     u4055:	
  7940  090F  1003               	clrc
  7941  0910  0DB9               	rlf	___fldiv@grs,f
  7942  0911  0DBA               	rlf	___fldiv@grs+1,f
  7943  0912  0DBB               	rlf	___fldiv@grs+2,f
  7944  0913  0DBC               	rlf	___fldiv@grs+3,f
  7945  0914  0BAD               	decfsz	??___fldiv,f
  7946  0915  290F               	goto	u4055
  7947  0916                     l3202:	
  7948  0916  0828               	movf	___fldiv@a+3,w
  7949  0917  0235               	subwf	___fldiv@rem+3,w
  7950  0918  1D03               	skipz
  7951  0919  2924               	goto	u4065
  7952  091A  0827               	movf	___fldiv@a+2,w
  7953  091B  0234               	subwf	___fldiv@rem+2,w
  7954  091C  1D03               	skipz
  7955  091D  2924               	goto	u4065
  7956  091E  0826               	movf	___fldiv@a+1,w
  7957  091F  0233               	subwf	___fldiv@rem+1,w
  7958  0920  1D03               	skipz
  7959  0921  2924               	goto	u4065
  7960  0922  0825               	movf	___fldiv@a,w
  7961  0923  0232               	subwf	___fldiv@rem,w
  7962  0924                     u4065:	
  7963  0924  1C03               	skipc
  7964  0925  2927               	goto	u4061
  7965  0926  2928               	goto	u4060
  7966  0927                     u4061:	
  7967  0927  2937               	goto	l3208
  7968  0928                     u4060:	
  7969  0928                     l3204:	
  7970  0928  173C               	bsf	___fldiv@grs+3,6
  7971  0929                     l3206:	
  7972  0929  0825               	movf	___fldiv@a,w
  7973  092A  02B2               	subwf	___fldiv@rem,f
  7974  092B  0826               	movf	___fldiv@a+1,w
  7975  092C  1C03               	skipc
  7976  092D  0F26               	incfsz	___fldiv@a+1,w
  7977  092E  02B3               	subwf	___fldiv@rem+1,f
  7978  092F  0827               	movf	___fldiv@a+2,w
  7979  0930  1C03               	skipc
  7980  0931  0F27               	incfsz	___fldiv@a+2,w
  7981  0932  02B4               	subwf	___fldiv@rem+2,f
  7982  0933  0828               	movf	___fldiv@a+3,w
  7983  0934  1C03               	skipc
  7984  0935  0F28               	incfsz	___fldiv@a+3,w
  7985  0936  02B5               	subwf	___fldiv@rem+3,f
  7986  0937                     l3208:	
  7987  0937  3001               	movlw	1
  7988  0938  00AD               	movwf	??___fldiv
  7989  0939  082D               	movf	??___fldiv,w
  7990  093A  07BE               	addwf	___fldiv@aexp,f
  7991  093B                     l3210:	
  7992  093B  301A               	movlw	26
  7993  093C  023E               	subwf	___fldiv@aexp,w
  7994  093D  1C03               	skipc
  7995  093E  2940               	goto	u4071
  7996  093F  2941               	goto	u4070
  7997  0940                     u4071:	
  7998  0940  28F1               	goto	l3192
  7999  0941                     u4070:	
  8000  0941                     l3212:	
  8001  0941  0835               	movf	___fldiv@rem+3,w
  8002  0942  0434               	iorwf	___fldiv@rem+2,w
  8003  0943  0433               	iorwf	___fldiv@rem+1,w
  8004  0944  0432               	iorwf	___fldiv@rem,w
  8005  0945  1903               	skipnz
  8006  0946  2948               	goto	u4081
  8007  0947  2949               	goto	u4080
  8008  0948                     u4081:	
  8009  0948  2968               	goto	l3226
  8010  0949                     u4080:	
  8011  0949                     l3214:	
  8012  0949  1439               	bsf	___fldiv@grs,0
  8013  094A  2968               	goto	l3226
  8014  094B                     l3216:	
  8015  094B  3001               	movlw	1
  8016  094C  00AD               	movwf	??___fldiv
  8017  094D                     u4095:	
  8018  094D  1003               	clrc
  8019  094E  0DA9               	rlf	___fldiv@b,f
  8020  094F  0DAA               	rlf	___fldiv@b+1,f
  8021  0950  0DAB               	rlf	___fldiv@b+2,f
  8022  0951  0DAC               	rlf	___fldiv@b+3,f
  8023  0952  0BAD               	decfsz	??___fldiv,f
  8024  0953  294D               	goto	u4095
  8025  0954                     l3218:	
  8026  0954  1FBC               	btfss	___fldiv@grs+3,7
  8027  0955  2957               	goto	u4101
  8028  0956  2958               	goto	u4100
  8029  0957                     u4101:	
  8030  0957  2959               	goto	l3222
  8031  0958                     u4100:	
  8032  0958                     l3220:	
  8033  0958  1429               	bsf	___fldiv@b,0
  8034  0959                     l3222:	
  8035  0959  3001               	movlw	1
  8036  095A  00AD               	movwf	??___fldiv
  8037  095B                     u4115:	
  8038  095B  1003               	clrc
  8039  095C  0DB9               	rlf	___fldiv@grs,f
  8040  095D  0DBA               	rlf	___fldiv@grs+1,f
  8041  095E  0DBB               	rlf	___fldiv@grs+2,f
  8042  095F  0DBC               	rlf	___fldiv@grs+3,f
  8043  0960  0BAD               	decfsz	??___fldiv,f
  8044  0961  295B               	goto	u4115
  8045  0962                     l3224:	
  8046  0962  30FF               	movlw	255
  8047  0963  07B7               	addwf	___fldiv@new_exp,f
  8048  0964  1803               	skipnc
  8049  0965  0AB8               	incf	___fldiv@new_exp+1,f
  8050  0966  30FF               	movlw	255
  8051  0967  07B8               	addwf	___fldiv@new_exp+1,f
  8052  0968                     l3226:	
  8053  0968  1FAB               	btfss	___fldiv@b+2,7
  8054  0969  296B               	goto	u4121
  8055  096A  296C               	goto	u4120
  8056  096B                     u4121:	
  8057  096B  294B               	goto	l3216
  8058  096C                     u4120:	
  8059  096C                     l3228:	
  8060  096C  01BE               	clrf	___fldiv@aexp
  8061  096D                     l3230:	
  8062  096D  1FBC               	btfss	___fldiv@grs+3,7
  8063  096E  2970               	goto	u4131
  8064  096F  2971               	goto	u4130
  8065  0970                     u4131:	
  8066  0970  298D               	goto	l3238
  8067  0971                     u4130:	
  8068  0971                     l3232:	
  8069  0971  30FF               	movlw	255
  8070  0972  0539               	andwf	___fldiv@grs,w
  8071  0973  00AD               	movwf	??___fldiv
  8072  0974  30FF               	movlw	255
  8073  0975  053A               	andwf	___fldiv@grs+1,w
  8074  0976  00AE               	movwf	??___fldiv+1
  8075  0977  30FF               	movlw	255
  8076  0978  053B               	andwf	___fldiv@grs+2,w
  8077  0979  00AF               	movwf	??___fldiv+2
  8078  097A  307F               	movlw	127
  8079  097B  053C               	andwf	___fldiv@grs+3,w
  8080  097C  00B0               	movwf	??___fldiv+3
  8081  097D  0830               	movf	??___fldiv+3,w
  8082  097E  042F               	iorwf	??___fldiv+2,w
  8083  097F  042E               	iorwf	??___fldiv+1,w
  8084  0980  042D               	iorwf	??___fldiv,w
  8085  0981  1903               	skipnz
  8086  0982  2984               	goto	u4141
  8087  0983  2985               	goto	u4140
  8088  0984                     u4141:	
  8089  0984  2988               	goto	l751
  8090  0985                     u4140:	
  8091  0985                     l3234:	
  8092  0985  01BE               	clrf	___fldiv@aexp
  8093  0986  0ABE               	incf	___fldiv@aexp,f
  8094  0987  298D               	goto	l3238
  8095  0988                     l751:	
  8096  0988  1C29               	btfss	___fldiv@b,0
  8097  0989  298B               	goto	u4151
  8098  098A  298C               	goto	u4150
  8099  098B                     u4151:	
  8100  098B  298D               	goto	l3238
  8101  098C                     u4150:	
  8102  098C  2985               	goto	l3234
  8103  098D                     l3238:	
  8104  098D  083E               	movf	___fldiv@aexp,w
  8105  098E  1903               	btfsc	3,2
  8106  098F  2991               	goto	u4161
  8107  0990  2992               	goto	u4160
  8108  0991                     u4161:	
  8109  0991  29C3               	goto	l3248
  8110  0992                     u4160:	
  8111  0992                     l3240:	
  8112  0992  3001               	movlw	1
  8113  0993  07A9               	addwf	___fldiv@b,f
  8114  0994  3000               	movlw	0
  8115  0995  1803               	skipnc
  8116  0996  3001               	movlw	1
  8117  0997  07AA               	addwf	___fldiv@b+1,f
  8118  0998  3000               	movlw	0
  8119  0999  1803               	skipnc
  8120  099A  3001               	movlw	1
  8121  099B  07AB               	addwf	___fldiv@b+2,f
  8122  099C  3000               	movlw	0
  8123  099D  1803               	skipnc
  8124  099E  3001               	movlw	1
  8125  099F  07AC               	addwf	___fldiv@b+3,f
  8126  09A0                     l3242:	
  8127  09A0  1C2C               	btfss	___fldiv@b+3,0
  8128  09A1  29A3               	goto	u4171
  8129  09A2  29A4               	goto	u4170
  8130  09A3                     u4171:	
  8131  09A3  29C3               	goto	l3248
  8132  09A4                     u4170:	
  8133  09A4                     l3244:	
  8134  09A4  0829               	movf	___fldiv@b,w
  8135  09A5  00AD               	movwf	??___fldiv
  8136  09A6  082A               	movf	___fldiv@b+1,w
  8137  09A7  00AE               	movwf	??___fldiv+1
  8138  09A8  082B               	movf	___fldiv@b+2,w
  8139  09A9  00AF               	movwf	??___fldiv+2
  8140  09AA  082C               	movf	___fldiv@b+3,w
  8141  09AB  00B0               	movwf	??___fldiv+3
  8142  09AC  3001               	movlw	1
  8143  09AD  00B1               	movwf	??___fldiv+4
  8144  09AE                     u4185:	
  8145  09AE  0D30               	rlf	??___fldiv+3,w
  8146  09AF  0CB0               	rrf	??___fldiv+3,f
  8147  09B0  0CAF               	rrf	??___fldiv+2,f
  8148  09B1  0CAE               	rrf	??___fldiv+1,f
  8149  09B2  0CAD               	rrf	??___fldiv,f
  8150  09B3                     u4180:	
  8151  09B3  0BB1               	decfsz	??___fldiv+4,f
  8152  09B4  29AE               	goto	u4185
  8153  09B5  0830               	movf	??___fldiv+3,w
  8154  09B6  00AC               	movwf	___fldiv@b+3
  8155  09B7  082F               	movf	??___fldiv+2,w
  8156  09B8  00AB               	movwf	___fldiv@b+2
  8157  09B9  082E               	movf	??___fldiv+1,w
  8158  09BA  00AA               	movwf	___fldiv@b+1
  8159  09BB  082D               	movf	??___fldiv,w
  8160  09BC  00A9               	movwf	___fldiv@b
  8161  09BD                     l3246:	
  8162  09BD  3001               	movlw	1
  8163  09BE  07B7               	addwf	___fldiv@new_exp,f
  8164  09BF  1803               	skipnc
  8165  09C0  0AB8               	incf	___fldiv@new_exp+1,f
  8166  09C1  3000               	movlw	0
  8167  09C2  07B8               	addwf	___fldiv@new_exp+1,f
  8168  09C3                     l3248:	
  8169  09C3  0838               	movf	___fldiv@new_exp+1,w
  8170  09C4  3A80               	xorlw	128
  8171  09C5  00FF               	movwf	btemp+1
  8172  09C6  3080               	movlw	128
  8173  09C7  027F               	subwf	btemp+1,w
  8174  09C8  1D03               	skipz
  8175  09C9  29CC               	goto	u4195
  8176  09CA  30FF               	movlw	255
  8177  09CB  0237               	subwf	___fldiv@new_exp,w
  8178  09CC                     u4195:	
  8179  09CC  1C03               	skipc
  8180  09CD  29CF               	goto	u4191
  8181  09CE  29D0               	goto	u4190
  8182  09CF                     u4191:	
  8183  09CF  29DE               	goto	l3252
  8184  09D0                     u4190:	
  8185  09D0                     l3250:	
  8186  09D0  30FF               	movlw	255
  8187  09D1  1283               	bcf	3,5	;RP0=0, select bank0
  8188  09D2  1303               	bcf	3,6	;RP1=0, select bank0
  8189  09D3  00B7               	movwf	___fldiv@new_exp
  8190  09D4  3000               	movlw	0
  8191  09D5  00B8               	movwf	___fldiv@new_exp+1
  8192  09D6  3000               	movlw	0
  8193  09D7  00AC               	movwf	___fldiv@b+3
  8194  09D8  3000               	movlw	0
  8195  09D9  00AB               	movwf	___fldiv@b+2
  8196  09DA  3000               	movlw	0
  8197  09DB  00AA               	movwf	___fldiv@b+1
  8198  09DC  3000               	movlw	0
  8199  09DD  00A9               	movwf	___fldiv@b
  8200  09DE                     l3252:	
  8201  09DE  1283               	bcf	3,5	;RP0=0, select bank0
  8202  09DF  1303               	bcf	3,6	;RP1=0, select bank0
  8203  09E0  0838               	movf	___fldiv@new_exp+1,w
  8204  09E1  3A80               	xorlw	128
  8205  09E2  00FF               	movwf	btemp+1
  8206  09E3  3080               	movlw	128
  8207  09E4  027F               	subwf	btemp+1,w
  8208  09E5  1D03               	skipz
  8209  09E6  29E9               	goto	u4205
  8210  09E7  3001               	movlw	1
  8211  09E8  0237               	subwf	___fldiv@new_exp,w
  8212  09E9                     u4205:	
  8213  09E9  1803               	skipnc
  8214  09EA  29EC               	goto	u4201
  8215  09EB  29ED               	goto	u4200
  8216  09EC                     u4201:	
  8217  09EC  29FA               	goto	l757
  8218  09ED                     u4200:	
  8219  09ED                     l3254:	
  8220  09ED  1283               	bcf	3,5	;RP0=0, select bank0
  8221  09EE  1303               	bcf	3,6	;RP1=0, select bank0
  8222  09EF  01B7               	clrf	___fldiv@new_exp
  8223  09F0  01B8               	clrf	___fldiv@new_exp+1
  8224  09F1                     l3256:	
  8225  09F1  3000               	movlw	0
  8226  09F2  00AC               	movwf	___fldiv@b+3
  8227  09F3  3000               	movlw	0
  8228  09F4  00AB               	movwf	___fldiv@b+2
  8229  09F5  3000               	movlw	0
  8230  09F6  00AA               	movwf	___fldiv@b+1
  8231  09F7  3000               	movlw	0
  8232  09F8  00A9               	movwf	___fldiv@b
  8233  09F9                     l3258:	
  8234  09F9  01B6               	clrf	___fldiv@sign
  8235  09FA                     l757:	
  8236  09FA  1283               	bcf	3,5	;RP0=0, select bank0
  8237  09FB  1303               	bcf	3,6	;RP1=0, select bank0
  8238  09FC  0837               	movf	___fldiv@new_exp,w
  8239  09FD  00AD               	movwf	??___fldiv
  8240  09FE  082D               	movf	??___fldiv,w
  8241  09FF  00BD               	movwf	___fldiv@bexp
  8242  0A00                     l3260:	
  8243  0A00  1C3D               	btfss	___fldiv@bexp,0
  8244  0A01  2A03               	goto	u4211
  8245  0A02  2A04               	goto	u4210
  8246  0A03                     u4211:	
  8247  0A03  2A06               	goto	l3264
  8248  0A04                     u4210:	
  8249  0A04                     l3262:	
  8250  0A04  17AB               	bsf	___fldiv@b+2,7
  8251  0A05  2A0A               	goto	l759
  8252  0A06                     l3264:	
  8253  0A06  307F               	movlw	127
  8254  0A07  00AD               	movwf	??___fldiv
  8255  0A08  082D               	movf	??___fldiv,w
  8256  0A09  05AB               	andwf	___fldiv@b+2,f
  8257  0A0A                     l759:	
  8258  0A0A  083D               	movf	___fldiv@bexp,w
  8259  0A0B  00AD               	movwf	??___fldiv
  8260  0A0C  1003               	clrc
  8261  0A0D  0C2D               	rrf	??___fldiv,w
  8262  0A0E  00AE               	movwf	??___fldiv+1
  8263  0A0F  082E               	movf	??___fldiv+1,w
  8264  0A10  00AC               	movwf	___fldiv@b+3
  8265  0A11  0836               	movf	___fldiv@sign,w
  8266  0A12  00AD               	movwf	??___fldiv
  8267  0A13  082D               	movf	??___fldiv,w
  8268  0A14  04AC               	iorwf	___fldiv@b+3,f
  8269  0A15  28AE               	goto	l3172
  8270  0A16                     l737:	
  8271  0A16  0008               	return
  8272  0A17                     __end_of___fldiv:	
  8273                           
  8274                           	psect	text21
  8275  133C                     __ptext21:	
  8276 ;; *************** function ___awmod *****************
  8277 ;; Defined at:
  8278 ;;		line 5 in file "C:\Program Files (x86)\Microchip\xc8\v2.10\pic\sources\c90\common\awmod.c"
  8279 ;; Parameters:    Size  Location     Type
  8280 ;;  divisor         2    0[COMMON] int 
  8281 ;;  dividend        2    2[COMMON] int 
  8282 ;; Auto vars:     Size  Location     Type
  8283 ;;  sign            1    6[COMMON] unsigned char 
  8284 ;;  counter         1    5[COMMON] unsigned char 
  8285 ;; Return value:  Size  Location     Type
  8286 ;;                  2    0[COMMON] int 
  8287 ;; Registers used:
  8288 ;;		wreg, status,2, status,0
  8289 ;; Tracked objects:
  8290 ;;		On entry : 0/0
  8291 ;;		On exit  : 0/0
  8292 ;;		Unchanged: 0/0
  8293 ;; Data sizes:     COMMON   BANK0   BANK1   BANK3   BANK2
  8294 ;;      Params:         4       0       0       0       0
  8295 ;;      Locals:         2       0       0       0       0
  8296 ;;      Temps:          1       0       0       0       0
  8297 ;;      Totals:         7       0       0       0       0
  8298 ;;Total ram usage:        7 bytes
  8299 ;; Hardware stack levels used:    1
  8300 ;; This function calls:
  8301 ;;		Nothing
  8302 ;; This function is called by:
  8303 ;;		_main
  8304 ;; This function uses a non-reentrant model
  8305 ;;
  8306                           
  8307                           
  8308                           ;psect for function ___awmod
  8309  133C                     ___awmod:	
  8310  133C                     l3006:	
  8311                           ;incstack = 0
  8312                           ; Regs used in ___awmod: [wreg+status,2+status,0]
  8313                           
  8314  133C  01F6               	clrf	___awmod@sign
  8315  133D                     l3008:	
  8316  133D  1FF3               	btfss	___awmod@dividend+1,7
  8317  133E  2B40               	goto	u3611
  8318  133F  2B41               	goto	u3610
  8319  1340                     u3611:	
  8320  1340  2B48               	goto	l3014
  8321  1341                     u3610:	
  8322  1341                     l3010:	
  8323  1341  09F2               	comf	___awmod@dividend,f
  8324  1342  09F3               	comf	___awmod@dividend+1,f
  8325  1343  0AF2               	incf	___awmod@dividend,f
  8326  1344  1903               	skipnz
  8327  1345  0AF3               	incf	___awmod@dividend+1,f
  8328  1346                     l3012:	
  8329  1346  01F6               	clrf	___awmod@sign
  8330  1347  0AF6               	incf	___awmod@sign,f
  8331  1348                     l3014:	
  8332  1348  1FF1               	btfss	___awmod@divisor+1,7
  8333  1349  2B4B               	goto	u3621
  8334  134A  2B4C               	goto	u3620
  8335  134B                     u3621:	
  8336  134B  2B51               	goto	l3018
  8337  134C                     u3620:	
  8338  134C                     l3016:	
  8339  134C  09F0               	comf	___awmod@divisor,f
  8340  134D  09F1               	comf	___awmod@divisor+1,f
  8341  134E  0AF0               	incf	___awmod@divisor,f
  8342  134F  1903               	skipnz
  8343  1350  0AF1               	incf	___awmod@divisor+1,f
  8344  1351                     l3018:	
  8345  1351  0870               	movf	___awmod@divisor,w
  8346  1352  0471               	iorwf	___awmod@divisor+1,w
  8347  1353  1903               	btfsc	3,2
  8348  1354  2B56               	goto	u3631
  8349  1355  2B57               	goto	u3630
  8350  1356                     u3631:	
  8351  1356  2B86               	goto	l3036
  8352  1357                     u3630:	
  8353  1357                     l3020:	
  8354  1357  01F5               	clrf	___awmod@counter
  8355  1358  0AF5               	incf	___awmod@counter,f
  8356  1359  2B65               	goto	l3026
  8357  135A                     l3022:	
  8358  135A  3001               	movlw	1
  8359  135B                     u3645:	
  8360  135B  1003               	clrc
  8361  135C  0DF0               	rlf	___awmod@divisor,f
  8362  135D  0DF1               	rlf	___awmod@divisor+1,f
  8363  135E  3EFF               	addlw	-1
  8364  135F  1D03               	skipz
  8365  1360  2B5B               	goto	u3645
  8366  1361                     l3024:	
  8367  1361  3001               	movlw	1
  8368  1362  00F4               	movwf	??___awmod
  8369  1363  0874               	movf	??___awmod,w
  8370  1364  07F5               	addwf	___awmod@counter,f
  8371  1365                     l3026:	
  8372  1365  1FF1               	btfss	___awmod@divisor+1,7
  8373  1366  2B68               	goto	u3651
  8374  1367  2B69               	goto	u3650
  8375  1368                     u3651:	
  8376  1368  2B5A               	goto	l3022
  8377  1369                     u3650:	
  8378  1369                     l3028:	
  8379  1369  0871               	movf	___awmod@divisor+1,w
  8380  136A  0273               	subwf	___awmod@dividend+1,w
  8381  136B  1D03               	skipz
  8382  136C  2B6F               	goto	u3665
  8383  136D  0870               	movf	___awmod@divisor,w
  8384  136E  0272               	subwf	___awmod@dividend,w
  8385  136F                     u3665:	
  8386  136F  1C03               	skipc
  8387  1370  2B72               	goto	u3661
  8388  1371  2B73               	goto	u3660
  8389  1372                     u3661:	
  8390  1372  2B79               	goto	l3032
  8391  1373                     u3660:	
  8392  1373                     l3030:	
  8393  1373  0870               	movf	___awmod@divisor,w
  8394  1374  02F2               	subwf	___awmod@dividend,f
  8395  1375  0871               	movf	___awmod@divisor+1,w
  8396  1376  1C03               	skipc
  8397  1377  03F3               	decf	___awmod@dividend+1,f
  8398  1378  02F3               	subwf	___awmod@dividend+1,f
  8399  1379                     l3032:	
  8400  1379  3001               	movlw	1
  8401  137A                     u3675:	
  8402  137A  1003               	clrc
  8403  137B  0CF1               	rrf	___awmod@divisor+1,f
  8404  137C  0CF0               	rrf	___awmod@divisor,f
  8405  137D  3EFF               	addlw	-1
  8406  137E  1D03               	skipz
  8407  137F  2B7A               	goto	u3675
  8408  1380                     l3034:	
  8409  1380  3001               	movlw	1
  8410  1381  02F5               	subwf	___awmod@counter,f
  8411  1382  1D03               	btfss	3,2
  8412  1383  2B85               	goto	u3681
  8413  1384  2B86               	goto	u3680
  8414  1385                     u3681:	
  8415  1385  2B69               	goto	l3028
  8416  1386                     u3680:	
  8417  1386                     l3036:	
  8418  1386  0876               	movf	___awmod@sign,w
  8419  1387  1903               	btfsc	3,2
  8420  1388  2B8A               	goto	u3691
  8421  1389  2B8B               	goto	u3690
  8422  138A                     u3691:	
  8423  138A  2B90               	goto	l3040
  8424  138B                     u3690:	
  8425  138B                     l3038:	
  8426  138B  09F2               	comf	___awmod@dividend,f
  8427  138C  09F3               	comf	___awmod@dividend+1,f
  8428  138D  0AF2               	incf	___awmod@dividend,f
  8429  138E  1903               	skipnz
  8430  138F  0AF3               	incf	___awmod@dividend+1,f
  8431  1390                     l3040:	
  8432  1390  0873               	movf	___awmod@dividend+1,w
  8433  1391  00F1               	movwf	?___awmod+1
  8434  1392  0872               	movf	___awmod@dividend,w
  8435  1393  00F0               	movwf	?___awmod
  8436  1394                     l552:	
  8437  1394  0008               	return
  8438  1395                     __end_of___awmod:	
  8439                           
  8440                           	psect	text22
  8441  126B                     __ptext22:	
  8442 ;; *************** function _Val_STR *****************
  8443 ;; Defined at:
  8444 ;;		line 329 in file "MASTER_Proyecto.c"
  8445 ;; Parameters:    Size  Location     Type
  8446 ;;  num             1    wreg     unsigned char 
  8447 ;; Auto vars:     Size  Location     Type
  8448 ;;  num             1    2[COMMON] unsigned char 
  8449 ;; Return value:  Size  Location     Type
  8450 ;;                  1    wreg      unsigned char 
  8451 ;; Registers used:
  8452 ;;		wreg, fsr0l, fsr0h, status,2, status,0
  8453 ;; Tracked objects:
  8454 ;;		On entry : 0/0
  8455 ;;		On exit  : 0/0
  8456 ;;		Unchanged: 0/0
  8457 ;; Data sizes:     COMMON   BANK0   BANK1   BANK3   BANK2
  8458 ;;      Params:         0       0       0       0       0
  8459 ;;      Locals:         1       0       0       0       0
  8460 ;;      Temps:          2       0       0       0       0
  8461 ;;      Totals:         3       0       0       0       0
  8462 ;;Total ram usage:        3 bytes
  8463 ;; Hardware stack levels used:    1
  8464 ;; This function calls:
  8465 ;;		Nothing
  8466 ;; This function is called by:
  8467 ;;		_main
  8468 ;; This function uses a non-reentrant model
  8469 ;;
  8470                           
  8471                           
  8472                           ;psect for function _Val_STR
  8473  126B                     _Val_STR:	
  8474                           
  8475                           ;incstack = 0
  8476                           ; Regs used in _Val_STR: [wreg-fsr0h+status,2+status,0]
  8477                           ;Val_STR@num stored from wreg
  8478  126B  00F2               	movwf	Val_STR@num
  8479  126C                     l2956:	
  8480                           
  8481                           ;MASTER_Proyecto.c: 330:     switch(num){
  8482  126C  2A81               	goto	l3000
  8483  126D                     l2958:	
  8484                           
  8485                           ;MASTER_Proyecto.c: 332:             return '0';
  8486  126D  3030               	movlw	48
  8487  126E  2AA9               	goto	l148
  8488  126F                     l2962:	
  8489                           
  8490                           ;MASTER_Proyecto.c: 335:             return '1';
  8491  126F  3031               	movlw	49
  8492  1270  2AA9               	goto	l148
  8493  1271                     l2966:	
  8494                           
  8495                           ;MASTER_Proyecto.c: 338:             return '2';
  8496  1271  3032               	movlw	50
  8497  1272  2AA9               	goto	l148
  8498  1273                     l2970:	
  8499                           
  8500                           ;MASTER_Proyecto.c: 341:             return '3';
  8501  1273  3033               	movlw	51
  8502  1274  2AA9               	goto	l148
  8503  1275                     l2974:	
  8504                           
  8505                           ;MASTER_Proyecto.c: 344:             return '4';
  8506  1275  3034               	movlw	52
  8507  1276  2AA9               	goto	l148
  8508  1277                     l2978:	
  8509                           
  8510                           ;MASTER_Proyecto.c: 347:             return '5';
  8511  1277  3035               	movlw	53
  8512  1278  2AA9               	goto	l148
  8513  1279                     l2982:	
  8514                           
  8515                           ;MASTER_Proyecto.c: 350:             return '6';
  8516  1279  3036               	movlw	54
  8517  127A  2AA9               	goto	l148
  8518  127B                     l2986:	
  8519                           
  8520                           ;MASTER_Proyecto.c: 353:             return '7';
  8521  127B  3037               	movlw	55
  8522  127C  2AA9               	goto	l148
  8523  127D                     l2990:	
  8524                           
  8525                           ;MASTER_Proyecto.c: 356:             return '8';
  8526  127D  3038               	movlw	56
  8527  127E  2AA9               	goto	l148
  8528  127F                     l2994:	
  8529                           
  8530                           ;MASTER_Proyecto.c: 359:             return '9';
  8531  127F  3039               	movlw	57
  8532  1280  2AA9               	goto	l148
  8533  1281                     l3000:	
  8534  1281  0872               	movf	Val_STR@num,w
  8535  1282  00F0               	movwf	??_Val_STR
  8536  1283  01F1               	clrf	??_Val_STR+1
  8537                           
  8538                           ; Switch on 2 bytes has been partitioned into a top level switch of size 1, and 1 sub-sw
      +                          itches
  8539                           ; Switch size 1, requested type "simple"
  8540                           ; Number of cases is 1, Range of values is 0 to 0
  8541                           ; switch strategies available:
  8542                           ; Name         Instructions Cycles
  8543                           ; simple_byte            4     3 (average)
  8544                           ; direct_byte           11     8 (fixed)
  8545                           ; jumptable            260     6 (fixed)
  8546                           ;	Chosen strategy is simple_byte
  8547  1284  0871               	movf	??_Val_STR+1,w
  8548  1285  3A00               	xorlw	0	; case 0
  8549  1286  1903               	skipnz
  8550  1287  2A89               	goto	l3534
  8551  1288  2AA9               	goto	l148
  8552  1289                     l3534:	
  8553                           
  8554                           ; Switch size 1, requested type "simple"
  8555                           ; Number of cases is 10, Range of values is 0 to 9
  8556                           ; switch strategies available:
  8557                           ; Name         Instructions Cycles
  8558                           ; simple_byte           31    16 (average)
  8559                           ; direct_byte           38     8 (fixed)
  8560                           ; jumptable            260     6 (fixed)
  8561                           ;	Chosen strategy is simple_byte
  8562  1289  0870               	movf	??_Val_STR,w
  8563  128A  3A00               	xorlw	0	; case 0
  8564  128B  1903               	skipnz
  8565  128C  2A6D               	goto	l2958
  8566  128D  3A01               	xorlw	1	; case 1
  8567  128E  1903               	skipnz
  8568  128F  2A6F               	goto	l2962
  8569  1290  3A03               	xorlw	3	; case 2
  8570  1291  1903               	skipnz
  8571  1292  2A71               	goto	l2966
  8572  1293  3A01               	xorlw	1	; case 3
  8573  1294  1903               	skipnz
  8574  1295  2A73               	goto	l2970
  8575  1296  3A07               	xorlw	7	; case 4
  8576  1297  1903               	skipnz
  8577  1298  2A75               	goto	l2974
  8578  1299  3A01               	xorlw	1	; case 5
  8579  129A  1903               	skipnz
  8580  129B  2A77               	goto	l2978
  8581  129C  3A03               	xorlw	3	; case 6
  8582  129D  1903               	skipnz
  8583  129E  2A79               	goto	l2982
  8584  129F  3A01               	xorlw	1	; case 7
  8585  12A0  1903               	skipnz
  8586  12A1  2A7B               	goto	l2986
  8587  12A2  3A0F               	xorlw	15	; case 8
  8588  12A3  1903               	skipnz
  8589  12A4  2A7D               	goto	l2990
  8590  12A5  3A01               	xorlw	1	; case 9
  8591  12A6  1903               	skipnz
  8592  12A7  2A7F               	goto	l2994
  8593  12A8  2AA9               	goto	l148
  8594  12A9                     l148:	
  8595  12A9  0008               	return
  8596  12AA                     __end_of_Val_STR:	
  8597                           
  8598                           	psect	text23
  8599  10E2                     __ptext23:	
  8600 ;; *************** function _UART_Write *****************
  8601 ;; Defined at:
  8602 ;;		line 42 in file "UART.c"
  8603 ;; Parameters:    Size  Location     Type
  8604 ;;  data            1    wreg     unsigned char 
  8605 ;; Auto vars:     Size  Location     Type
  8606 ;;  data            1    0[COMMON] unsigned char 
  8607 ;; Return value:  Size  Location     Type
  8608 ;;                  1    wreg      void 
  8609 ;; Registers used:
  8610 ;;		wreg
  8611 ;; Tracked objects:
  8612 ;;		On entry : 0/0
  8613 ;;		On exit  : 0/0
  8614 ;;		Unchanged: 0/0
  8615 ;; Data sizes:     COMMON   BANK0   BANK1   BANK3   BANK2
  8616 ;;      Params:         0       0       0       0       0
  8617 ;;      Locals:         1       0       0       0       0
  8618 ;;      Temps:          0       0       0       0       0
  8619 ;;      Totals:         1       0       0       0       0
  8620 ;;Total ram usage:        1 bytes
  8621 ;; Hardware stack levels used:    1
  8622 ;; This function calls:
  8623 ;;		Nothing
  8624 ;; This function is called by:
  8625 ;;		_main
  8626 ;; This function uses a non-reentrant model
  8627 ;;
  8628                           
  8629                           
  8630                           ;psect for function _UART_Write
  8631  10E2                     _UART_Write:	
  8632                           
  8633                           ;incstack = 0
  8634                           ; Regs used in _UART_Write: [wreg]
  8635                           ;UART_Write@data stored from wreg
  8636  10E2  00F0               	movwf	UART_Write@data
  8637  10E3                     l2930:	
  8638  10E3                     l297:	
  8639                           ;UART.c: 43:   while(!TXSTAbits.TRMT);
  8640                           
  8641  10E3  1683               	bsf	3,5	;RP0=1, select bank1
  8642  10E4  1303               	bcf	3,6	;RP1=0, select bank1
  8643  10E5  1C98               	btfss	24,1	;volatile
  8644  10E6  28E8               	goto	u3581
  8645  10E7  28E9               	goto	u3580
  8646  10E8                     u3581:	
  8647  10E8  28E3               	goto	l297
  8648  10E9                     u3580:	
  8649  10E9                     l2932:	
  8650                           
  8651                           ;UART.c: 44:   TXREG = data;
  8652  10E9  0870               	movf	UART_Write@data,w
  8653  10EA  1283               	bcf	3,5	;RP0=0, select bank0
  8654  10EB  1303               	bcf	3,6	;RP1=0, select bank0
  8655  10EC  0099               	movwf	25	;volatile
  8656  10ED                     l300:	
  8657  10ED  0008               	return
  8658  10EE                     __end_of_UART_Write:	
  8659                           
  8660                           	psect	text24
  8661  0009                     __ptext24:	
  8662 ;; *************** function _UART_Init *****************
  8663 ;; Defined at:
  8664 ;;		line 18 in file "UART.c"
  8665 ;; Parameters:    Size  Location     Type
  8666 ;;  baudrate        4    6[BANK0 ] const long 
  8667 ;; Auto vars:     Size  Location     Type
  8668 ;;		None
  8669 ;; Return value:  Size  Location     Type
  8670 ;;                  1    wreg      unsigned char 
  8671 ;; Registers used:
  8672 ;;		wreg, status,2, status,0, pclath, cstack
  8673 ;; Tracked objects:
  8674 ;;		On entry : 0/0
  8675 ;;		On exit  : 0/0
  8676 ;;		Unchanged: 0/0
  8677 ;; Data sizes:     COMMON   BANK0   BANK1   BANK3   BANK2
  8678 ;;      Params:         0       4       0       0       0
  8679 ;;      Locals:         0       0       0       0       0
  8680 ;;      Temps:          0      12       0       0       0
  8681 ;;      Totals:         0      16       0       0       0
  8682 ;;Total ram usage:       16 bytes
  8683 ;; Hardware stack levels used:    1
  8684 ;; Hardware stack levels required when called:    1
  8685 ;; This function calls:
  8686 ;;		___aldiv
  8687 ;; This function is called by:
  8688 ;;		_main
  8689 ;; This function uses a non-reentrant model
  8690 ;;
  8691                           
  8692                           
  8693                           ;psect for function _UART_Init
  8694  0009                     _UART_Init:	
  8695  0009                     l2862:	
  8696                           ;incstack = 0
  8697                           ; Regs used in _UART_Init: [wreg+status,2+status,0+pclath+cstack]
  8698                           
  8699                           
  8700                           ;UART.c: 19:  SPBRG = (8000000 - baudrate*16)/(baudrate*16);
  8701  0009  1283               	bcf	3,5	;RP0=0, select bank0
  8702  000A  1303               	bcf	3,6	;RP1=0, select bank0
  8703  000B  0826               	movf	UART_Init@baudrate,w
  8704  000C  00AA               	movwf	??_UART_Init
  8705  000D  0827               	movf	UART_Init@baudrate+1,w
  8706  000E  00AB               	movwf	??_UART_Init+1
  8707  000F  0828               	movf	UART_Init@baudrate+2,w
  8708  0010  00AC               	movwf	??_UART_Init+2
  8709  0011  0829               	movf	UART_Init@baudrate+3,w
  8710  0012  00AD               	movwf	??_UART_Init+3
  8711  0013  3004               	movlw	4
  8712  0014                     u3495:	
  8713  0014  1003               	clrc
  8714  0015  0DAA               	rlf	??_UART_Init,f
  8715  0016  0DAB               	rlf	??_UART_Init+1,f
  8716  0017  0DAC               	rlf	??_UART_Init+2,f
  8717  0018  0DAD               	rlf	??_UART_Init+3,f
  8718  0019                     u3490:	
  8719  0019  3EFF               	addlw	-1
  8720  001A  1D03               	skipz
  8721  001B  2814               	goto	u3495
  8722  001C  082D               	movf	??_UART_Init+3,w
  8723  001D  00F3               	movwf	___aldiv@divisor+3
  8724  001E  082C               	movf	??_UART_Init+2,w
  8725  001F  00F2               	movwf	___aldiv@divisor+2
  8726  0020  082B               	movf	??_UART_Init+1,w
  8727  0021  00F1               	movwf	___aldiv@divisor+1
  8728  0022  082A               	movf	??_UART_Init,w
  8729  0023  00F0               	movwf	___aldiv@divisor
  8730  0024  0826               	movf	UART_Init@baudrate,w
  8731  0025  00AE               	movwf	??_UART_Init+4
  8732  0026  0827               	movf	UART_Init@baudrate+1,w
  8733  0027  00AF               	movwf	??_UART_Init+5
  8734  0028  0828               	movf	UART_Init@baudrate+2,w
  8735  0029  00B0               	movwf	??_UART_Init+6
  8736  002A  0829               	movf	UART_Init@baudrate+3,w
  8737  002B  00B1               	movwf	??_UART_Init+7
  8738  002C  3004               	movlw	4
  8739  002D                     u3505:	
  8740  002D  1003               	clrc
  8741  002E  0DAE               	rlf	??_UART_Init+4,f
  8742  002F  0DAF               	rlf	??_UART_Init+5,f
  8743  0030  0DB0               	rlf	??_UART_Init+6,f
  8744  0031  0DB1               	rlf	??_UART_Init+7,f
  8745  0032                     u3500:	
  8746  0032  3EFF               	addlw	-1
  8747  0033  1D03               	skipz
  8748  0034  282D               	goto	u3505
  8749  0035  3000               	movlw	0
  8750  0036  00B2               	movwf	??_UART_Init+8
  8751  0037  3012               	movlw	18
  8752  0038  00B3               	movwf	??_UART_Init+9
  8753  0039  307A               	movlw	122
  8754  003A  00B4               	movwf	??_UART_Init+10
  8755  003B  3000               	movlw	0
  8756  003C  00B5               	movwf	??_UART_Init+11
  8757  003D  082E               	movf	??_UART_Init+4,w
  8758  003E  02B2               	subwf	??_UART_Init+8,f
  8759  003F  082F               	movf	??_UART_Init+5,w
  8760  0040  1C03               	skipc
  8761  0041  0F2F               	incfsz	??_UART_Init+5,w
  8762  0042  2844               	goto	u3511
  8763  0043  2845               	goto	u3512
  8764  0044                     u3511:	
  8765  0044  02B3               	subwf	??_UART_Init+9,f
  8766  0045                     u3512:	
  8767  0045  0830               	movf	??_UART_Init+6,w
  8768  0046  1C03               	skipc
  8769  0047  0F30               	incfsz	??_UART_Init+6,w
  8770  0048  284A               	goto	u3513
  8771  0049  284B               	goto	u3514
  8772  004A                     u3513:	
  8773  004A  02B4               	subwf	??_UART_Init+10,f
  8774  004B                     u3514:	
  8775  004B  0831               	movf	??_UART_Init+7,w
  8776  004C  1C03               	skipc
  8777  004D  0F31               	incfsz	??_UART_Init+7,w
  8778  004E  2850               	goto	u3515
  8779  004F  2851               	goto	u3516
  8780  0050                     u3515:	
  8781  0050  02B5               	subwf	??_UART_Init+11,f
  8782  0051                     u3516:	
  8783  0051  0835               	movf	??_UART_Init+11,w
  8784  0052  00F7               	movwf	___aldiv@dividend+3
  8785  0053  0834               	movf	??_UART_Init+10,w
  8786  0054  00F6               	movwf	___aldiv@dividend+2
  8787  0055  0833               	movf	??_UART_Init+9,w
  8788  0056  00F5               	movwf	___aldiv@dividend+1
  8789  0057  0832               	movf	??_UART_Init+8,w
  8790  0058  00F4               	movwf	___aldiv@dividend
  8791  0059  160A  118A  252D  120A  118A  	fcall	___aldiv
  8792  005E  0870               	movf	?___aldiv,w
  8793  005F  1683               	bsf	3,5	;RP0=1, select bank1
  8794  0060  1303               	bcf	3,6	;RP1=0, select bank1
  8795  0061  0099               	movwf	25	;volatile
  8796  0062                     l2864:	
  8797                           
  8798                           ;UART.c: 20:     TXSTAbits.BRGH = 1;
  8799  0062  1518               	bsf	24,2	;volatile
  8800  0063                     l2866:	
  8801                           
  8802                           ;UART.c: 21:     TXSTAbits.SYNC = 0;
  8803  0063  1218               	bcf	24,4	;volatile
  8804  0064                     l2868:	
  8805                           
  8806                           ;UART.c: 22:     RCSTAbits.SPEN = 1;
  8807  0064  1283               	bcf	3,5	;RP0=0, select bank0
  8808  0065  1303               	bcf	3,6	;RP1=0, select bank0
  8809  0066  1798               	bsf	24,7	;volatile
  8810  0067                     l2870:	
  8811                           
  8812                           ;UART.c: 23:     RCSTAbits.CREN = 1;
  8813  0067  1618               	bsf	24,4	;volatile
  8814  0068                     l2872:	
  8815                           
  8816                           ;UART.c: 24:     TXSTAbits.TXEN = 1;
  8817  0068  1683               	bsf	3,5	;RP0=1, select bank1
  8818  0069  1303               	bcf	3,6	;RP1=0, select bank1
  8819  006A  1698               	bsf	24,5	;volatile
  8820  006B                     l2874:	
  8821                           
  8822                           ;UART.c: 25:     TXSTAbits.TX9 = 0;
  8823  006B  1318               	bcf	24,6	;volatile
  8824  006C                     l2876:	
  8825                           
  8826                           ;UART.c: 26:     RCSTAbits.RX9 = 0;
  8827  006C  1283               	bcf	3,5	;RP0=0, select bank0
  8828  006D  1303               	bcf	3,6	;RP1=0, select bank0
  8829  006E  1318               	bcf	24,6	;volatile
  8830  006F                     l290:	
  8831  006F  0008               	return
  8832  0070                     __end_of_UART_Init:	
  8833                           
  8834                           	psect	text25
  8835  152D                     __ptext25:	
  8836 ;; *************** function ___aldiv *****************
  8837 ;; Defined at:
  8838 ;;		line 5 in file "C:\Program Files (x86)\Microchip\xc8\v2.10\pic\sources\c90\common\aldiv.c"
  8839 ;; Parameters:    Size  Location     Type
  8840 ;;  divisor         4    0[COMMON] long 
  8841 ;;  dividend        4    4[COMMON] long 
  8842 ;; Auto vars:     Size  Location     Type
  8843 ;;  quotient        4    2[BANK0 ] long 
  8844 ;;  sign            1    1[BANK0 ] unsigned char 
  8845 ;;  counter         1    0[BANK0 ] unsigned char 
  8846 ;; Return value:  Size  Location     Type
  8847 ;;                  4    0[COMMON] long 
  8848 ;; Registers used:
  8849 ;;		wreg, status,2, status,0
  8850 ;; Tracked objects:
  8851 ;;		On entry : 0/0
  8852 ;;		On exit  : 0/0
  8853 ;;		Unchanged: 0/0
  8854 ;; Data sizes:     COMMON   BANK0   BANK1   BANK3   BANK2
  8855 ;;      Params:         8       0       0       0       0
  8856 ;;      Locals:         0       6       0       0       0
  8857 ;;      Temps:          1       0       0       0       0
  8858 ;;      Totals:         9       6       0       0       0
  8859 ;;Total ram usage:       15 bytes
  8860 ;; Hardware stack levels used:    1
  8861 ;; This function calls:
  8862 ;;		Nothing
  8863 ;; This function is called by:
  8864 ;;		_UART_Init
  8865 ;; This function uses a non-reentrant model
  8866 ;;
  8867                           
  8868                           
  8869                           ;psect for function ___aldiv
  8870  152D                     ___aldiv:	
  8871  152D                     l2706:	
  8872                           ;incstack = 0
  8873                           ; Regs used in ___aldiv: [wreg+status,2+status,0]
  8874                           
  8875  152D  1283               	bcf	3,5	;RP0=0, select bank0
  8876  152E  1303               	bcf	3,6	;RP1=0, select bank0
  8877  152F  01A1               	clrf	___aldiv@sign
  8878  1530                     l2708:	
  8879  1530  1FF3               	btfss	___aldiv@divisor+3,7
  8880  1531  2D33               	goto	u3141
  8881  1532  2D34               	goto	u3140
  8882  1533                     u3141:	
  8883  1533  2D41               	goto	l451
  8884  1534                     u3140:	
  8885  1534                     l2710:	
  8886  1534  09F0               	comf	___aldiv@divisor,f
  8887  1535  09F1               	comf	___aldiv@divisor+1,f
  8888  1536  09F2               	comf	___aldiv@divisor+2,f
  8889  1537  09F3               	comf	___aldiv@divisor+3,f
  8890  1538  0AF0               	incf	___aldiv@divisor,f
  8891  1539  1903               	skipnz
  8892  153A  0AF1               	incf	___aldiv@divisor+1,f
  8893  153B  1903               	skipnz
  8894  153C  0AF2               	incf	___aldiv@divisor+2,f
  8895  153D  1903               	skipnz
  8896  153E  0AF3               	incf	___aldiv@divisor+3,f
  8897  153F  01A1               	clrf	___aldiv@sign
  8898  1540  0AA1               	incf	___aldiv@sign,f
  8899  1541                     l451:	
  8900  1541  1FF7               	btfss	___aldiv@dividend+3,7
  8901  1542  2D44               	goto	u3151
  8902  1543  2D45               	goto	u3150
  8903  1544                     u3151:	
  8904  1544  2D54               	goto	l2716
  8905  1545                     u3150:	
  8906  1545                     l2712:	
  8907  1545  09F4               	comf	___aldiv@dividend,f
  8908  1546  09F5               	comf	___aldiv@dividend+1,f
  8909  1547  09F6               	comf	___aldiv@dividend+2,f
  8910  1548  09F7               	comf	___aldiv@dividend+3,f
  8911  1549  0AF4               	incf	___aldiv@dividend,f
  8912  154A  1903               	skipnz
  8913  154B  0AF5               	incf	___aldiv@dividend+1,f
  8914  154C  1903               	skipnz
  8915  154D  0AF6               	incf	___aldiv@dividend+2,f
  8916  154E  1903               	skipnz
  8917  154F  0AF7               	incf	___aldiv@dividend+3,f
  8918  1550                     l2714:	
  8919  1550  3001               	movlw	1
  8920  1551  00F8               	movwf	??___aldiv
  8921  1552  0878               	movf	??___aldiv,w
  8922  1553  06A1               	xorwf	___aldiv@sign,f
  8923  1554                     l2716:	
  8924  1554  3000               	movlw	0
  8925  1555  00A5               	movwf	___aldiv@quotient+3
  8926  1556  3000               	movlw	0
  8927  1557  00A4               	movwf	___aldiv@quotient+2
  8928  1558  3000               	movlw	0
  8929  1559  00A3               	movwf	___aldiv@quotient+1
  8930  155A  3000               	movlw	0
  8931  155B  00A2               	movwf	___aldiv@quotient
  8932  155C                     l2718:	
  8933  155C  0873               	movf	___aldiv@divisor+3,w
  8934  155D  0472               	iorwf	___aldiv@divisor+2,w
  8935  155E  0471               	iorwf	___aldiv@divisor+1,w
  8936  155F  0470               	iorwf	___aldiv@divisor,w
  8937  1560  1903               	skipnz
  8938  1561  2D63               	goto	u3161
  8939  1562  2D64               	goto	u3160
  8940  1563                     u3161:	
  8941  1563  2DB1               	goto	l2738
  8942  1564                     u3160:	
  8943  1564                     l2720:	
  8944  1564  01A0               	clrf	___aldiv@counter
  8945  1565  0AA0               	incf	___aldiv@counter,f
  8946  1566  2D74               	goto	l2724
  8947  1567                     l2722:	
  8948  1567  3001               	movlw	1
  8949  1568  00F8               	movwf	??___aldiv
  8950  1569                     u3175:	
  8951  1569  1003               	clrc
  8952  156A  0DF0               	rlf	___aldiv@divisor,f
  8953  156B  0DF1               	rlf	___aldiv@divisor+1,f
  8954  156C  0DF2               	rlf	___aldiv@divisor+2,f
  8955  156D  0DF3               	rlf	___aldiv@divisor+3,f
  8956  156E  0BF8               	decfsz	??___aldiv,f
  8957  156F  2D69               	goto	u3175
  8958  1570  3001               	movlw	1
  8959  1571  00F8               	movwf	??___aldiv
  8960  1572  0878               	movf	??___aldiv,w
  8961  1573  07A0               	addwf	___aldiv@counter,f
  8962  1574                     l2724:	
  8963  1574  1FF3               	btfss	___aldiv@divisor+3,7
  8964  1575  2D77               	goto	u3181
  8965  1576  2D78               	goto	u3180
  8966  1577                     u3181:	
  8967  1577  2D67               	goto	l2722
  8968  1578                     u3180:	
  8969  1578                     l2726:	
  8970  1578  3001               	movlw	1
  8971  1579  00F8               	movwf	??___aldiv
  8972  157A                     u3195:	
  8973  157A  1003               	clrc
  8974  157B  0DA2               	rlf	___aldiv@quotient,f
  8975  157C  0DA3               	rlf	___aldiv@quotient+1,f
  8976  157D  0DA4               	rlf	___aldiv@quotient+2,f
  8977  157E  0DA5               	rlf	___aldiv@quotient+3,f
  8978  157F  0BF8               	decfsz	??___aldiv,f
  8979  1580  2D7A               	goto	u3195
  8980  1581                     l2728:	
  8981  1581  0873               	movf	___aldiv@divisor+3,w
  8982  1582  0277               	subwf	___aldiv@dividend+3,w
  8983  1583  1D03               	skipz
  8984  1584  2D8F               	goto	u3205
  8985  1585  0872               	movf	___aldiv@divisor+2,w
  8986  1586  0276               	subwf	___aldiv@dividend+2,w
  8987  1587  1D03               	skipz
  8988  1588  2D8F               	goto	u3205
  8989  1589  0871               	movf	___aldiv@divisor+1,w
  8990  158A  0275               	subwf	___aldiv@dividend+1,w
  8991  158B  1D03               	skipz
  8992  158C  2D8F               	goto	u3205
  8993  158D  0870               	movf	___aldiv@divisor,w
  8994  158E  0274               	subwf	___aldiv@dividend,w
  8995  158F                     u3205:	
  8996  158F  1C03               	skipc
  8997  1590  2D92               	goto	u3201
  8998  1591  2D93               	goto	u3200
  8999  1592                     u3201:	
  9000  1592  2DA2               	goto	l2734
  9001  1593                     u3200:	
  9002  1593                     l2730:	
  9003  1593  0870               	movf	___aldiv@divisor,w
  9004  1594  02F4               	subwf	___aldiv@dividend,f
  9005  1595  0871               	movf	___aldiv@divisor+1,w
  9006  1596  1C03               	skipc
  9007  1597  0F71               	incfsz	___aldiv@divisor+1,w
  9008  1598  02F5               	subwf	___aldiv@dividend+1,f
  9009  1599  0872               	movf	___aldiv@divisor+2,w
  9010  159A  1C03               	skipc
  9011  159B  0F72               	incfsz	___aldiv@divisor+2,w
  9012  159C  02F6               	subwf	___aldiv@dividend+2,f
  9013  159D  0873               	movf	___aldiv@divisor+3,w
  9014  159E  1C03               	skipc
  9015  159F  0F73               	incfsz	___aldiv@divisor+3,w
  9016  15A0  02F7               	subwf	___aldiv@dividend+3,f
  9017  15A1                     l2732:	
  9018  15A1  1422               	bsf	___aldiv@quotient,0
  9019  15A2                     l2734:	
  9020  15A2  3001               	movlw	1
  9021  15A3                     u3215:	
  9022  15A3  1003               	clrc
  9023  15A4  0CF3               	rrf	___aldiv@divisor+3,f
  9024  15A5  0CF2               	rrf	___aldiv@divisor+2,f
  9025  15A6  0CF1               	rrf	___aldiv@divisor+1,f
  9026  15A7  0CF0               	rrf	___aldiv@divisor,f
  9027  15A8  3EFF               	addlw	-1
  9028  15A9  1D03               	skipz
  9029  15AA  2DA3               	goto	u3215
  9030  15AB                     l2736:	
  9031  15AB  3001               	movlw	1
  9032  15AC  02A0               	subwf	___aldiv@counter,f
  9033  15AD  1D03               	btfss	3,2
  9034  15AE  2DB0               	goto	u3221
  9035  15AF  2DB1               	goto	u3220
  9036  15B0                     u3221:	
  9037  15B0  2D78               	goto	l2726
  9038  15B1                     u3220:	
  9039  15B1                     l2738:	
  9040  15B1  0821               	movf	___aldiv@sign,w
  9041  15B2  1903               	btfsc	3,2
  9042  15B3  2DB5               	goto	u3231
  9043  15B4  2DB6               	goto	u3230
  9044  15B5                     u3231:	
  9045  15B5  2DC1               	goto	l2742
  9046  15B6                     u3230:	
  9047  15B6                     l2740:	
  9048  15B6  09A2               	comf	___aldiv@quotient,f
  9049  15B7  09A3               	comf	___aldiv@quotient+1,f
  9050  15B8  09A4               	comf	___aldiv@quotient+2,f
  9051  15B9  09A5               	comf	___aldiv@quotient+3,f
  9052  15BA  0AA2               	incf	___aldiv@quotient,f
  9053  15BB  1903               	skipnz
  9054  15BC  0AA3               	incf	___aldiv@quotient+1,f
  9055  15BD  1903               	skipnz
  9056  15BE  0AA4               	incf	___aldiv@quotient+2,f
  9057  15BF  1903               	skipnz
  9058  15C0  0AA5               	incf	___aldiv@quotient+3,f
  9059  15C1                     l2742:	
  9060  15C1  0825               	movf	___aldiv@quotient+3,w
  9061  15C2  00F3               	movwf	?___aldiv+3
  9062  15C3  0824               	movf	___aldiv@quotient+2,w
  9063  15C4  00F2               	movwf	?___aldiv+2
  9064  15C5  0823               	movf	___aldiv@quotient+1,w
  9065  15C6  00F1               	movwf	?___aldiv+1
  9066  15C7  0822               	movf	___aldiv@quotient,w
  9067  15C8  00F0               	movwf	?___aldiv
  9068  15C9                     l461:	
  9069  15C9  0008               	return
  9070  15CA                     __end_of___aldiv:	
  9071                           
  9072                           	psect	text26
  9073  1205                     __ptext26:	
  9074 ;; *************** function _LCD_POINT *****************
  9075 ;; Defined at:
  9076 ;;		line 79 in file "LCD.c"
  9077 ;; Parameters:    Size  Location     Type
  9078 ;;  lin             1    wreg     unsigned char 
  9079 ;;  col             1    3[COMMON] unsigned char 
  9080 ;; Auto vars:     Size  Location     Type
  9081 ;;  lin             1    8[COMMON] unsigned char 
  9082 ;; Return value:  Size  Location     Type
  9083 ;;                  1    wreg      void 
  9084 ;; Registers used:
  9085 ;;		wreg, status,2, status,0, pclath, cstack
  9086 ;; Tracked objects:
  9087 ;;		On entry : 0/0
  9088 ;;		On exit  : 0/0
  9089 ;;		Unchanged: 0/0
  9090 ;; Data sizes:     COMMON   BANK0   BANK1   BANK3   BANK2
  9091 ;;      Params:         1       0       0       0       0
  9092 ;;      Locals:         3       0       0       0       0
  9093 ;;      Temps:          2       0       0       0       0
  9094 ;;      Totals:         6       0       0       0       0
  9095 ;;Total ram usage:        6 bytes
  9096 ;; Hardware stack levels used:    1
  9097 ;; Hardware stack levels required when called:    2
  9098 ;; This function calls:
  9099 ;;		_lcd_cmd
  9100 ;; This function is called by:
  9101 ;;		_main
  9102 ;; This function uses a non-reentrant model
  9103 ;;
  9104                           
  9105                           
  9106                           ;psect for function _LCD_POINT
  9107  1205                     _LCD_POINT:	
  9108                           
  9109                           ;incstack = 0
  9110                           ; Regs used in _LCD_POINT: [wreg+status,2+status,0+pclath+cstack]
  9111                           ;LCD_POINT@lin stored from wreg
  9112  1205  00F8               	movwf	LCD_POINT@lin
  9113  1206                     l2878:	
  9114                           
  9115                           ;LCD.c: 81:     if((lin > 2)||(col> 15)){
  9116  1206  3003               	movlw	3
  9117  1207  0278               	subwf	LCD_POINT@lin,w
  9118  1208  1803               	skipnc
  9119  1209  2A0B               	goto	u3521
  9120  120A  2A0C               	goto	u3520
  9121  120B                     u3521:	
  9122  120B  2A32               	goto	l254
  9123  120C                     u3520:	
  9124  120C                     l2880:	
  9125  120C  3010               	movlw	16
  9126  120D  0273               	subwf	LCD_POINT@col,w
  9127  120E  1C03               	skipc
  9128  120F  2A11               	goto	u3531
  9129  1210  2A12               	goto	u3530
  9130  1211                     u3531:	
  9131  1211  2A13               	goto	l2884
  9132  1212                     u3530:	
  9133  1212  2A32               	goto	l254
  9134  1213                     l2884:	
  9135                           
  9136                           ;LCD.c: 84:         lcd_cmd((lin == 1) ? (0x80|col): (0xC0|col));
  9137  1213  0378               	decf	LCD_POINT@lin,w
  9138  1214  1903               	btfsc	3,2
  9139  1215  2A17               	goto	u3541
  9140  1216  2A18               	goto	u3540
  9141  1217                     u3541:	
  9142  1217  2A1E               	goto	l2888
  9143  1218                     u3540:	
  9144  1218                     l2886:	
  9145  1218  30C0               	movlw	192
  9146  1219  0473               	iorwf	LCD_POINT@col,w
  9147  121A  00F6               	movwf	_LCD_POINT$278
  9148  121B  3000               	movlw	0
  9149  121C  00F7               	movwf	_LCD_POINT$278+1
  9150  121D  2A23               	goto	l2890
  9151  121E                     l2888:	
  9152  121E  3080               	movlw	128
  9153  121F  0473               	iorwf	LCD_POINT@col,w
  9154  1220  00F6               	movwf	_LCD_POINT$278
  9155  1221  3000               	movlw	0
  9156  1222  00F7               	movwf	_LCD_POINT$278+1
  9157  1223                     l2890:	
  9158  1223  0876               	movf	_LCD_POINT$278,w
  9159  1224  160A  118A  210A  160A  118A  	fcall	_lcd_cmd
  9160  1229                     l2892:	
  9161                           
  9162                           ;LCD.c: 85:         _delay((unsigned long)((5)*(8000000/4000.0)));
  9163  1229  300D               	movlw	13
  9164  122A  00F5               	movwf	??_LCD_POINT+1
  9165  122B  30FB               	movlw	251
  9166  122C  00F4               	movwf	??_LCD_POINT
  9167  122D                     u4397:	
  9168  122D  0BF4               	decfsz	??_LCD_POINT,f
  9169  122E  2A2D               	goto	u4397
  9170  122F  0BF5               	decfsz	??_LCD_POINT+1,f
  9171  1230  2A2D               	goto	u4397
  9172  1231  2A32               	nop2
  9173  1232                     l254:	
  9174  1232  0008               	return
  9175  1233                     __end_of_LCD_POINT:	
  9176                           
  9177                           	psect	text27
  9178  110A                     __ptext27:	
  9179 ;; *************** function _lcd_cmd *****************
  9180 ;; Defined at:
  9181 ;;		line 15 in file "LCD.c"
  9182 ;; Parameters:    Size  Location     Type
  9183 ;;  x               1    wreg     unsigned char 
  9184 ;; Auto vars:     Size  Location     Type
  9185 ;;  x               1    2[COMMON] unsigned char 
  9186 ;; Return value:  Size  Location     Type
  9187 ;;                  1    wreg      void 
  9188 ;; Registers used:
  9189 ;;		wreg, status,2, status,0, pclath, cstack
  9190 ;; Tracked objects:
  9191 ;;		On entry : 0/0
  9192 ;;		On exit  : 0/0
  9193 ;;		Unchanged: 0/0
  9194 ;; Data sizes:     COMMON   BANK0   BANK1   BANK3   BANK2
  9195 ;;      Params:         0       0       0       0       0
  9196 ;;      Locals:         1       0       0       0       0
  9197 ;;      Temps:          0       0       0       0       0
  9198 ;;      Totals:         1       0       0       0       0
  9199 ;;Total ram usage:        1 bytes
  9200 ;; Hardware stack levels used:    1
  9201 ;; Hardware stack levels required when called:    1
  9202 ;; This function calls:
  9203 ;;		_lcd_lat
  9204 ;;		_lcd_ready
  9205 ;; This function is called by:
  9206 ;;		_main
  9207 ;;		_lcd_init
  9208 ;;		_LCD_POINT
  9209 ;; This function uses a non-reentrant model
  9210 ;;
  9211                           
  9212                           
  9213                           ;psect for function _lcd_cmd
  9214  110A                     _lcd_cmd:	
  9215                           
  9216                           ;incstack = 0
  9217                           ; Regs used in _lcd_cmd: [wreg+status,2+status,0+pclath+cstack]
  9218                           ;lcd_cmd@x stored from wreg
  9219  110A  00F2               	movwf	lcd_cmd@x
  9220  110B                     l2670:	
  9221                           
  9222                           ;LCD.c: 16:     lcd_ready();
  9223  110B  160A  118A  21AF  160A  118A  	fcall	_lcd_ready
  9224  1110                     l2672:	
  9225                           
  9226                           ;LCD.c: 17:     PORTB = x;
  9227  1110  0872               	movf	lcd_cmd@x,w
  9228  1111  1283               	bcf	3,5	;RP0=0, select bank0
  9229  1112  1303               	bcf	3,6	;RP1=0, select bank0
  9230  1113  0086               	movwf	6	;volatile
  9231  1114                     l2674:	
  9232                           
  9233                           ;LCD.c: 18:     RD7 = 0;
  9234  1114  1388               	bcf	8,7	;volatile
  9235  1115                     l2676:	
  9236                           
  9237                           ;LCD.c: 19:     RD2 = 0;
  9238  1115  1108               	bcf	8,2	;volatile
  9239  1116                     l2678:	
  9240                           
  9241                           ;LCD.c: 20:     lcd_lat();
  9242  1116  160A  118A  20FB  160A  118A  	fcall	_lcd_lat
  9243  111B                     l228:	
  9244  111B  0008               	return
  9245  111C                     __end_of_lcd_cmd:	
  9246                           
  9247                           	psect	text28
  9248  11AF                     __ptext28:	
  9249 ;; *************** function _lcd_ready *****************
  9250 ;; Defined at:
  9251 ;;		line 28 in file "LCD.c"
  9252 ;; Parameters:    Size  Location     Type
  9253 ;;		None
  9254 ;; Auto vars:     Size  Location     Type
  9255 ;;		None
  9256 ;; Return value:  Size  Location     Type
  9257 ;;                  1    wreg      void 
  9258 ;; Registers used:
  9259 ;;		wreg, status,2, status,0
  9260 ;; Tracked objects:
  9261 ;;		On entry : 0/0
  9262 ;;		On exit  : 0/0
  9263 ;;		Unchanged: 0/0
  9264 ;; Data sizes:     COMMON   BANK0   BANK1   BANK3   BANK2
  9265 ;;      Params:         0       0       0       0       0
  9266 ;;      Locals:         0       0       0       0       0
  9267 ;;      Temps:          2       0       0       0       0
  9268 ;;      Totals:         2       0       0       0       0
  9269 ;;Total ram usage:        2 bytes
  9270 ;; Hardware stack levels used:    1
  9271 ;; This function calls:
  9272 ;;		Nothing
  9273 ;; This function is called by:
  9274 ;;		_lcd_cmd
  9275 ;;		_lcd_dwr
  9276 ;; This function uses a non-reentrant model
  9277 ;;
  9278                           
  9279                           
  9280                           ;psect for function _lcd_ready
  9281  11AF                     _lcd_ready:	
  9282  11AF                     l2274:	
  9283                           ;incstack = 0
  9284                           ; Regs used in _lcd_ready: [wreg+status,2+status,0]
  9285                           
  9286                           
  9287                           ;LCD.c: 29:     PORTB = 0xFF;
  9288  11AF  30FF               	movlw	255
  9289  11B0  1283               	bcf	3,5	;RP0=0, select bank0
  9290  11B1  1303               	bcf	3,6	;RP1=0, select bank0
  9291  11B2  0086               	movwf	6	;volatile
  9292  11B3                     l2276:	
  9293                           
  9294                           ;LCD.c: 30:     PORTB &= 0x80;
  9295  11B3  3080               	movlw	128
  9296  11B4  00F0               	movwf	??_lcd_ready
  9297  11B5  0870               	movf	??_lcd_ready,w
  9298  11B6  0586               	andwf	6,f	;volatile
  9299  11B7                     l2278:	
  9300                           
  9301                           ;LCD.c: 31:     RD7 = 0;
  9302  11B7  1388               	bcf	8,7	;volatile
  9303  11B8                     l2280:	
  9304                           
  9305                           ;LCD.c: 32:     RD2 = 1;
  9306  11B8  1508               	bsf	8,2	;volatile
  9307  11B9                     l2282:	
  9308                           
  9309                           ;LCD.c: 33:     RD3 = 0;
  9310  11B9  1188               	bcf	8,3	;volatile
  9311  11BA                     l2284:	
  9312                           
  9313                           ;LCD.c: 34:     _delay((unsigned long)((30)*(8000000/4000.0)));
  9314  11BA  304E               	movlw	78
  9315  11BB  00F1               	movwf	??_lcd_ready+1
  9316  11BC  30EB               	movlw	235
  9317  11BD  00F0               	movwf	??_lcd_ready
  9318  11BE                     u4407:	
  9319  11BE  0BF0               	decfsz	??_lcd_ready,f
  9320  11BF  29BE               	goto	u4407
  9321  11C0  0BF1               	decfsz	??_lcd_ready+1,f
  9322  11C1  29BE               	goto	u4407
  9323  11C2                     l2286:	
  9324                           
  9325                           ;LCD.c: 35:     RD3 = 1;
  9326  11C2  1283               	bcf	3,5	;RP0=0, select bank0
  9327  11C3  1303               	bcf	3,6	;RP1=0, select bank0
  9328  11C4  1588               	bsf	8,3	;volatile
  9329                           
  9330                           ;LCD.c: 36:     if (PORTB == 0x80){
  9331  11C5  3080               	movlw	128
  9332  11C6  0606               	xorwf	6,w	;volatile
  9333  11C7  1D03               	btfss	3,2
  9334  11C8  29CA               	goto	u2171
  9335  11C9  29CB               	goto	u2170
  9336  11CA                     u2171:	
  9337  11CA  29D7               	goto	l236
  9338  11CB                     u2170:	
  9339  11CB                     l2288:	
  9340                           
  9341                           ;LCD.c: 37:     RD3 = 0;
  9342  11CB  1188               	bcf	8,3	;volatile
  9343  11CC                     l2290:	
  9344                           
  9345                           ;LCD.c: 38:     _delay((unsigned long)((30)*(8000000/4000.0)));
  9346  11CC  304E               	movlw	78
  9347  11CD  00F1               	movwf	??_lcd_ready+1
  9348  11CE  30EB               	movlw	235
  9349  11CF  00F0               	movwf	??_lcd_ready
  9350  11D0                     u4417:	
  9351  11D0  0BF0               	decfsz	??_lcd_ready,f
  9352  11D1  29D0               	goto	u4417
  9353  11D2  0BF1               	decfsz	??_lcd_ready+1,f
  9354  11D3  29D0               	goto	u4417
  9355  11D4                     l2292:	
  9356                           
  9357                           ;LCD.c: 39:     RD3 = 1;
  9358  11D4  1283               	bcf	3,5	;RP0=0, select bank0
  9359  11D5  1303               	bcf	3,6	;RP1=0, select bank0
  9360  11D6  1588               	bsf	8,3	;volatile
  9361  11D7                     l236:	
  9362                           ;LCD.c: 40:     }
  9363                           
  9364  11D7  0008               	return
  9365  11D8                     __end_of_lcd_ready:	
  9366                           
  9367                           	psect	text29
  9368  10FB                     __ptext29:	
  9369 ;; *************** function _lcd_lat *****************
  9370 ;; Defined at:
  9371 ;;		line 23 in file "LCD.c"
  9372 ;; Parameters:    Size  Location     Type
  9373 ;;		None
  9374 ;; Auto vars:     Size  Location     Type
  9375 ;;		None
  9376 ;; Return value:  Size  Location     Type
  9377 ;;                  1    wreg      void 
  9378 ;; Registers used:
  9379 ;;		wreg
  9380 ;; Tracked objects:
  9381 ;;		On entry : 0/0
  9382 ;;		On exit  : 0/0
  9383 ;;		Unchanged: 0/0
  9384 ;; Data sizes:     COMMON   BANK0   BANK1   BANK3   BANK2
  9385 ;;      Params:         0       0       0       0       0
  9386 ;;      Locals:         0       0       0       0       0
  9387 ;;      Temps:          2       0       0       0       0
  9388 ;;      Totals:         2       0       0       0       0
  9389 ;;Total ram usage:        2 bytes
  9390 ;; Hardware stack levels used:    1
  9391 ;; This function calls:
  9392 ;;		Nothing
  9393 ;; This function is called by:
  9394 ;;		_lcd_cmd
  9395 ;;		_lcd_dwr
  9396 ;; This function uses a non-reentrant model
  9397 ;;
  9398                           
  9399                           
  9400                           ;psect for function _lcd_lat
  9401  10FB                     _lcd_lat:	
  9402  10FB                     l2294:	
  9403                           ;incstack = 0
  9404                           ; Regs used in _lcd_lat: [wreg]
  9405                           
  9406                           
  9407                           ;LCD.c: 24:     RD3 = 1;
  9408  10FB  1283               	bcf	3,5	;RP0=0, select bank0
  9409  10FC  1303               	bcf	3,6	;RP1=0, select bank0
  9410  10FD  1588               	bsf	8,3	;volatile
  9411  10FE                     l2296:	
  9412                           
  9413                           ;LCD.c: 25:    _delay((unsigned long)((30)*(8000000/4000.0)));
  9414  10FE  304E               	movlw	78
  9415  10FF  00F1               	movwf	??_lcd_lat+1
  9416  1100  30EB               	movlw	235
  9417  1101  00F0               	movwf	??_lcd_lat
  9418  1102                     u4427:	
  9419  1102  0BF0               	decfsz	??_lcd_lat,f
  9420  1103  2902               	goto	u4427
  9421  1104  0BF1               	decfsz	??_lcd_lat+1,f
  9422  1105  2902               	goto	u4427
  9423  1106                     l2298:	
  9424                           
  9425                           ;LCD.c: 26:    RD3 = 0;
  9426  1106  1283               	bcf	3,5	;RP0=0, select bank0
  9427  1107  1303               	bcf	3,6	;RP1=0, select bank0
  9428  1108  1188               	bcf	8,3	;volatile
  9429  1109                     l231:	
  9430  1109  0008               	return
  9431  110A                     __end_of_lcd_lat:	
  9432                           
  9433                           	psect	text30
  9434  10D8                     __ptext30:	
  9435 ;; *************** function _I2C_Master_Write *****************
  9436 ;; Defined at:
  9437 ;;		line 56 in file "I2C.c"
  9438 ;; Parameters:    Size  Location     Type
  9439 ;;  d               2    0[COMMON] unsigned int 
  9440 ;; Auto vars:     Size  Location     Type
  9441 ;;		None
  9442 ;; Return value:  Size  Location     Type
  9443 ;;                  1    wreg      void 
  9444 ;; Registers used:
  9445 ;;		wreg, status,2, status,0, pclath, cstack
  9446 ;; Tracked objects:
  9447 ;;		On entry : 0/0
  9448 ;;		On exit  : 0/0
  9449 ;;		Unchanged: 0/0
  9450 ;; Data sizes:     COMMON   BANK0   BANK1   BANK3   BANK2
  9451 ;;      Params:         2       0       0       0       0
  9452 ;;      Locals:         0       0       0       0       0
  9453 ;;      Temps:          0       0       0       0       0
  9454 ;;      Totals:         2       0       0       0       0
  9455 ;;Total ram usage:        2 bytes
  9456 ;; Hardware stack levels used:    1
  9457 ;; Hardware stack levels required when called:    1
  9458 ;; This function calls:
  9459 ;;		_I2C_Master_Wait
  9460 ;; This function is called by:
  9461 ;;		_main
  9462 ;; This function uses a non-reentrant model
  9463 ;;
  9464                           
  9465                           
  9466                           ;psect for function _I2C_Master_Write
  9467  10D8                     _I2C_Master_Write:	
  9468  10D8                     l2906:	
  9469                           ;incstack = 0
  9470                           ; Regs used in _I2C_Master_Write: [wreg+status,2+status,0+pclath+cstack]
  9471                           
  9472                           
  9473                           ;I2C.c: 56: void I2C_Master_Write(unsigned d);I2C.c: 57: {;I2C.c: 58:     I2C_Master_Wai
      +                          t();
  9474  10D8  160A  118A  20EE  160A  118A  	fcall	_I2C_Master_Wait
  9475  10DD                     l2908:	
  9476                           
  9477                           ;I2C.c: 59:     SSPBUF = d;
  9478  10DD  0870               	movf	I2C_Master_Write@d,w
  9479  10DE  1283               	bcf	3,5	;RP0=0, select bank0
  9480  10DF  1303               	bcf	3,6	;RP1=0, select bank0
  9481  10E0  0093               	movwf	19	;volatile
  9482  10E1                     l205:	
  9483  10E1  0008               	return
  9484  10E2                     __end_of_I2C_Master_Write:	
  9485                           
  9486                           	psect	text31
  9487  10CF                     __ptext31:	
  9488 ;; *************** function _I2C_Master_Stop *****************
  9489 ;; Defined at:
  9490 ;;		line 46 in file "I2C.c"
  9491 ;; Parameters:    Size  Location     Type
  9492 ;;		None
  9493 ;; Auto vars:     Size  Location     Type
  9494 ;;		None
  9495 ;; Return value:  Size  Location     Type
  9496 ;;                  1    wreg      void 
  9497 ;; Registers used:
  9498 ;;		wreg, status,2, status,0, pclath, cstack
  9499 ;; Tracked objects:
  9500 ;;		On entry : 0/0
  9501 ;;		On exit  : 0/0
  9502 ;;		Unchanged: 0/0
  9503 ;; Data sizes:     COMMON   BANK0   BANK1   BANK3   BANK2
  9504 ;;      Params:         0       0       0       0       0
  9505 ;;      Locals:         0       0       0       0       0
  9506 ;;      Temps:          0       0       0       0       0
  9507 ;;      Totals:         0       0       0       0       0
  9508 ;;Total ram usage:        0 bytes
  9509 ;; Hardware stack levels used:    1
  9510 ;; Hardware stack levels required when called:    1
  9511 ;; This function calls:
  9512 ;;		_I2C_Master_Wait
  9513 ;; This function is called by:
  9514 ;;		_main
  9515 ;; This function uses a non-reentrant model
  9516 ;;
  9517                           
  9518                           
  9519                           ;psect for function _I2C_Master_Stop
  9520  10CF                     _I2C_Master_Stop:	
  9521  10CF                     l2926:	
  9522                           ;incstack = 0
  9523                           ; Regs used in _I2C_Master_Stop: [wreg+status,2+status,0+pclath+cstack]
  9524                           
  9525                           
  9526                           ;I2C.c: 48:     I2C_Master_Wait();
  9527  10CF  160A  118A  20EE  160A  118A  	fcall	_I2C_Master_Wait
  9528  10D4                     l2928:	
  9529                           
  9530                           ;I2C.c: 49:     SSPCON2bits.PEN = 1;
  9531  10D4  1683               	bsf	3,5	;RP0=1, select bank1
  9532  10D5  1303               	bcf	3,6	;RP1=0, select bank1
  9533  10D6  1511               	bsf	17,2	;volatile
  9534  10D7                     l202:	
  9535  10D7  0008               	return
  9536  10D8                     __end_of_I2C_Master_Stop:	
  9537                           
  9538                           	psect	text32
  9539  10C6                     __ptext32:	
  9540 ;; *************** function _I2C_Master_Start *****************
  9541 ;; Defined at:
  9542 ;;		line 30 in file "I2C.c"
  9543 ;; Parameters:    Size  Location     Type
  9544 ;;		None
  9545 ;; Auto vars:     Size  Location     Type
  9546 ;;		None
  9547 ;; Return value:  Size  Location     Type
  9548 ;;                  1    wreg      void 
  9549 ;; Registers used:
  9550 ;;		wreg, status,2, status,0, pclath, cstack
  9551 ;; Tracked objects:
  9552 ;;		On entry : 0/0
  9553 ;;		On exit  : 0/0
  9554 ;;		Unchanged: 0/0
  9555 ;; Data sizes:     COMMON   BANK0   BANK1   BANK3   BANK2
  9556 ;;      Params:         0       0       0       0       0
  9557 ;;      Locals:         0       0       0       0       0
  9558 ;;      Temps:          0       0       0       0       0
  9559 ;;      Totals:         0       0       0       0       0
  9560 ;;Total ram usage:        0 bytes
  9561 ;; Hardware stack levels used:    1
  9562 ;; Hardware stack levels required when called:    1
  9563 ;; This function calls:
  9564 ;;		_I2C_Master_Wait
  9565 ;; This function is called by:
  9566 ;;		_main
  9567 ;; This function uses a non-reentrant model
  9568 ;;
  9569                           
  9570                           
  9571                           ;psect for function _I2C_Master_Start
  9572  10C6                     _I2C_Master_Start:	
  9573  10C6                     l2902:	
  9574                           ;incstack = 0
  9575                           ; Regs used in _I2C_Master_Start: [wreg+status,2+status,0+pclath+cstack]
  9576                           
  9577                           
  9578                           ;I2C.c: 32:     I2C_Master_Wait();
  9579  10C6  160A  118A  20EE  160A  118A  	fcall	_I2C_Master_Wait
  9580  10CB                     l2904:	
  9581                           
  9582                           ;I2C.c: 33:     SSPCON2bits.SEN = 1;
  9583  10CB  1683               	bsf	3,5	;RP0=1, select bank1
  9584  10CC  1303               	bcf	3,6	;RP1=0, select bank1
  9585  10CD  1411               	bsf	17,0	;volatile
  9586  10CE                     l196:	
  9587  10CE  0008               	return
  9588  10CF                     __end_of_I2C_Master_Start:	
  9589                           
  9590                           	psect	text33
  9591  11D8                     __ptext33:	
  9592 ;; *************** function _I2C_Master_Read *****************
  9593 ;; Defined at:
  9594 ;;		line 65 in file "I2C.c"
  9595 ;; Parameters:    Size  Location     Type
  9596 ;;  a               2    0[COMMON] unsigned short 
  9597 ;; Auto vars:     Size  Location     Type
  9598 ;;  temp            2    4[COMMON] unsigned short 
  9599 ;; Return value:  Size  Location     Type
  9600 ;;                  2    0[COMMON] unsigned short 
  9601 ;; Registers used:
  9602 ;;		wreg, status,2, status,0, pclath, cstack
  9603 ;; Tracked objects:
  9604 ;;		On entry : 0/0
  9605 ;;		On exit  : 0/0
  9606 ;;		Unchanged: 0/0
  9607 ;; Data sizes:     COMMON   BANK0   BANK1   BANK3   BANK2
  9608 ;;      Params:         2       0       0       0       0
  9609 ;;      Locals:         2       0       0       0       0
  9610 ;;      Temps:          2       0       0       0       0
  9611 ;;      Totals:         6       0       0       0       0
  9612 ;;Total ram usage:        6 bytes
  9613 ;; Hardware stack levels used:    1
  9614 ;; Hardware stack levels required when called:    1
  9615 ;; This function calls:
  9616 ;;		_I2C_Master_Wait
  9617 ;; This function is called by:
  9618 ;;		_main
  9619 ;; This function uses a non-reentrant model
  9620 ;;
  9621                           
  9622                           
  9623                           ;psect for function _I2C_Master_Read
  9624  11D8                     _I2C_Master_Read:	
  9625  11D8                     l2910:	
  9626                           ;incstack = 0
  9627                           ; Regs used in _I2C_Master_Read: [wreg+status,2+status,0+pclath+cstack]
  9628                           
  9629                           
  9630                           ;I2C.c: 65: unsigned short I2C_Master_Read(unsigned short a);I2C.c: 66: {;I2C.c: 67:    
      +                           unsigned short temp;;I2C.c: 68:     I2C_Master_Wait();
  9631  11D8  160A  118A  20EE  160A  118A  	fcall	_I2C_Master_Wait
  9632  11DD                     l2912:	
  9633                           
  9634                           ;I2C.c: 69:     SSPCON2bits.RCEN = 1;
  9635  11DD  1683               	bsf	3,5	;RP0=1, select bank1
  9636  11DE  1303               	bcf	3,6	;RP1=0, select bank1
  9637  11DF  1591               	bsf	17,3	;volatile
  9638                           
  9639                           ;I2C.c: 70:     I2C_Master_Wait();
  9640  11E0  160A  118A  20EE  160A  118A  	fcall	_I2C_Master_Wait
  9641  11E5                     l2914:	
  9642                           
  9643                           ;I2C.c: 71:     temp = SSPBUF;
  9644  11E5  1283               	bcf	3,5	;RP0=0, select bank0
  9645  11E6  1303               	bcf	3,6	;RP1=0, select bank0
  9646  11E7  0813               	movf	19,w	;volatile
  9647  11E8  00F2               	movwf	??_I2C_Master_Read
  9648  11E9  01F3               	clrf	??_I2C_Master_Read+1
  9649  11EA  0872               	movf	??_I2C_Master_Read,w
  9650  11EB  00F4               	movwf	I2C_Master_Read@temp
  9651  11EC  0873               	movf	??_I2C_Master_Read+1,w
  9652  11ED  00F5               	movwf	I2C_Master_Read@temp+1
  9653  11EE                     l2916:	
  9654                           
  9655                           ;I2C.c: 72:     I2C_Master_Wait();
  9656  11EE  160A  118A  20EE  160A  118A  	fcall	_I2C_Master_Wait
  9657  11F3                     l2918:	
  9658                           
  9659                           ;I2C.c: 78:     SSPCON2bits.ACKDT = (a)?0:1;
  9660  11F3  0870               	movf	I2C_Master_Read@a,w
  9661  11F4  0471               	iorwf	I2C_Master_Read@a+1,w
  9662  11F5  1903               	btfsc	3,2
  9663  11F6  29F8               	goto	u3561
  9664  11F7  29FC               	goto	u3560
  9665  11F8                     u3561:	
  9666  11F8  1683               	bsf	3,5	;RP0=1, select bank1
  9667  11F9  1303               	bcf	3,6	;RP1=0, select bank1
  9668  11FA  1691               	bsf	17,5	;volatile
  9669  11FB  29FF               	goto	u3574
  9670  11FC                     u3560:	
  9671  11FC  1683               	bsf	3,5	;RP0=1, select bank1
  9672  11FD  1303               	bcf	3,6	;RP1=0, select bank1
  9673  11FE  1291               	bcf	17,5	;volatile
  9674  11FF                     u3574:	
  9675  11FF                     l2920:	
  9676                           
  9677                           ;I2C.c: 79:     SSPCON2bits.ACKEN = 1;
  9678  11FF  1611               	bsf	17,4	;volatile
  9679  1200                     l2922:	
  9680                           
  9681                           ;I2C.c: 80:     return temp;
  9682  1200  0875               	movf	I2C_Master_Read@temp+1,w
  9683  1201  00F1               	movwf	?_I2C_Master_Read+1
  9684  1202  0874               	movf	I2C_Master_Read@temp,w
  9685  1203  00F0               	movwf	?_I2C_Master_Read
  9686  1204                     l208:	
  9687  1204  0008               	return
  9688  1205                     __end_of_I2C_Master_Read:	
  9689                           
  9690                           	psect	text34
  9691  10EE                     __ptext34:	
  9692 ;; *************** function _I2C_Master_Wait *****************
  9693 ;; Defined at:
  9694 ;;		line 23 in file "I2C.c"
  9695 ;; Parameters:    Size  Location     Type
  9696 ;;		None
  9697 ;; Auto vars:     Size  Location     Type
  9698 ;;		None
  9699 ;; Return value:  Size  Location     Type
  9700 ;;                  1    wreg      void 
  9701 ;; Registers used:
  9702 ;;		wreg, status,2
  9703 ;; Tracked objects:
  9704 ;;		On entry : 0/0
  9705 ;;		On exit  : 0/0
  9706 ;;		Unchanged: 0/0
  9707 ;; Data sizes:     COMMON   BANK0   BANK1   BANK3   BANK2
  9708 ;;      Params:         0       0       0       0       0
  9709 ;;      Locals:         0       0       0       0       0
  9710 ;;      Temps:          0       0       0       0       0
  9711 ;;      Totals:         0       0       0       0       0
  9712 ;;Total ram usage:        0 bytes
  9713 ;; Hardware stack levels used:    1
  9714 ;; This function calls:
  9715 ;;		Nothing
  9716 ;; This function is called by:
  9717 ;;		_I2C_Master_Start
  9718 ;;		_I2C_Master_Stop
  9719 ;;		_I2C_Master_Write
  9720 ;;		_I2C_Master_Read
  9721 ;;		_I2C_Master_RepeatedStart
  9722 ;; This function uses a non-reentrant model
  9723 ;;
  9724                           
  9725                           
  9726                           ;psect for function _I2C_Master_Wait
  9727  10EE                     _I2C_Master_Wait:	
  9728  10EE                     l2702:	
  9729                           ;incstack = 0
  9730                           ; Regs used in _I2C_Master_Wait: [wreg+status,2]
  9731                           
  9732  10EE                     l190:	
  9733                           ;I2C.c: 25:     while ((SSPSTAT & 0x04) || (SSPCON2 & 0x1F));
  9734                           
  9735  10EE  1683               	bsf	3,5	;RP0=1, select bank1
  9736  10EF  1303               	bcf	3,6	;RP1=0, select bank1
  9737  10F0  1914               	btfsc	20,2	;volatile
  9738  10F1  28F3               	goto	u3121
  9739  10F2  28F4               	goto	u3120
  9740  10F3                     u3121:	
  9741  10F3  28EE               	goto	l190
  9742  10F4                     u3120:	
  9743  10F4                     l2704:	
  9744  10F4  0811               	movf	17,w	;volatile
  9745  10F5  391F               	andlw	31
  9746  10F6  1D03               	btfss	3,2
  9747  10F7  28F9               	goto	u3131
  9748  10F8  28FA               	goto	u3130
  9749  10F9                     u3131:	
  9750  10F9  28EE               	goto	l190
  9751  10FA                     u3130:	
  9752  10FA                     l193:	
  9753  10FA  0008               	return
  9754  10FB                     __end_of_I2C_Master_Wait:	
  9755  007E                     btemp	set	126	;btemp
  9756  007E                     wtemp0	set	126


Data Sizes:
    Strings     29
    Constant    48
    Data        1
    BSS         53
    Persistent  0
    Stack       0

Auto Spaces:
    Space          Size  Autos    Used
    COMMON           14     14      14
    BANK0            80     78      79
    BANK1            80     34      79
    BANK3            96      0       8
    BANK2            96      0       0

Pointer List with Targets:

    frexp@eptr	PTR int  size(1) Largest target is 2
		 -> log@exponent(BANK1[2]), 

    eval_poly@d	PTR const  size(1) Largest target is 36
		 -> log@coeff(CODE[36]), 

    lcd_msg@c	PTR unsigned char  size(1) Largest target is 5
		 -> STR_11(CODE[5]), STR_10(CODE[5]), STR_9(CODE[4]), STR_8(CODE[3]), 
		 -> STR_7(CODE[3]), STR_6(CODE[4]), STR_5(CODE[3]), STR_4(CODE[4]), 
		 -> STR_3(CODE[4]), STR_2(CODE[4]), STR_1(CODE[4]), 


Critical Paths under _main in COMMON

    _main->___xxtofl
    _log->___xxtofl
    _log->_frexp
    _frexp->___fleq
    ___flmul->___xxtofl
    ___flmul->_frexp
    ___fladd->___xxtofl
    ___fladd->_frexp
    _lcd_msg->_lcd_dwr
    _lcd_dwr->_lcd_lat
    _lcd_dwr->_lcd_ready
    _lcd_init->_lcd_cmd
    _I2C_Master_Init->___lldiv
    ___fldiv->___xxtofl
    ___fldiv->_frexp
    _UART_Init->___aldiv
    _LCD_POINT->_lcd_cmd
    _lcd_cmd->_lcd_lat
    _lcd_cmd->_lcd_ready

Critical Paths under _main in BANK0

    _main->_log
    _log->___flmul
    _eval_poly->___flmul
    ___flmul->___fladd
    ___fladd->___fldiv
    _init->_I2C_Master_Init
    ___fldiv->_frexp
    _UART_Init->___aldiv

Critical Paths under _main in BANK1

    _main->_log
    _log->_eval_poly

Critical Paths under _main in BANK3

    None.

Critical Paths under _main in BANK2

    None.

Call Graph Tables:

 ---------------------------------------------------------------------------------
 (Depth) Function   	        Calls       Base Space   Used Autos Params    Refs
 ---------------------------------------------------------------------------------
 (0) _main                                                12    12      0   30699
                                             22 BANK1     12    12      0
                    _I2C_Master_Read
                   _I2C_Master_Start
                    _I2C_Master_Stop
                   _I2C_Master_Write
                          _LCD_POINT
                          _UART_Init
                         _UART_Write
                            _Val_STR
                            ___awmod
                            ___fladd
                            ___fldiv
                            ___flmul
                            ___fltol
                            ___lwdiv
                            ___lwmod
                           ___xxtofl
                               _init
                            _initOsc
                            _lcd_cmd
                            _lcd_dwr
                           _lcd_init
                            _lcd_msg
                                _log
 ---------------------------------------------------------------------------------
 (1) _log                                                  7     3      4   15786
                                             77 BANK0      1     1      0
                                             16 BANK1      6     2      4
                            ___fladd
                            ___fldiv (ARG)
                             ___fleq
                             ___flge
                            ___flmul
                           ___xxtofl
                          _eval_poly
                              _frexp
 ---------------------------------------------------------------------------------
 (2) _frexp                                                7     2      5     896
                                             12 COMMON     2     2      0
                                              0 BANK0      5     0      5
                             ___fleq
 ---------------------------------------------------------------------------------
 (3) ___fleq                                              12     4      8     520
                                              0 COMMON    12     4      8
 ---------------------------------------------------------------------------------
 (2) _eval_poly                                           16     9      7    6731
                                              0 BANK1     16     9      7
                            ___fladd
                            ___fldiv (ARG)
                            ___flmul
 ---------------------------------------------------------------------------------
 (3) ___flmul                                             26    18      8    3303
                                             51 BANK0     26    18      8
                          __Umul8_16
                            ___fladd (ARG)
                            ___fldiv (ARG)
                           ___xxtofl (ARG)
                              _frexp (ARG)
 ---------------------------------------------------------------------------------
 (4) __Umul8_16                                            9     7      2     799
                                              0 COMMON     9     7      2
 ---------------------------------------------------------------------------------
 (3) ___fladd                                             20    12      8    3022
                                             31 BANK0     20    12      8
                          __Umul8_16 (ARG)
                            ___fldiv (ARG)
                           ___xxtofl (ARG)
                              _frexp (ARG)
 ---------------------------------------------------------------------------------
 (2) ___xxtofl                                            14    10      4     550
                                              0 COMMON    14    10      4
 ---------------------------------------------------------------------------------
 (2) ___flge                                              12     4      8     460
                                              0 COMMON    12     4      8
 ---------------------------------------------------------------------------------
 (1) _lcd_msg                                              2     2      0     430
                                              3 COMMON     2     2      0
                            _lcd_dwr
 ---------------------------------------------------------------------------------
 (2) _lcd_dwr                                              1     1      0      22
                                              2 COMMON     1     1      0
                            _lcd_lat
                          _lcd_ready
 ---------------------------------------------------------------------------------
 (1) _lcd_init                                             0     0      0      22
                            _lcd_cmd
 ---------------------------------------------------------------------------------
 (1) _initOsc                                              3     3      0      22
                                              0 COMMON     3     3      0
 ---------------------------------------------------------------------------------
 (1) _init                                                 0     0      0     412
                    _I2C_Master_Init
 ---------------------------------------------------------------------------------
 (2) _I2C_Master_Init                                      8     4      4     412
                                              0 BANK0      8     4      4
                            ___lldiv
 ---------------------------------------------------------------------------------
 (3) ___lldiv                                             14     6      8     314
                                              0 COMMON    14     6      8
 ---------------------------------------------------------------------------------
 (1) ___lwmod                                              6     2      4     767
                                              0 COMMON     6     2      4
 ---------------------------------------------------------------------------------
 (1) ___lwdiv                                              8     4      4     618
                                              0 COMMON     8     4      4
 ---------------------------------------------------------------------------------
 (1) ___fltol                                             11     7      4     381
                                              0 COMMON    11     7      4
 ---------------------------------------------------------------------------------
 (1) ___fldiv                                             26    18      8    1577
                                              5 BANK0     26    18      8
                          __Umul8_16 (ARG)
                             ___fleq (ARG)
                             ___flge (ARG)
                           ___xxtofl (ARG)
                              _frexp (ARG)
 ---------------------------------------------------------------------------------
 (1) ___awmod                                              7     3      4     448
                                              0 COMMON     7     3      4
 ---------------------------------------------------------------------------------
 (1) _Val_STR                                              3     3      0      22
                                              0 COMMON     3     3      0
 ---------------------------------------------------------------------------------
 (1) _UART_Write                                           1     1      0      22
                                              0 COMMON     1     1      0
 ---------------------------------------------------------------------------------
 (1) _UART_Init                                           16    12      4     572
                                              6 BANK0     16    12      4
                            ___aldiv
 ---------------------------------------------------------------------------------
 (2) ___aldiv                                             15     7      8     452
                                              0 COMMON     9     1      8
                                              0 BANK0      6     6      0
 ---------------------------------------------------------------------------------
 (1) _LCD_POINT                                            6     5      1    1676
                                              3 COMMON     6     5      1
                            _lcd_cmd
 ---------------------------------------------------------------------------------
 (2) _lcd_cmd                                              1     1      0      22
                                              2 COMMON     1     1      0
                            _lcd_lat
                          _lcd_ready
 ---------------------------------------------------------------------------------
 (3) _lcd_ready                                            2     2      0       0
                                              0 COMMON     2     2      0
 ---------------------------------------------------------------------------------
 (3) _lcd_lat                                              2     2      0       0
                                              0 COMMON     2     2      0
 ---------------------------------------------------------------------------------
 (1) _I2C_Master_Write                                     2     0      2     554
                                              0 COMMON     2     0      2
                    _I2C_Master_Wait
 ---------------------------------------------------------------------------------
 (1) _I2C_Master_Stop                                      0     0      0       0
                    _I2C_Master_Wait
 ---------------------------------------------------------------------------------
 (1) _I2C_Master_Start                                     0     0      0       0
                    _I2C_Master_Wait
 ---------------------------------------------------------------------------------
 (1) _I2C_Master_Read                                      6     4      2     425
                                              0 COMMON     6     4      2
                    _I2C_Master_Wait
 ---------------------------------------------------------------------------------
 (2) _I2C_Master_Wait                                      0     0      0       0
 ---------------------------------------------------------------------------------
 Estimated maximum stack depth 4
 ---------------------------------------------------------------------------------

 Call Graph Graphs:

 _main (ROOT)
   _I2C_Master_Read
     _I2C_Master_Wait
   _I2C_Master_Start
     _I2C_Master_Wait
   _I2C_Master_Stop
     _I2C_Master_Wait
   _I2C_Master_Write
     _I2C_Master_Wait
   _LCD_POINT
     _lcd_cmd
       _lcd_lat
       _lcd_ready
   _UART_Init
     ___aldiv
   _UART_Write
   _Val_STR
   ___awmod
   ___fladd
     __Umul8_16 (ARG)
     ___fldiv (ARG)
       __Umul8_16 (ARG)
       ___fleq (ARG)
       ___flge (ARG)
       ___xxtofl (ARG)
       _frexp (ARG)
         ___fleq
     ___xxtofl (ARG)
     _frexp (ARG)
       ___fleq
   ___fldiv
     __Umul8_16 (ARG)
     ___fleq (ARG)
     ___flge (ARG)
     ___xxtofl (ARG)
     _frexp (ARG)
       ___fleq
   ___flmul
     __Umul8_16
     ___fladd (ARG)
       __Umul8_16 (ARG)
       ___fldiv (ARG)
         __Umul8_16 (ARG)
         ___fleq (ARG)
         ___flge (ARG)
         ___xxtofl (ARG)
         _frexp (ARG)
           ___fleq
       ___xxtofl (ARG)
       _frexp (ARG)
         ___fleq
     ___fldiv (ARG)
       __Umul8_16 (ARG)
       ___fleq (ARG)
       ___flge (ARG)
       ___xxtofl (ARG)
       _frexp (ARG)
         ___fleq
     ___xxtofl (ARG)
     _frexp (ARG)
       ___fleq
   ___fltol
   ___lwdiv
   ___lwmod
   ___xxtofl
   _init
     _I2C_Master_Init
       ___lldiv
   _initOsc
   _lcd_cmd
     _lcd_lat
     _lcd_ready
   _lcd_dwr
     _lcd_lat
     _lcd_ready
   _lcd_init
     _lcd_cmd
       _lcd_lat
       _lcd_ready
   _lcd_msg
     _lcd_dwr
       _lcd_lat
       _lcd_ready
   _log
     ___fladd
       __Umul8_16 (ARG)
       ___fldiv (ARG)
         __Umul8_16 (ARG)
         ___fleq (ARG)
         ___flge (ARG)
         ___xxtofl (ARG)
         _frexp (ARG)
           ___fleq
       ___xxtofl (ARG)
       _frexp (ARG)
         ___fleq
     ___fldiv (ARG)
       __Umul8_16 (ARG)
       ___fleq (ARG)
       ___flge (ARG)
       ___xxtofl (ARG)
       _frexp (ARG)
         ___fleq
     ___fleq (ARG)
     ___flge (ARG)
     ___flmul (ARG)
       __Umul8_16
       ___fladd (ARG)
         __Umul8_16 (ARG)
         ___fldiv (ARG)
           __Umul8_16 (ARG)
           ___fleq (ARG)
           ___flge (ARG)
           ___xxtofl (ARG)
           _frexp (ARG)
             ___fleq
         ___xxtofl (ARG)
         _frexp (ARG)
           ___fleq
       ___fldiv (ARG)
         __Umul8_16 (ARG)
         ___fleq (ARG)
         ___flge (ARG)
         ___xxtofl (ARG)
         _frexp (ARG)
           ___fleq
       ___xxtofl (ARG)
       _frexp (ARG)
         ___fleq
     ___xxtofl (ARG)
     _eval_poly (ARG)
       ___fladd
         __Umul8_16 (ARG)
         ___fldiv (ARG)
           __Umul8_16 (ARG)
           ___fleq (ARG)
           ___flge (ARG)
           ___xxtofl (ARG)
           _frexp (ARG)
             ___fleq
         ___xxtofl (ARG)
         _frexp (ARG)
           ___fleq
       ___fldiv (ARG)
         __Umul8_16 (ARG)
         ___fleq (ARG)
         ___flge (ARG)
         ___xxtofl (ARG)
         _frexp (ARG)
           ___fleq
       ___flmul (ARG)
         __Umul8_16
         ___fladd (ARG)
           __Umul8_16 (ARG)
           ___fldiv (ARG)
             __Umul8_16 (ARG)
             ___fleq (ARG)
             ___flge (ARG)
             ___xxtofl (ARG)
             _frexp (ARG)
               ___fleq
           ___xxtofl (ARG)
           _frexp (ARG)
             ___fleq
         ___fldiv (ARG)
           __Umul8_16 (ARG)
           ___fleq (ARG)
           ___flge (ARG)
           ___xxtofl (ARG)
           _frexp (ARG)
             ___fleq
         ___xxtofl (ARG)
         _frexp (ARG)
           ___fleq
     _frexp (ARG)
       ___fleq

 Address spaces:
Name               Size   Autos  Total    Cost      Usage
BANK3               60      0       8       9        8.3%
BITBANK3            60      0       0       8        0.0%
SFR3                 0      0       0       4        0.0%
BITSFR3              0      0       0       4        0.0%
BANK2               60      0       0      11        0.0%
BITBANK2            60      0       0      10        0.0%
SFR2                 0      0       0       5        0.0%
BITSFR2              0      0       0       5        0.0%
BANK1               50     22      4F       7       98.8%
BITBANK1            50      0       0       6        0.0%
SFR1                 0      0       0       2        0.0%
BITSFR1              0      0       0       2        0.0%
BANK0               50     4E      4F       5       98.8%
BITBANK0            50      0       0       4        0.0%
SFR0                 0      0       0       1        0.0%
BITSFR0              0      0       0       1        0.0%
COMMON               E      E       E       1      100.0%
BITCOMMON            E      0       0       0        0.0%
CODE                 0      0       0       0        0.0%
DATA                 0      0      B4      12        0.0%
ABS                  0      0      B4       3        0.0%
NULL                 0      0       0       0        0.0%
STACK                0      0       0       2        0.0%
EEDATA             100      0       0       0        0.0%


Microchip Technology PIC Macro Assembler V2.10 build 88905656 
Symbol Table                                                                                   Wed Mar 18 20:37:25 2020

                        _C 0190                          _K 00A0               ___fldiv@aexp 003E  
             ___fldiv@bexp 003D                          _i 00BA                          pc 0002  
             ___fldiv@sign 0036                __CFG_CP$OFF 0000                         fsr 0004  
      __Umul8_16@word_mpld 0076                        l202 10D7                        l130 0311  
                      l300 10ED                        l205 10E1                        l231 1109  
                      l143 1149                        l208 1204                        l236 11D7  
                      l228 111B                        l148 12A9                        l245 1187  
                      l190 10EE                        l254 1232                        l422 14B2  
                      l270 13AF                        l271 13B5                        l239 112D  
                      l272 13BB                        l248 1168                        l193 10FA  
                      l273 13C1                        l265 1397                        l290 006F  
                      l274 13C7                        l266 13EF                        l451 1541  
                      l187 126A                        l275 13F0                        l267 139D  
                      l196 10CE                        l268 13A3                        l700 0BEC  
                      l461 15C9                        l269 13A9                        l710 0C32  
                      l552 1394                        l560 15E6                        l704 0C10  
                      l297 10E3                        l721 0C92                        l713 0C70  
                      l722 0C9E                        l563 1652                        l555 130A  
                      l572 152C                        l564 166B                        l556 1326  
                      l813 168E                        l557 133B                        l582 152C  
                      l751 0988                        l735 0896                        l815 1725  
                      l840 01BB                        l737 0A16                        l658 12ED  
                      l826 16EF                        l850 11AE                        l579 1517  
                      l827 16FB                        l819 16D3                        l683 0B21  
                      l668 0839                        l692 0C9E                        l757 09FA  
                      l685 0AF8                        l781 0F6B                        l759 0A0A  
                      l679 0A7A                        l775 0FFF                        l848 119C  
                      l864 144C                        l858 17FF                        l787 0FF3  
                      _GIE 005F                        _RD2 0042                        _RD3 0043  
                      _RD7 0047               __CFG_CPD$OFF 0000                        _log 0070  
                      fsr0 0004                        indf 0000               ___awmod@sign 0076  
             ___flmul@aexp 0065               ___flmul@bexp 0066               ___flmul@sign 0060  
             ___flmul@temp 006B               ___flmul@prod 0067               LCD_POINT@col 0073  
             LCD_POINT@lin 0078               __CFG_LVP$OFF 0000               ___fltol@exp1 007A  
                     l3000 1281                       l3010 1341                       l3020 1357  
                     l3012 1346                       l3100 12E3                       l2300 144D  
                     l3030 1373                       l3022 135A                       l3014 1348  
                     l3006 133C                       l3102 12E9                       l3110 0809  
                     l2310 147A                       l2302 145D                       l3040 1390  
                     l3032 1379                       l3024 1361                       l3016 134C  
                     l3008 133D                       l3200 090D                       l3120 0828  
                     l3112 0810                       l2312 148C                       l2304 1460  
                     l2320 14AA                       l2400 0AA8                       l3034 1380  
                     l3026 1365                       l3018 1351                       l3202 0916  
                     l3210 093B                       l3130 0841                       l3050 14C7  
                     l3122 082F                       l3114 0814                       l3106 0800  
                     l2314 149A                       l2306 146D                       l2410 0ABC  
                     l2402 0AAC                       l2330 1338                       l3028 1369  
                     l3036 1386                       l3220 0958                       l3212 0941  
                     l3204 0928                       l3140 0856                       l3132 0847  
                     l3060 14EB                       l3052 14DC                       l3044 14B3  
                     l3116 0818                       l3108 0806                       l3124 0835  
                     l2316 149B                       l2308 1471                       l2420 0AFC  
                     l2412 0AC0                       l2404 0AB0                       l2340 0A24  
                     l2260 1189                       l2332 133A                       l2324 12EE  
                     l3300 0218                       l3038 138B                       l3230 096D  
                     l3222 0959                       l3214 0949                       l3206 0929  
                     l3150 086E                       l3142 085E                       l3134 084B  
                     l3054 14DD                       l3046 14BE                       l3118 0822  
                     l2318 14A4                       l2510 0C6C                       l2502 0C37  
                     l2430 0B15                       l2422 0B05                       l2406 0AB4  
                     l2414 0AC4                       l2350 0A3B                       l2342 0A28  
                     l2270 11AA                       l2262 118B                       l2326 1302  
                     l3310 0248                       l3302 021D                       l2280 11B8  
                     l3240 0992                       l3232 0971                       l3224 0962  
                     l3216 094B                       l3208 0937                       l3160 0883  
                     l3152 0874                       l3144 085F                       l3136 084C  
                     l3128 083A                       l3056 14E5                       l3080 12AA  
                     l2520 0C88                       l2512 0C75                       l2504 0C3C  
                     l2440 0B33                       l2424 0B07                       l2432 0B19  
                     l2416 0AC5                       l2408 0AB8                       l2360 0A51  
                     l2352 0A3C                       l2344 0A29                       l2336 0A17  
                     l2264 1192                       l2600 0E42                       l2328 131E  
                     l3400 0428                       l3320 0278                       l3312 024D  
                     l3304 0226                       l2290 11CC                       l2282 11B9  
                     l2274 11AF                       l3250 09D0                       l3242 09A0  
                     l3234 0985                       l3218 0954                       l3226 0968  
                     l3170 08AA                       l3162 088B                       l3154 0878  
                     l3138 0851                       l3146 0861                       l3074 150C  
                     l3066 14F3                       l3058 14E7                       l3090 12C0  
                     l3082 12AC                       l2522 0C8C                       l2514 0C7A  
                     l2506 0C4A                       l2450 0B5D                       l2442 0B4A  
                     l2434 0B25                       l2426 0B0B                       l2418 0ADC  
                     l2370 0A62                       l2362 0A52                       l2346 0A2E  
                     l2354 0A3E                       l2338 0A1E                       l2266 1196  
                     l2610 0EEF                       l2602 0E5F                       l2530 0C9F  
                     l3410 0455                       l3402 042E                       l3330 02A8  
                     l3322 027D                       l3314 0256                       l3306 0234  
                     l2292 11D4                       l2284 11BA                       l2276 11B3  
                     l3260 0A00                       l3252 09DE                       l3244 09A4  
                     l3228 096C                       l3172 08AE                       l3164 088C  
                     l3156 0879                       l3148 0869                       l3076 151C  
                     l3068 1505                       l3092 12C4                       l3084 12B2  
                     l2700 1269                       l2524 0C8E                       l2516 0C82  
                     l2508 0C4E                       l2460 0B86                       l2452 0B61  
                     l2444 0B4E                       l2436 0B2A                       l2428 0B0C  
                     l2380 0A80                       l2372 0A67                       l2364 0A58  
                     l2356 0A46                       l2348 0A33                       l2268 11A5  
                     l2620 0F3B                       l2612 0F17                       l2604 0E8C  
                     l2540 0CB6                       l2532 0CA6                       l3420 0485  
                     l3412 0461                       l3404 043D                       l3340 02D8  
                     l3332 02AD                       l3324 0286                       l3316 0264  
                     l3308 0239                       l2702 10EE                       l2294 10FB  
                     l2286 11C2                       l2278 11B7                       l2710 1534  
                     l3262 0A04                       l3254 09ED                       l3246 09BD  
                     l3238 098D                       l3190 08EF                       l3182 08C5  
                     l3158 087E                       l3166 088E                       l3078 1521  
                     l3094 12D5                       l3086 12B5                       l2526 0C99  
                     l2518 0C87                       l2470 0BF4                       l2462 0BC4  
                     l2454 0B62                       l2446 0B52                       l2390 0A94  
                     l2382 0A84                       l2374 0A6F                       l2366 0A5C  
                     l2358 0A4B                       l2630 0F50                       l2622 0F3C  
                     l2614 0F20                       l2606 0E9C                       l2550 0CD2  
                     l2542 0CBB                       l2534 0CAC                       l3430 04AF  
                     l3422 048B                       l3414 0467                       l3406 0443  
                     l3350 0308                       l3342 02DD                       l3334 02B6  
                     l3326 0294                       l3318 0269                       l3270 01BC  
                     l2704 10F4                       l2296 10FE                       l2288 11CB  
                     l2720 1564                       l2712 1545                       l3264 0A06  
                     l3256 09F1                       l3248 09C3                       l3192 08F1  
                     l3184 08D7                       l3168 089E                       l3176 08B7  
                     l3096 12DB                       l3088 12BC                       l2800 1713  
                     l2528 0C9D                       l2480 0C0F                       l2472 0BF9  
                     l2464 0BCA                       l2456 0B6B                       l2448 0B5B  
                     l2392 0A98                       l2384 0A88                       l2376 0A70  
                     l2368 0A5D                       l2640 0F75                       l2632 0F54  
                     l2624 0F45                       l2616 0F2E                       l2608 0EC9  
                     l2560 0CE7                       l2552 0CD8                       l2544 0CC3  
                     l2536 0CB0                       l3440 0615                       l3432 050C  
                     l3424 0497                       l3416 0473                       l3408 044F  
                     l3360 035A                       l3352 030F                       l3344 02E6  
                     l3336 02C4                       l3328 0299                       l3280 01DE  
                     l3272 01C2                       l2298 1106                       l2730 1593  
                     l2722 1567                       l2714 1550                       l2706 152D  
                     l3258 09F9                       l3194 08F6                       l3186 08DF  
                     l3178 08BC                       l3098 12DC                       l2802 1718  
                     l2482 0C14                       l2490 0C20                       l2466 0BCF  
                     l2458 0B70                       l2394 0A9C                       l2386 0A8C  
                     l2378 0A72                       l2650 0FB3                       l2642 0F83  
                     l2634 0F68                       l2618 0F37                       l2626 0F4B  
                     l2570 0D03                       l2562 0CEF                       l2554 0CDC  
                     l2546 0CC5                       l2538 0CB1                       l2810 13F1  
                     l3450 06A0                       l3442 0654                       l3434 0523  
                     l3426 049D                       l3418 0479                       l3370 03A7  
                     l3362 0362                       l3354 0313                       l3346 02F4  
                     l3338 02C9                       l3290 01EE                       l3282 01DF  
                     l3274 01C7                       l2740 15B6                       l2732 15A1  
                     l2724 1574                       l2716 1554                       l2708 1530  
                     l3196 0908                       l3188 08E7                       l3532 13D5  
                     l2900 117B                       l2804 171C                       l2484 0C17  
                     l2476 0C02                       l2468 0BDE                       l2492 0C24  
                     l2396 0AA0                       l2388 0A90                       l2660 0FE7  
                     l2652 0FBE                       l2644 0F87                       l2628 0F4F  
                     l2580 0D46                       l2564 0CF1                       l2556 0CDD  
                     l2548 0CCD                       l2820 143A                       l2812 140C  
                     l3460 06E5                       l3452 06B3                       l3444 0667  
                     l3436 0590                       l3428 04A9                       l3380 03D8  
                     l3372 03B6                       l3364 0379                       l3356 0334  
                     l3348 02F9                       l3292 01F4                       l3284 01E0  
                     l3276 01CC                       l2910 11D8                       l2902 10C6  
                     l2670 110B                       l2742 15C1                       l2734 15A2  
                     l2726 1578                       l2718 155C                       l3534 1289  
                     l3198 090C                       l2750 15FA                       l2806 171D  
                     l2494 0C25                       l2486 0C19                       l2478 0C0B  
                     l2398 0AA4                       l2662 0FEB                       l2654 0FCD  
                     l2646 0FA0                       l2638 0F70                       l2590 0DCF  
                     l2582 0D62                       l2574 0D0C                       l2566 0CF9  
                     l2558 0CE2                       l2830 1726                       l2822 1447  
                     l2814 1414                       l3470 075D                       l3462 06F2  
                     l3454 06C9                       l3446 067A                       l3438 05CF  
                     l3390 0400                       l3382 03DE                       l3374 03BD  
                     l3366 0388                       l3358 0343                       l3294 0200  
                     l3286 01E1                       l3278 01DB                       l2920 11FF  
                     l2912 11DD                       l2904 10CB                       l2672 1110  
                     l2736 15AB                       l2728 1581                       l2840 1396  
                     l2680 111D                       l2760 1668                       l2752 1602  
                     l2496 0C29                       l2488 0C1E                       l2664 0FEC  
                     l2656 0FD7                       l2648 0FA6                       l2592 0DDF  
                     l2584 0D8E                       l2576 0D1C                       l2568 0CFE  
                     l2832 1755                       l2824 144B                       l3480 07AD  
                     l3472 0770                       l3464 06FE                       l3456 06D0  
                     l3448 068D                       l3392 0406                       l3384 03E5  
                     l3376 03C7                       l3368 039F                       l3296 0206  
                     l3288 01E2                       l2922 1200                       l2914 11E5  
                     l2906 10D8                       l2674 1114                       l2738 15B1  
                     l2930 10E3                       l2690 1233                       l2850 112E  
                     l2682 1122                       l2762 166A                       l2754 1606  
                     l2746 15CA                       l2770 1676                       l2498 0C2F  
                     l2666 0FF7                       l2658 0FD9                       l2594 0DFC  
                     l2586 0DAA                       l2578 0D29                       l2834 17F1  
                     l2826 144C                       l2818 141D                       l3482 07B9  
                     l3474 0783                       l3466 070B                       l3458 06DD  
                     l3394 040D                       l3386 03EF                       l3378 03CE  
                     l3298 0212                       l2916 11EE                       l2908 10DD  
                     l2676 1115                       l2932 10E9                       l2692 1237  
                     l2852 1134                       l2844 13CD                       l2860 114A  
                     l2684 1126                       l2756 162A                       l2748 15DE  
                     l2780 16A4                       l2772 1686                       l2596 0E0C  
                     l2588 0DC6                       l2836 17F7                       l2940 009A  
                     l3484 07C6                       l3476 0796                       l3468 074A  
                     l3396 0417                       l3388 03F6                       l2918 11F3  
                     l2926 10CF                       l2678 1116                       l2870 0067  
                     l2862 0009                       l2694 123A                       l2854 1136  
                     l2686 1127                       l2758 162E                       l2790 16DA  
                     l2782 16B1                       l2774 1696                       l2766 166D  
                     l2598 0E29                       l2950 0133                       l2942 00B5  
                     l2934 0070                       l3486 07D5                       l3478 07A0  
                     l3398 041E                       l2928 10D4                       l2880 120C  
                     l2872 0068                       l2864 0062                       l2696 1267  
                     l2856 1139                       l2688 1128                       l2792 16E5  
                     l2784 16B8                       l2768 1672                       l2952 0156  
                     l2936 008B                       l2890 1223                       l2874 006B  
                     l2866 0063                       l2970 1273                       l2962 126F  
                     l2698 1268                       l2858 113A                       l2794 16E9  
                     l2786 16BC                       l2778 169F                       l2946 00C4  
                     l2892 1229                       l2884 1213                       l2876 006C  
                     l2868 0064                       l2956 126C                       l2796 16F3  
                     l2788 16CA                       l2948 012D                       l2886 1218  
                     l2878 1206                       l2990 127D                       l2982 1279  
                     l2974 1275                       l2966 1271                       l2958 126D  
                     l2894 116A                       l2798 16FD                       l2888 121E  
                     l2896 116B                       l2994 127F                       l2986 127B  
                     l2978 1277                       l2898 1177                       ?_log 00DC  
                     STR_1 1048                       STR_2 104C                       STR_3 1040  
                     STR_4 1044                       STR_5 1050                       STR_6 1044  
                     STR_7 1050                       STR_8 1050                       STR_9 1044  
                     u2200 1471                       u2201 1470                       u3010 0F4F  
                     u3011 0F4E                       u2220 148C                       u2300 0A33  
                     u2140 1196                       u3100 0FEB                       u3020 0F54  
                     u2221 148B                       u2301 0A32                       u2141 1195  
                     u3101 0FEA                       u3021 0F53                       u3005 0F3E  
                     u3110 124A                       u2310 0A51                       u3030 0F68  
                     u2215 1473                       u2311 0A50                       u3031 0F67  
                     u3120 10F4                       u3200 1593                       u4000 08BC  
                     u2240 14AA                       u2400 0AFC                       u2320 0A5C  
                     u2160 11AA                       u3040 0F6F                       u3121 10F3  
                     u3201 1592                       u4001 08BB                       u2241 14A9  
                     u2225 1488                       u2401 0AFB                       u2321 0A5B  
                     u2161 11A9                       u3041 0F6E                       u3130 10FA  
                     u2170 11CB                       u4010 08F6                       u2410 0B0B  
                     u2330 0A62                       u3050 0F75                       u2250 1302  
                     u3131 10F9                       u2171 11CA                       u4011 08F5  
                     u2235 149C                       u3115 1245                       u2411 0B0A  
                     u2331 0A61                       u2155 119D                       u3051 0F74  
                     u2251 1301                       u3220 15B1                       u3140 1534  
                     u4100 0958                       u2180 145D                       u3300 1668  
                     u2340 0A67                       u3060 0F87                       u2260 131E  
                     u3221 15B0                       u3205 158F                       u3141 1533  
                     u4101 0957                       u2181 145C                       u3301 1667  
                     u2341 0A66                       u3061 0F86                       u2261 131D  
                     u3230 15B6                       u3150 1545                       u3310 1672  
                     u2510 0B86                       u2430 0B21                       u2350 0A80  
                     u3070 0F96                       u2270 1338                       u3231 15B5  
                     u3215 15A3                       u3151 1544                       u3311 1671  
                     u2511 0B85                       u2431 0B20                       u2351 0A7F  
                     u2271 1337                       u3160 1564                       u4200 09ED  
                     u4120 096C                       u4040 090C                       u3240 15DE  
                     u3400 16EF                       u3320 1676                       u2600 0C1E  
                     u2440 0B25                       u2360 0A84                       u2280 0A28  
                     u3080 0FB3                       u3161 1563                       u4201 09EC  
                     u4121 096B                       u4041 090B                       u4025 08F8  
                     u3305 1664                       u3241 15DD                       u3401 16EE  
                     u3321 1675                       u2601 0C1D                       u2521 0B9D  
                     u2513 0B82                       u2505 0B64                       u2441 0B24  
                     u2425 0B0E                       u2361 0A83                       u2281 0A27  
                     u3081 0FB2                       u4210 0A04                       u4130 0971  
                     u3250 15FA                       u3410 16F3                       u3330 1696  
                     u2610 0C24                       u2530 0BB1                       u2522 0B9E  
                     u2450 0B2A                       u2370 0ADC                       u2290 0A2E  
                     u3090 0FCD                       u4211 0A03                       u4131 0970  
                     u4115 095B                       u4035 0901                       u2195 1462  
                     u3251 15F9                       u3411 16F2                       u3331 1695  
                     u2611 0C23                       u2531 0BB2                       u2523 0BA3  
                     u2451 0B29                       u2371 0ADB                       u2291 0A2D  
                     u3091 0FCC                       u3075 0F91                       u2275 1334  
                     u3180 1578                       u3500 0032                       u4140 0985  
                     u4060 0928                       u3260 1606                       u3420 1708  
                     u2700 0C7A                       u2620 0C29                       u2540 0BCF  
                     u2532 0BB7                       u2524 0BA4                       u2380 0AE7  
                     u4220 030F                       u3181 1577                       u4205 09E9  
                     u4141 0984                       u4061 0927                       u3261 1605  
                     u2701 0C79                       u2621 0C28                       u2541 0BCE  
                     u2533 0BB8                       u2525 0BA9                       u2461 0B3C  
                     u2381 0AE5                       u3085 0FAF                       u4221 030E  
                     u4150 098C                       u4070 0941                       u3430 1718  
                     u3350 16B7                       u2710 0C87                       u2630 0C2F  
                     u2550 0BF4                       u2526 0BAA                       u2470 0B4E  
                     u2462 0B43                       u2390 0AE8                       u4230 03BD  
                     u3175 1569                       u3511 0044                       u4151 098B  
                     u4071 0940                       u4055 090F                       u3271 1615  
                     u3431 1717                       u3351 16B6                       u2711 0C86  
                     u2631 0C2E                       u2551 0BF3                       u2471 0B4D  
                     u2463 0B4A                       u2375 0AD8                       u3095 0FC9  
                     u4231 03BC                       u3520 120C                       u3512 0045  
                     u4160 0992                       u4080 0949                       u3280 162E  
                     u3272 1616                       u3440 171C                       u2720 0C8C  
                     u2640 0C36                       u2560 0BF9                       u2480 0B52  
                     u2800 0CFE                       u3600 00B5                       u4240 03E5  
                     u3521 120B                       u3513 004A                       u3505 002D  
                     u4161 0991                       u4081 0948                       u4065 0924  
                     u3281 162D                       u3273 161B                       u3441 171B  
                     u3425 1703                       u3345 16A9                       u2721 0C8B  
                     u2641 0C35                       u2561 0BF8                       u2481 0B51  
                     u2801 0CFD                       u3601 00B4                       u4241 03E4  
                     u3530 1212                       u3514 004B                       u3610 1341  
                     u4170 09A4                       u3274 161C                       u3370 16D9  
                     u2730 0C9D                       u2650 0C3C                       u2490 0B61  
                     u2810 0D03                       u3450 140C                       u4250 040D  
                     u3531 1211                       u3195 157A                       u3515 0050  
                     u3611 1340                       u4171 09A3                       u3291 163D  
                     u3275 1621                       u3371 16D8                       u2731 0C9C  
                     u2651 0C3B                       u2491 0B60                       u2811 0D02  
                     u3451 140B                       u4251 040C                       u4307 0301  
                     u3540 1218                       u3516 0051                       u3620 134C  
                     u4180 09B3                       u3700 14BE                       u3292 163E  
                     u3276 1622                       u2660 0C4E                       u2580 0C0F  
                     u2740 0CB0                       u3541 1217                       u3621 134B  
                     u3701 14BD                       u3293 1643                       u3365 16CB  
                     u2661 0C4D                       u2581 0C0E                       u2901 0E51  
                     u2821 0D54                       u2741 0CAF                       u4317 033C  
                     u3630 1357                       u4190 09D0                       u3710 14D5  
                     u3550 1187                       u3294 1644                       u3390 16E9  
                     u2670 0C5D                       u2590 0C14                       u2902 0E58  
                     u2822 0D5B                       u2750 0CB6                       u4407 11BE  
                     u3631 1356                       u4191 09CF                       u4095 094D  
                     u3551 1186                       u3295 1649                       u3391 16E8  
                     u2591 0C13                       u2575 0C04                       u2911 0E7E  
                     u2903 0E5F                       u2831 0D70                       u2823 0D62  
                     u2751 0CB5                       u4327 0353                       u3560 11FC  
                     u3720 14EB                       u3800 12B2                       u3296 164A  
                     u2680 0C6C                       u2912 0E85                       u2832 0D77  
                     u2760 0CBB                       u3480 17F7                       u3561 11F8  
                     u4417 11D0                       u4185 09AE                       u3721 14EA  
                     u3801 12B1                       u3385 16DE                       u2681 0C6B  
                     u2921 0EAB                       u2913 0E8C                       u2841 0D9C  
                     u2833 0D7E                       u2761 0CBA                       u3481 17F6  
                     u3465 172B                       u4337 036A                       u3490 0019  
                     u3650 1369                       u3730 14F2                       u2690 0C75  
                     u2930 0ED5                       u2922 0EB2                       u2842 0DA3  
                     u2770 0CDC                       u4427 1102                       u3651 1368  
                     u4195 09CC                       u3731 14F1                       u3715 14D0  
                     u2691 0C74                       u2675 0C58                       u2923 0EB9  
                     u2851 0DB8                       u2843 0DAA                       u2771 0CDB  
                     u3475 175E                       u4347 0381                       u4267 0241  
                     _PEIE 005E                       u3580 10E9                       u3660 1373  
                     u3820 12C4                       u3900 0822                       u2852 0DBF  
                     u2780 0CE2                       u3581 10E8                       u3661 1372  
                     u3645 135B                       u3821 12C3                       u3901 0821  
                     u2941 0EE1                       u2853 0DC6                       u2781 0CE1  
                     u4357 0398                       u4277 0271                       u3574 11FF  
                     u3750 1504                       u2950 0EFD                       u2942 0EE8  
                     u2790 0CE7                       u3590 008B                       u3495 0014  
                     u3751 1503                       u3815 12B6                       u2943 0EEF  
                     u2935 0ED0                       u2871 0DEE                       u2791 0CE6  
                     u3591 008A                       u4367 03AF                       u4287 02A1  
                     u3680 1386                       u3760 150B                       u3840 12D5  
                     u3920 0835                       u2872 0DF5                       u3681 1385  
                     u3665 136F                       u3761 150A                       u3745 14F4  
                     u3841 12D4                       u3921 0834                       u3905 081E  
                     u2961 0F09                       u2881 0E1B                       u2873 0DFC  
                     u2865 0DC8                       u4377 0436                       u4297 02D1  
                     u3690 138B                       u3930 084B                       u2962 0F10  
                     u2882 0E22                       u3691 138A                       u3675 137A  
                     u3931 084A                       u3835 12C5                       u3915 0829  
                     u2963 0F17                       u2955 0EF8                       u2883 0E29  
                     u4387 07CE                       u3940 0851                       u3780 151C  
                     u3860 12E9                       u4397 122D                       u3941 0850  
                     u3781 151B                       u3861 12E8                       u3845 12D1  
                     u3950 0856                       u3790 1521                       u3870 0806  
                     u2990 0F3B                       u3951 0855                       u3791 1520  
                     u3775 150E                       u3855 12DD                       u3871 0805  
                     u2991 0F3A                       u2975 0F19                       u2895 0E2B  
                     u3960 0878                       u3961 0877                       u2985 0F30  
                     u3970 087E                       u3890 0818                       u3971 087D  
                     u3891 0817                       u3980 0883                       u3981 0882  
                     u3885 080A                       u3990 089E                       u3991 089D  
             __CFG_WRT$OFF 0000         __size_of_LCD_POINT 002E                       _main 01BC  
                     _init 112E                       btemp 007E                       log@x 00DC  
                     start 0000              __CFG_IESO$OFF 0000            ___fldiv@new_exp 0037  
          __end_of_Val_STR 12AA                      ??_log 006D           ?_I2C_Master_Init 0020  
         ?_I2C_Master_Read 0070           ?_I2C_Master_Wait 0070           ?_I2C_Master_Stop 0070  
            ___fltol@sign1 0079            __end_of___aldiv 15CA            __end_of___fladd 0C9F  
                    ?_main 0070                      ?_init 0070            __end_of___fldiv 0A17  
                    STR_10 103B                      STR_11 1036              __CFG_WDTE$OFF 0000  
          __end_of___awmod 1395            __end_of___flmul 1000            __end_of___fltol 152D  
                    _ANSEL 0188            __end_of___lldiv 14B3            __end_of___lwdiv 12EE  
          __end_of___lwmod 083A                      _RCREG 001A                      _SPBRG 0099  
                    _PORTA 0005                      _PORTB 0006                      _PORTC 0007  
                    _PORTD 0008                      _PORTE 0009                      _TRISA 0085  
                    _TRISB 0086                      _TRISC 0087                      _TRISD 0088  
                    _SSPIE 0463                      _TRISE 0089                      _SSPIF 0063  
                    _TXREG 0019             __CFG_FCMEN$OFF 0000            __end_of_lcd_cmd 111C  
              ?_UART_Write 0070         __size_of_UART_Init 0067            __end_of_lcd_lat 110A  
          __end_of_lcd_dwr 112E            __end_of_lcd_msg 1188            __end_of_invBeta 1036  
                    _invT0 102E            __end_of_initOsc 13F1                      _frexp 13F1  
                    _errno 00B0                 Val_STR@num 0072             __CFG_BOREN$OFF 0000  
                    pclath 000A                      status 0003                      wtemp0 007E  
           __CFG_MCLRE$OFF 0000            __initialization 07DF                log@exponent 00E0  
             __end_of_main 07DF               __end_of_init 114A          __end_of_LCD_POINT 1233  
                   ??_main 00E2                     ??_init 007E          ?_I2C_Master_Start 0070  
        ?_I2C_Master_Write 0070         ??_I2C_Master_Start 0070         ??_I2C_Master_Write 0072  
                   ?_frexp 0020                     _ANSELH 0189                     _CONT_C 00BB  
                   _CONT_D 00BC                     _CONT_U 00BD                initOsc@frec 0072  
                   _RES_D1 00BF                     _RES_D2 00BE                     _RES_EN 00C2  
                   _POT_D1 00C1                     _POT_D2 00C0                     _SSPADD 0093  
                   _POT_EN 00C3                     _TRISC3 043B                     _TRISC4 043C  
                   _SSPCON 0014                     _SSPBUF 0013           __end_of___xxtofl 1726  
           __CFG_PWRTE$OFF 0000                  ??_Val_STR 0070           __end_of_lcd_init 1169  
        __end_of_UART_Init 0070                     ___flge 15CA                     _adcMax 1006  
                   ___fleq 12EE        __size_of_UART_Write 000C                  ??___aldiv 0078  
                ??___fladd 0047                  ??___fldiv 002D                  ??___awmod 0074  
                ??___flmul 005B                  ??___fltol 0074                  ??___lldiv 0078  
                ??___lwdiv 0074                  ??___lwmod 0074                     _estado 00EE  
          ___awmod@divisor 0070            ___awmod@counter 0075                  ??_lcd_cmd 0072  
                ??_lcd_lat 0070                  ??_lcd_dwr 0072                  ??_lcd_msg 0073  
                ??_initOsc 0070         __size_of__Umul8_16 0027                 ___flge@ff1 0070  
               ___flge@ff2 0074               ___xxtofl@arg 007A               ___xxtofl@exp 0079  
             ___xxtofl@val 0070                 ___fleq@ff1 0070                 ___fleq@ff2 0074  
         __end_oflog@coeff 102E    __end_of__initialization 07FC               eval_poly@res 00D8  
               ___fltol@f1 0070             __pcstackCOMMON 0070               __pidataBANK1 0008  
            __end_of_invT0 1032              __end_of_frexp 144D         __size_of_lcd_ready 0029  
                  ??_frexp 007C                 __pbssBANK0 006E                 __pbssBANK1 00A0  
               __pbssBANK3 0190         __size_of_eval_poly 00DA          __end_of__Umul8_16 11AF  
               __pmaintext 01BC                    ?___flge 0070                    ?___fleq 0070  
                ?___xxtofl 0070               ??_UART_Write 0070                    _PESO_EN 006E  
                  _TEMP_EN 00C6                    _SSPCON2 0091                  ?_lcd_init 0070  
                  _SSPSTAT 0094                 __stringtab 1000                    _Val_INT 00CA  
                  _Val_MOV 00C9                    _Val_VIB 00C8                    _Val_STR 126B  
        __end_of_lcd_ready 11D8                    ___aldiv 152D            __size_of___flge 00A2  
          __size_of___fleq 004E                    ___fladd 0A17                    ___fldiv 083A  
                  ___awmod 133C                    ___flmul 0C9F                    ___fltol 14B3  
                  ___lldiv 144D         __end_of_UART_Write 10EE                    ___lwdiv 12AA  
                  ___lwmod 0800          __end_of_eval_poly 1800                    __ptext1 0070  
                  __ptext2 13F1                    __ptext3 12EE                    __ptext4 1726  
                  __ptext5 0C9F                    __ptext6 1188                    __ptext7 0A17  
                  __ptext8 166C                    __ptext9 15CA                    _lcd_cmd 110A  
                  _lcd_lat 10FB                    _lcd_dwr 111C                    _lcd_msg 1169  
                  _invBeta 1032                    _initOsc 1395               __size_of_log 014C  
               ??___xxtofl 0074           ___awmod@dividend 0072           ___aldiv@dividend 0074  
                _LCD_POINT 1205   __size_of_I2C_Master_Init 0038   __size_of_I2C_Master_Read 002D  
 __size_of_I2C_Master_Wait 000D   __size_of_I2C_Master_Stop 0009                    clrloop0 10BF  
               ??_lcd_init 0073       end_of_initialization 07FC  __size_of_I2C_Master_Start 0009  
__size_of_I2C_Master_Write 000A            ___lldiv@divisor 0070                  _PESO_EN_1 00C4  
          ___lldiv@counter 007D                  _RCSTAbits 0018           ___aldiv@quotient 0022  
         I2C_Master_Init@c 0020           I2C_Master_Read@a 0070                  _TEMP_EN_1 00C5  
                _UART_Init 0009             UART_Write@data 0070                ___fladd@grs 0052  
            ___xxtofl@sign 0078                 ?_LCD_POINT 0073                  _TRISCbits 0087  
              ___fldiv@grs 0039                ___fldiv@rem 0032                ___flmul@grs 0061  
                _TXSTAbits 0098             __end_of___flge 166C             __end_of_adcMax 100A  
           __end_of___fleq 133C                 ?_UART_Init 0026        start_initialization 07DF  
               eval_poly@d 00D0                 eval_poly@n 00D1                 eval_poly@x 00CC  
              __end_of_log 01BC                 frexp@value 0020          ??_I2C_Master_Init 0024  
        ??_I2C_Master_Read 0072          ??_I2C_Master_Wait 0070          ??_I2C_Master_Stop 0070  
 __CFG_FOSC$INTRC_NOCLKOUT 0000                   ??___flge 0078                   ??___fleq 0078  
                __Umul8_16 1188                __pdataBANK1 00EE                  ___fladd@a 0043  
                ___fladd@b 003F                  ___fldiv@a 0025                  ___fldiv@b 0029  
                ___flmul@a 0057                  ___flmul@b 0053                  ___latbits 0002  
              ??_LCD_POINT 0074              __pcstackBANK0 0020              __pcstackBANK1 00CC  
        __size_of___xxtofl 00BA          __size_of_lcd_init 001F           _I2C_Master_Start 10C6  
         _I2C_Master_Write 10D8                   ?_Val_STR 0070                  _main$1116 00E6  
                _main$1117 00EA           ___lwdiv@dividend 0072                   ?___aldiv 0070  
                 ?___fladd 003F                   ?___fldiv 0025                   ?___awmod 0070  
                 ?___flmul 0053                   ?___fltol 0070                   ?___lldiv 0070  
               ?__Umul8_16 0070                   ?___lwdiv 0070                   ?___lwmod 0070  
              ??_UART_Init 002A                  _lcd_ready 11AF                  __pstrings 1000  
                 ?_lcd_cmd 0070                   ?_lcd_lat 0070                   ?_lcd_dwr 0070  
                 ?_lcd_msg 0070                   ?_initOsc 0070                  _eval_poly 1726  
         ___lwdiv@quotient 0075             __size_of_frexp 005C            ___aldiv@divisor 0070  
          ___aldiv@counter 0020                  clear_ram0 10BE                   _PIR1bits 000C  
                 _RES_cien 00A4          UART_Init@baudrate 0026                 ?_lcd_ready 0070  
                 _POT_cien 00A8                __stringbase 1005                 ?_eval_poly 00CC  
               _ADC_PESO_V 00AC                 _ADC_TEMP_V 0194        I2C_Master_Read@temp 0074  
               _DECI_1_RES 00B4                 _DECI_1_POT 00B8                 _DECI_2_RES 00B2  
               _DECI_2_POT 00B6                   _Val_PESO 00C7                   _Val_TEMP 00CB  
                frexp@eptr 0024           __size_of_Val_STR 003F                ??__Umul8_16 0072  
         __size_of___aldiv 009D           __size_of___fladd 0288           __size_of___fldiv 01DD  
         __size_of___awmod 0059           __size_of___flmul 0361           __size_of___fltol 007A  
         __size_of___lldiv 0066           __size_of___lwdiv 0044           __size_of___lwmod 003A  
       __end_of__stringtab 1006           __size_of_lcd_cmd 0012           __size_of_lcd_lat 000F  
         __size_of_lcd_dwr 0012           __size_of_lcd_msg 001F            _I2C_Master_Init 1233  
          _I2C_Master_Read 11D8                   ___xxtofl 166C            _I2C_Master_Wait 10EE  
          _I2C_Master_Stop 10CF           __size_of_initOsc 005C            ___lwdiv@divisor 0070  
          ___lwdiv@counter 0077                   __ptext10 1169                   __ptext11 111C  
                 __ptext20 083A                   __ptext12 114A                   __ptext21 133C  
                 __ptext13 1395                   __ptext30 10D8                   __ptext22 126B  
                 __ptext14 112E                   __ptext31 10CF                   __ptext23 10E2  
                 __ptext15 1233                   __ptext32 10C6                   __ptext24 0009  
                 __ptext16 144D                   __ptext33 11D8                   __ptext25 152D  
                 __ptext17 0800                   __ptext34 10EE                   __ptext26 1205  
                 __ptext18 12AA                   __ptext27 110A                   __ptext19 14B3  
                 __ptext28 11AF                   __ptext29 10FB          __CFG_BOR4V$BOR40V 0000  
                 _lcd_init 114A              __size_of_main 0623              __size_of_init 001C  
                 lcd_cmd@x 0072                   lcd_dwr@x 0072                   lcd_msg@c 0074  
              ??_lcd_ready 0070                   log@coeff 100A   __end_of_I2C_Master_Start 10CF  
            _LCD_POINT$278 0076   __end_of_I2C_Master_Write 10E2                ??_eval_poly 00D3  
         ___lwmod@dividend 0072           ___lldiv@dividend 0074                  stringcode 1000  
               _OSCCONbits 008F    __end_of_I2C_Master_Init 126B    __end_of_I2C_Master_Read 1205  
  __end_of_I2C_Master_Wait 10FB    __end_of_I2C_Master_Stop 10D8     __Umul8_16@multiplicand 0070  
         ___lldiv@quotient 0079          I2C_Master_Write@d 0070            ___lwmod@divisor 0070  
          ___lwmod@counter 0075                   stringdir 1000                   stringtab 1000  
             ___aldiv@sign 0021                 _UART_Write 10E2                _SSPCON2bits 0091  
            ___fladd@signs 004F               ___fladd@aexp 0050               ___fladd@bexp 0051  
     __Umul8_16@multiplier 0078          __Umul8_16@product 0074  
