

Microchip MPLAB XC8 Assembler V2.10 build 88905656 
                                                                                               Sun Mar 08 01:41:31 2020

Microchip MPLAB XC8 C Compiler v2.10 (Free license) build 20190730164152 Og1 
     1                           	processor	16F887
     2                           	opt	pw 120
     3                           	opt	flic
     4                           	psect	strings,global,class=STRING,delta=2
     5                           	psect	cinit,global,class=CODE,merge=1,delta=2
     6                           	psect	bssBANK0,global,class=BANK0,space=1,delta=1
     7                           	psect	clrtext,global,class=CODE,delta=2
     8                           	psect	cstackCOMMON,global,class=COMMON,space=1,delta=1
     9                           	psect	cstackBANK0,global,class=BANK0,space=1,delta=1
    10                           	psect	maintext,global,class=CODE,split=1,delta=2
    11                           	psect	text1,local,class=CODE,merge=1,delta=2
    12                           	psect	text2,local,class=CODE,merge=1,delta=2
    13                           	psect	text3,local,class=CODE,merge=1,delta=2
    14                           	psect	text4,local,class=CODE,merge=1,delta=2
    15                           	psect	text5,local,class=CODE,merge=1,delta=2
    16                           	psect	text6,local,class=CODE,merge=1,delta=2
    17                           	psect	text7,local,class=CODE,merge=1,delta=2,group=1
    18                           	psect	text8,local,class=CODE,merge=1,delta=2,group=1
    19                           	psect	text9,local,class=CODE,merge=1,delta=2,group=1
    20                           	psect	text10,local,class=CODE,merge=1,delta=2,group=1
    21                           	psect	text11,local,class=CODE,merge=1,delta=2,group=1
    22                           	psect	text12,local,class=CODE,merge=1,delta=2,group=1
    23                           	psect	text13,local,class=CODE,merge=1,delta=2,group=1
    24                           	psect	text14,local,class=CODE,merge=1,delta=2,group=1
    25                           	psect	text15,local,class=CODE,merge=1,delta=2,group=1
    26                           	psect	text16,local,class=CODE,merge=1,delta=2,group=1
    27                           	psect	text17,local,class=CODE,merge=1,delta=2
    28                           	psect	text18,local,class=CODE,merge=1,delta=2
    29                           	psect	text19,local,class=CODE,merge=1,delta=2
    30                           	psect	text20,local,class=CODE,merge=1,delta=2
    31                           	psect	text21,local,class=CODE,merge=1,delta=2
    32                           	psect	text22,local,class=CODE,merge=1,delta=2
    33                           	psect	text23,local,class=CODE,merge=1,delta=2
    34                           	psect	text24,local,class=CODE,merge=1,delta=2
    35                           	psect	text25,local,class=CODE,merge=1,delta=2
    36                           	psect	text26,local,class=CODE,merge=1,delta=2
    37                           	dabs	1,0x7E,2
    38  0000                     
    39                           ; Version 2.10
    40                           ; Generated 31/07/2019 GMT
    41                           ; 
    42                           ; Copyright © 2019, Microchip Technology Inc. and its subsidiaries ("Microchip")
    43                           ; All rights reserved.
    44                           ; 
    45                           ; This software is developed by Microchip Technology Inc. and its subsidiaries ("Microch
      +                          ip").
    46                           ; 
    47                           ; Redistribution and use in source and binary forms, with or without modification, are
    48                           ; permitted provided that the following conditions are met:
    49                           ; 
    50                           ;     1. Redistributions of source code must retain the above copyright notice, this lis
      +                          t of
    51                           ;        conditions and the following disclaimer.
    52                           ; 
    53                           ;     2. Redistributions in binary form must reproduce the above copyright notice, this 
      +                          list
    54                           ;        of conditions and the following disclaimer in the documentation and/or other
    55                           ;        materials provided with the distribution.
    56                           ; 
    57                           ;     3. Microchip's name may not be used to endorse or promote products derived from th
      +                          is
    58                           ;        software without specific prior written permission.
    59                           ; 
    60                           ; THIS SOFTWARE IS PROVIDED BY MICROCHIP "AS IS" AND ANY EXPRESS OR IMPLIED WARRANTIES,
    61                           ; INCLUDING, BUT NOT LIMITED TO, THE IMPLIED WARRANTIES OF MERCHANTABILITY AND FITNESS F
      +                          OR
    62                           ; PURPOSE ARE DISCLAIMED.  IN NO EVENT SHALL MICROCHIP BE LIABLE FOR ANY DIRECT, INDIREC
      +                          T,
    63                           ; INCIDENTAL, SPECIAL, EXEMPLARY, OR CONSEQUENTIAL DAMAGES (INCLUDING BUT NOT LIMITED TO
    64                           ; PROCUREMENT OF SUBSTITUTE GOODS OR SERVICES; LOSS OF USE, DATA OR PROFITS; OR BUSINESS
    65                           ; INTERRUPTION) HOWSOEVER CAUSED AND ON ANY THEORY OF LIABILITY, WHETHER IN CONTRACT, ST
      +                          RICT
    66                           ; LIABILITY, OR TORT (INCLUDING NEGLIGENCE OR OTHERWISE) ARISING IN ANY WAY OUT OF THE U
      +                          SE OF
    67                           ; THIS SOFTWARE, EVEN IF ADVISED OF THE POSSIBILITY OF SUCH DAMAGE.
    68                           ; 
    69                           ; 
    70                           ; Code-generator required, PIC16F887 Definitions
    71                           ; 
    72                           ; SFR Addresses
    73  0000                     	;# 
    74  0001                     	;# 
    75  0002                     	;# 
    76  0003                     	;# 
    77  0004                     	;# 
    78  0005                     	;# 
    79  0006                     	;# 
    80  0007                     	;# 
    81  0008                     	;# 
    82  0009                     	;# 
    83  000A                     	;# 
    84  000B                     	;# 
    85  000C                     	;# 
    86  000D                     	;# 
    87  000E                     	;# 
    88  000E                     	;# 
    89  000F                     	;# 
    90  0010                     	;# 
    91  0011                     	;# 
    92  0012                     	;# 
    93  0013                     	;# 
    94  0014                     	;# 
    95  0015                     	;# 
    96  0015                     	;# 
    97  0016                     	;# 
    98  0017                     	;# 
    99  0018                     	;# 
   100  0019                     	;# 
   101  001A                     	;# 
   102  001B                     	;# 
   103  001B                     	;# 
   104  001C                     	;# 
   105  001D                     	;# 
   106  001E                     	;# 
   107  001F                     	;# 
   108  0081                     	;# 
   109  0085                     	;# 
   110  0086                     	;# 
   111  0087                     	;# 
   112  0088                     	;# 
   113  0089                     	;# 
   114  008C                     	;# 
   115  008D                     	;# 
   116  008E                     	;# 
   117  008F                     	;# 
   118  0090                     	;# 
   119  0091                     	;# 
   120  0092                     	;# 
   121  0093                     	;# 
   122  0093                     	;# 
   123  0093                     	;# 
   124  0094                     	;# 
   125  0095                     	;# 
   126  0096                     	;# 
   127  0097                     	;# 
   128  0098                     	;# 
   129  0099                     	;# 
   130  009A                     	;# 
   131  009B                     	;# 
   132  009C                     	;# 
   133  009D                     	;# 
   134  009E                     	;# 
   135  009F                     	;# 
   136  0105                     	;# 
   137  0107                     	;# 
   138  0108                     	;# 
   139  0109                     	;# 
   140  010C                     	;# 
   141  010C                     	;# 
   142  010D                     	;# 
   143  010E                     	;# 
   144  010F                     	;# 
   145  0185                     	;# 
   146  0187                     	;# 
   147  0188                     	;# 
   148  0189                     	;# 
   149  018C                     	;# 
   150  018D                     	;# 
   151  0000                     	;# 
   152  0001                     	;# 
   153  0002                     	;# 
   154  0003                     	;# 
   155  0004                     	;# 
   156  0005                     	;# 
   157  0006                     	;# 
   158  0007                     	;# 
   159  0008                     	;# 
   160  0009                     	;# 
   161  000A                     	;# 
   162  000B                     	;# 
   163  000C                     	;# 
   164  000D                     	;# 
   165  000E                     	;# 
   166  000E                     	;# 
   167  000F                     	;# 
   168  0010                     	;# 
   169  0011                     	;# 
   170  0012                     	;# 
   171  0013                     	;# 
   172  0014                     	;# 
   173  0015                     	;# 
   174  0015                     	;# 
   175  0016                     	;# 
   176  0017                     	;# 
   177  0018                     	;# 
   178  0019                     	;# 
   179  001A                     	;# 
   180  001B                     	;# 
   181  001B                     	;# 
   182  001C                     	;# 
   183  001D                     	;# 
   184  001E                     	;# 
   185  001F                     	;# 
   186  0081                     	;# 
   187  0085                     	;# 
   188  0086                     	;# 
   189  0087                     	;# 
   190  0088                     	;# 
   191  0089                     	;# 
   192  008C                     	;# 
   193  008D                     	;# 
   194  008E                     	;# 
   195  008F                     	;# 
   196  0090                     	;# 
   197  0091                     	;# 
   198  0092                     	;# 
   199  0093                     	;# 
   200  0093                     	;# 
   201  0093                     	;# 
   202  0094                     	;# 
   203  0095                     	;# 
   204  0096                     	;# 
   205  0097                     	;# 
   206  0098                     	;# 
   207  0099                     	;# 
   208  009A                     	;# 
   209  009B                     	;# 
   210  009C                     	;# 
   211  009D                     	;# 
   212  009E                     	;# 
   213  009F                     	;# 
   214  0105                     	;# 
   215  0107                     	;# 
   216  0108                     	;# 
   217  0109                     	;# 
   218  010C                     	;# 
   219  010C                     	;# 
   220  010D                     	;# 
   221  010E                     	;# 
   222  010F                     	;# 
   223  0185                     	;# 
   224  0187                     	;# 
   225  0188                     	;# 
   226  0189                     	;# 
   227  018C                     	;# 
   228  018D                     	;# 
   229  0000                     	;# 
   230  0001                     	;# 
   231  0002                     	;# 
   232  0003                     	;# 
   233  0004                     	;# 
   234  0005                     	;# 
   235  0006                     	;# 
   236  0007                     	;# 
   237  0008                     	;# 
   238  0009                     	;# 
   239  000A                     	;# 
   240  000B                     	;# 
   241  000C                     	;# 
   242  000D                     	;# 
   243  000E                     	;# 
   244  000E                     	;# 
   245  000F                     	;# 
   246  0010                     	;# 
   247  0011                     	;# 
   248  0012                     	;# 
   249  0013                     	;# 
   250  0014                     	;# 
   251  0015                     	;# 
   252  0015                     	;# 
   253  0016                     	;# 
   254  0017                     	;# 
   255  0018                     	;# 
   256  0019                     	;# 
   257  001A                     	;# 
   258  001B                     	;# 
   259  001B                     	;# 
   260  001C                     	;# 
   261  001D                     	;# 
   262  001E                     	;# 
   263  001F                     	;# 
   264  0081                     	;# 
   265  0085                     	;# 
   266  0086                     	;# 
   267  0087                     	;# 
   268  0088                     	;# 
   269  0089                     	;# 
   270  008C                     	;# 
   271  008D                     	;# 
   272  008E                     	;# 
   273  008F                     	;# 
   274  0090                     	;# 
   275  0091                     	;# 
   276  0092                     	;# 
   277  0093                     	;# 
   278  0093                     	;# 
   279  0093                     	;# 
   280  0094                     	;# 
   281  0095                     	;# 
   282  0096                     	;# 
   283  0097                     	;# 
   284  0098                     	;# 
   285  0099                     	;# 
   286  009A                     	;# 
   287  009B                     	;# 
   288  009C                     	;# 
   289  009D                     	;# 
   290  009E                     	;# 
   291  009F                     	;# 
   292  0105                     	;# 
   293  0107                     	;# 
   294  0108                     	;# 
   295  0109                     	;# 
   296  010C                     	;# 
   297  010C                     	;# 
   298  010D                     	;# 
   299  010E                     	;# 
   300  010F                     	;# 
   301  0185                     	;# 
   302  0187                     	;# 
   303  0188                     	;# 
   304  0189                     	;# 
   305  018C                     	;# 
   306  018D                     	;# 
   307  0000                     	;# 
   308  0001                     	;# 
   309  0002                     	;# 
   310  0003                     	;# 
   311  0004                     	;# 
   312  0005                     	;# 
   313  0006                     	;# 
   314  0007                     	;# 
   315  0008                     	;# 
   316  0009                     	;# 
   317  000A                     	;# 
   318  000B                     	;# 
   319  000C                     	;# 
   320  000D                     	;# 
   321  000E                     	;# 
   322  000E                     	;# 
   323  000F                     	;# 
   324  0010                     	;# 
   325  0011                     	;# 
   326  0012                     	;# 
   327  0013                     	;# 
   328  0014                     	;# 
   329  0015                     	;# 
   330  0015                     	;# 
   331  0016                     	;# 
   332  0017                     	;# 
   333  0018                     	;# 
   334  0019                     	;# 
   335  001A                     	;# 
   336  001B                     	;# 
   337  001B                     	;# 
   338  001C                     	;# 
   339  001D                     	;# 
   340  001E                     	;# 
   341  001F                     	;# 
   342  0081                     	;# 
   343  0085                     	;# 
   344  0086                     	;# 
   345  0087                     	;# 
   346  0088                     	;# 
   347  0089                     	;# 
   348  008C                     	;# 
   349  008D                     	;# 
   350  008E                     	;# 
   351  008F                     	;# 
   352  0090                     	;# 
   353  0091                     	;# 
   354  0092                     	;# 
   355  0093                     	;# 
   356  0093                     	;# 
   357  0093                     	;# 
   358  0094                     	;# 
   359  0095                     	;# 
   360  0096                     	;# 
   361  0097                     	;# 
   362  0098                     	;# 
   363  0099                     	;# 
   364  009A                     	;# 
   365  009B                     	;# 
   366  009C                     	;# 
   367  009D                     	;# 
   368  009E                     	;# 
   369  009F                     	;# 
   370  0105                     	;# 
   371  0107                     	;# 
   372  0108                     	;# 
   373  0109                     	;# 
   374  010C                     	;# 
   375  010C                     	;# 
   376  010D                     	;# 
   377  010E                     	;# 
   378  010F                     	;# 
   379  0185                     	;# 
   380  0187                     	;# 
   381  0188                     	;# 
   382  0189                     	;# 
   383  018C                     	;# 
   384  018D                     	;# 
   385  0000                     	;# 
   386  0001                     	;# 
   387  0002                     	;# 
   388  0003                     	;# 
   389  0004                     	;# 
   390  0005                     	;# 
   391  0006                     	;# 
   392  0007                     	;# 
   393  0008                     	;# 
   394  0009                     	;# 
   395  000A                     	;# 
   396  000B                     	;# 
   397  000C                     	;# 
   398  000D                     	;# 
   399  000E                     	;# 
   400  000E                     	;# 
   401  000F                     	;# 
   402  0010                     	;# 
   403  0011                     	;# 
   404  0012                     	;# 
   405  0013                     	;# 
   406  0014                     	;# 
   407  0015                     	;# 
   408  0015                     	;# 
   409  0016                     	;# 
   410  0017                     	;# 
   411  0018                     	;# 
   412  0019                     	;# 
   413  001A                     	;# 
   414  001B                     	;# 
   415  001B                     	;# 
   416  001C                     	;# 
   417  001D                     	;# 
   418  001E                     	;# 
   419  001F                     	;# 
   420  0081                     	;# 
   421  0085                     	;# 
   422  0086                     	;# 
   423  0087                     	;# 
   424  0088                     	;# 
   425  0089                     	;# 
   426  008C                     	;# 
   427  008D                     	;# 
   428  008E                     	;# 
   429  008F                     	;# 
   430  0090                     	;# 
   431  0091                     	;# 
   432  0092                     	;# 
   433  0093                     	;# 
   434  0093                     	;# 
   435  0093                     	;# 
   436  0094                     	;# 
   437  0095                     	;# 
   438  0096                     	;# 
   439  0097                     	;# 
   440  0098                     	;# 
   441  0099                     	;# 
   442  009A                     	;# 
   443  009B                     	;# 
   444  009C                     	;# 
   445  009D                     	;# 
   446  009E                     	;# 
   447  009F                     	;# 
   448  0105                     	;# 
   449  0107                     	;# 
   450  0108                     	;# 
   451  0109                     	;# 
   452  010C                     	;# 
   453  010C                     	;# 
   454  010D                     	;# 
   455  010E                     	;# 
   456  010F                     	;# 
   457  0185                     	;# 
   458  0187                     	;# 
   459  0188                     	;# 
   460  0189                     	;# 
   461  018C                     	;# 
   462  018D                     	;# 
   463  0000                     	;# 
   464  0001                     	;# 
   465  0002                     	;# 
   466  0003                     	;# 
   467  0004                     	;# 
   468  0005                     	;# 
   469  0006                     	;# 
   470  0007                     	;# 
   471  0008                     	;# 
   472  0009                     	;# 
   473  000A                     	;# 
   474  000B                     	;# 
   475  000C                     	;# 
   476  000D                     	;# 
   477  000E                     	;# 
   478  000E                     	;# 
   479  000F                     	;# 
   480  0010                     	;# 
   481  0011                     	;# 
   482  0012                     	;# 
   483  0013                     	;# 
   484  0014                     	;# 
   485  0015                     	;# 
   486  0015                     	;# 
   487  0016                     	;# 
   488  0017                     	;# 
   489  0018                     	;# 
   490  0019                     	;# 
   491  001A                     	;# 
   492  001B                     	;# 
   493  001B                     	;# 
   494  001C                     	;# 
   495  001D                     	;# 
   496  001E                     	;# 
   497  001F                     	;# 
   498  0081                     	;# 
   499  0085                     	;# 
   500  0086                     	;# 
   501  0087                     	;# 
   502  0088                     	;# 
   503  0089                     	;# 
   504  008C                     	;# 
   505  008D                     	;# 
   506  008E                     	;# 
   507  008F                     	;# 
   508  0090                     	;# 
   509  0091                     	;# 
   510  0092                     	;# 
   511  0093                     	;# 
   512  0093                     	;# 
   513  0093                     	;# 
   514  0094                     	;# 
   515  0095                     	;# 
   516  0096                     	;# 
   517  0097                     	;# 
   518  0098                     	;# 
   519  0099                     	;# 
   520  009A                     	;# 
   521  009B                     	;# 
   522  009C                     	;# 
   523  009D                     	;# 
   524  009E                     	;# 
   525  009F                     	;# 
   526  0105                     	;# 
   527  0107                     	;# 
   528  0108                     	;# 
   529  0109                     	;# 
   530  010C                     	;# 
   531  010C                     	;# 
   532  010D                     	;# 
   533  010E                     	;# 
   534  010F                     	;# 
   535  0185                     	;# 
   536  0187                     	;# 
   537  0188                     	;# 
   538  0189                     	;# 
   539  018C                     	;# 
   540  018D                     	;# 
   541  0019                     _TXREG	set	25
   542  001A                     _RCREG	set	26
   543  000C                     _PIR1bits	set	12
   544  0018                     _RCSTAbits	set	24
   545  0013                     _SSPBUF	set	19
   546  0014                     _SSPCON	set	20
   547  0008                     _PORTD	set	8
   548  0007                     _PORTC	set	7
   549  0006                     _PORTB	set	6
   550  0005                     _PORTA	set	5
   551  0043                     _RD3	set	67
   552  0042                     _RD2	set	66
   553  0047                     _RD7	set	71
   554  0063                     _SSPIF	set	99
   555  005E                     _PEIE	set	94
   556  005F                     _GIE	set	95
   557  0098                     _TXSTAbits	set	152
   558  0099                     _SPBRG	set	153
   559  008F                     _OSCCONbits	set	143
   560  0091                     _SSPCON2bits	set	145
   561  0087                     _TRISCbits	set	135
   562  0094                     _SSPSTAT	set	148
   563  0093                     _SSPADD	set	147
   564  0091                     _SSPCON2	set	145
   565  0088                     _TRISD	set	136
   566  0087                     _TRISC	set	135
   567  0086                     _TRISB	set	134
   568  0085                     _TRISA	set	133
   569  0463                     _SSPIE	set	1123
   570  043C                     _TRISC4	set	1084
   571  043B                     _TRISC3	set	1083
   572  0189                     _ANSELH	set	393
   573  0188                     _ANSEL	set	392
   574                           
   575                           	psect	strings
   576  0800                     __pstrings:	
   577  0800                     stringtab:	
   578  0800                     __stringtab:	
   579  0800                     stringcode:	
   580                           ;	String table - string pointers are 1 byte each
   581                           
   582  0800                     stringdir:	
   583  0800  3008               	movlw	high stringdir
   584  0801  008A               	movwf	10
   585  0802  0804               	movf	4,w
   586  0803  0A84               	incf	4,f
   587  0804  0782               	addwf	2,f
   588  0805                     __stringbase:	
   589  0805  3400               	retlw	0
   590  0806                     __end_of__stringtab:	
   591  0806                     STR_1:	
   592  0806  3453               	retlw	83	;'S'
   593  0807  3431               	retlw	49	;'1'
   594  0808  3400               	retlw	0
   595  0809                     STR_2:	
   596  0809  3453               	retlw	83	;'S'
   597  080A  3432               	retlw	50	;'2'
   598  080B  3400               	retlw	0
   599  080C                     STR_3:	
   600  080C  3453               	retlw	83	;'S'
   601  080D  3433               	retlw	51	;'3'
   602  080E  3400               	retlw	0
   603  080F                     STR_4:	
   604  080F  3453               	retlw	83	;'S'
   605  0810  3434               	retlw	52	;'4'
   606  0811  3400               	retlw	0
   607                           
   608                           ; #config settings
   609  0000                     
   610                           	psect	cinit
   611  07F3                     start_initialization:	
   612  07F3                     __initialization:	
   613                           
   614                           ; Clear objects allocated to BANK0
   615  07F3  1383               	bcf	3,7	;select IRP bank0
   616  07F4  3020               	movlw	low __pbssBANK0
   617  07F5  0084               	movwf	4
   618  07F6  3045               	movlw	low (__pbssBANK0+37)
   619  07F7  120A  158A  2105  120A  118A  	fcall	clear_ram0
   620  07FC                     end_of_initialization:	
   621                           ;End of C runtime variable initialization code
   622                           
   623  07FC                     __end_of__initialization:	
   624  07FC  0183               	clrf	3
   625  07FD  120A  118A  2B58   	ljmp	_main	;jump to C main() function
   626                           
   627                           	psect	bssBANK0
   628  0020                     __pbssBANK0:	
   629  0020                     _RES_cien:	
   630  0020                     	ds	4
   631  0024                     _POT_cien:	
   632  0024                     	ds	4
   633  0028                     _ADC_RES_V:	
   634  0028                     	ds	4
   635  002C                     _ADC_POT_V:	
   636  002C                     	ds	4
   637  0030                     _DECI_2_RES:	
   638  0030                     	ds	2
   639  0032                     _DECI_1_RES:	
   640  0032                     	ds	2
   641  0034                     _DECI_2_POT:	
   642  0034                     	ds	2
   643  0036                     _DECI_1_POT:	
   644  0036                     	ds	2
   645  0038                     _i:	
   646  0038                     	ds	1
   647  0039                     _CONT_C:	
   648  0039                     	ds	1
   649  003A                     _CONT_D:	
   650  003A                     	ds	1
   651  003B                     _CONT_U:	
   652  003B                     	ds	1
   653  003C                     _RES_D2:	
   654  003C                     	ds	1
   655  003D                     _RES_D1:	
   656  003D                     	ds	1
   657  003E                     _POT_D2:	
   658  003E                     	ds	1
   659  003F                     _POT_D1:	
   660  003F                     	ds	1
   661  0040                     _RES_EN:	
   662  0040                     	ds	1
   663  0041                     _POT_EN:	
   664  0041                     	ds	1
   665  0042                     _Val_RES:	
   666  0042                     	ds	1
   667  0043                     _Val_CONT:	
   668  0043                     	ds	1
   669  0044                     _Val_POT:	
   670  0044                     	ds	1
   671                           
   672                           	psect	clrtext
   673  0905                     clear_ram0:	
   674                           ;	Called with FSR containing the base address, and
   675                           ;	W with the last address+1
   676                           
   677  0905  0064               	clrwdt	;clear the watchdog before getting into this loop
   678  0906                     clrloop0:	
   679  0906  0180               	clrf	0	;clear RAM location pointed to by FSR
   680  0907  0A84               	incf	4,f	;increment pointer
   681  0908  0604               	xorwf	4,w	;XOR with final address
   682  0909  1903               	btfsc	3,2	;have we reached the end yet?
   683  090A  3400               	retlw	0	;all done for this memory range, return
   684  090B  0604               	xorwf	4,w	;XOR again to restore value
   685  090C  2906               	goto	clrloop0	;do the next byte
   686                           
   687                           	psect	cstackCOMMON
   688  0070                     __pcstackCOMMON:	
   689  0070                     ?_initOsc:	
   690  0070                     ??_initOsc:	
   691                           ; 1 bytes @ 0x0
   692                           
   693  0070                     ?_init:	
   694                           ; 1 bytes @ 0x0
   695                           
   696  0070                     ?_lcd_init:	
   697                           ; 1 bytes @ 0x0
   698                           
   699  0070                     ?_lcd_msg:	
   700                           ; 1 bytes @ 0x0
   701                           
   702  0070                     ?_lcd_dwr:	
   703                           ; 1 bytes @ 0x0
   704                           
   705  0070                     ?_I2C_Master_Start:	
   706                           ; 1 bytes @ 0x0
   707                           
   708  0070                     ??_I2C_Master_Start:	
   709                           ; 1 bytes @ 0x0
   710                           
   711  0070                     ?_I2C_Master_Write:	
   712                           ; 1 bytes @ 0x0
   713                           
   714  0070                     ?_I2C_Master_Stop:	
   715                           ; 1 bytes @ 0x0
   716                           
   717  0070                     ??_I2C_Master_Stop:	
   718                           ; 1 bytes @ 0x0
   719                           
   720  0070                     ?_Val_STR:	
   721                           ; 1 bytes @ 0x0
   722                           
   723  0070                     ??_Val_STR:	
   724                           ; 1 bytes @ 0x0
   725                           
   726  0070                     ?_lcd_cmd:	
   727                           ; 1 bytes @ 0x0
   728                           
   729  0070                     ?_lcd_ready:	
   730                           ; 1 bytes @ 0x0
   731                           
   732  0070                     ??_lcd_ready:	
   733                           ; 1 bytes @ 0x0
   734                           
   735  0070                     ?_lcd_lat:	
   736                           ; 1 bytes @ 0x0
   737                           
   738  0070                     ??_lcd_lat:	
   739                           ; 1 bytes @ 0x0
   740                           
   741  0070                     ?_main:	
   742                           ; 1 bytes @ 0x0
   743                           
   744  0070                     ?_I2C_Master_Wait:	
   745                           ; 1 bytes @ 0x0
   746                           
   747  0070                     ??_I2C_Master_Wait:	
   748                           ; 1 bytes @ 0x0
   749                           
   750  0070                     ?_I2C_Master_Read:	
   751                           ; 1 bytes @ 0x0
   752                           
   753  0070                     ?__Umul8_16:	
   754                           ; 2 bytes @ 0x0
   755                           
   756  0070                     ?___awdiv:	
   757                           ; 2 bytes @ 0x0
   758                           
   759  0070                     ?___awmod:	
   760                           ; 2 bytes @ 0x0
   761                           
   762  0070                     ?___lwdiv:	
   763                           ; 2 bytes @ 0x0
   764                           
   765  0070                     ?___lwmod:	
   766                           ; 2 bytes @ 0x0
   767                           
   768  0070                     ?___lldiv:	
   769                           ; 2 bytes @ 0x0
   770                           
   771  0070                     ?___fltol:	
   772                           ; 4 bytes @ 0x0
   773                           
   774  0070                     ?___xxtofl:	
   775                           ; 4 bytes @ 0x0
   776                           
   777  0070                     __Umul8_16@multiplicand:	
   778                           ; 4 bytes @ 0x0
   779                           
   780  0070                     I2C_Master_Write@d:	
   781                           ; 1 bytes @ 0x0
   782                           
   783  0070                     I2C_Master_Read@a:	
   784                           ; 2 bytes @ 0x0
   785                           
   786  0070                     ___awdiv@divisor:	
   787                           ; 2 bytes @ 0x0
   788                           
   789  0070                     ___awmod@divisor:	
   790                           ; 2 bytes @ 0x0
   791                           
   792  0070                     ___lwdiv@divisor:	
   793                           ; 2 bytes @ 0x0
   794                           
   795  0070                     ___lwmod@divisor:	
   796                           ; 2 bytes @ 0x0
   797                           
   798  0070                     ___lldiv@divisor:	
   799                           ; 2 bytes @ 0x0
   800                           
   801  0070                     ___fltol@f1:	
   802                           ; 4 bytes @ 0x0
   803                           
   804  0070                     ___xxtofl@val:	
   805                           ; 4 bytes @ 0x0
   806                           
   807                           
   808                           ; 4 bytes @ 0x0
   809  0070                     	ds	2
   810  0072                     ??_lcd_dwr:	
   811  0072                     ??_I2C_Master_Write:	
   812                           ; 1 bytes @ 0x2
   813                           
   814  0072                     ??_I2C_Master_Read:	
   815                           ; 1 bytes @ 0x2
   816                           
   817  0072                     ??_lcd_cmd:	
   818                           ; 1 bytes @ 0x2
   819                           
   820  0072                     ??__Umul8_16:	
   821                           ; 1 bytes @ 0x2
   822                           
   823  0072                     Val_STR@num:	
   824                           ; 1 bytes @ 0x2
   825                           
   826  0072                     lcd_cmd@x:	
   827                           ; 1 bytes @ 0x2
   828                           
   829  0072                     lcd_dwr@x:	
   830                           ; 1 bytes @ 0x2
   831                           
   832  0072                     initOsc@frec:	
   833                           ; 1 bytes @ 0x2
   834                           
   835  0072                     ___awdiv@dividend:	
   836                           ; 1 bytes @ 0x2
   837                           
   838  0072                     ___awmod@dividend:	
   839                           ; 2 bytes @ 0x2
   840                           
   841  0072                     ___lwdiv@dividend:	
   842                           ; 2 bytes @ 0x2
   843                           
   844  0072                     ___lwmod@dividend:	
   845                           ; 2 bytes @ 0x2
   846                           
   847                           
   848                           ; 2 bytes @ 0x2
   849  0072                     	ds	1
   850  0073                     ??_lcd_init:	
   851  0073                     ?_LCD_POINT:	
   852                           ; 1 bytes @ 0x3
   853                           
   854  0073                     ??_lcd_msg:	
   855                           ; 1 bytes @ 0x3
   856                           
   857  0073                     LCD_POINT@col:	
   858                           ; 1 bytes @ 0x3
   859                           
   860                           
   861                           ; 1 bytes @ 0x3
   862  0073                     	ds	1
   863  0074                     ??_LCD_POINT:	
   864  0074                     ??___awdiv:	
   865                           ; 1 bytes @ 0x4
   866                           
   867  0074                     ??___awmod:	
   868                           ; 1 bytes @ 0x4
   869                           
   870  0074                     ??___fltol:	
   871                           ; 1 bytes @ 0x4
   872                           
   873  0074                     ??___lwdiv:	
   874                           ; 1 bytes @ 0x4
   875                           
   876  0074                     ??___lwmod:	
   877                           ; 1 bytes @ 0x4
   878                           
   879  0074                     ??___xxtofl:	
   880                           ; 1 bytes @ 0x4
   881                           
   882  0074                     lcd_msg@c:	
   883                           ; 1 bytes @ 0x4
   884                           
   885  0074                     I2C_Master_Read@temp:	
   886                           ; 1 bytes @ 0x4
   887                           
   888  0074                     __Umul8_16@product:	
   889                           ; 2 bytes @ 0x4
   890                           
   891  0074                     ___lldiv@dividend:	
   892                           ; 2 bytes @ 0x4
   893                           
   894                           
   895                           ; 4 bytes @ 0x4
   896  0074                     	ds	1
   897  0075                     ___awdiv@counter:	
   898  0075                     ___awmod@counter:	
   899                           ; 1 bytes @ 0x5
   900                           
   901  0075                     ___lwmod@counter:	
   902                           ; 1 bytes @ 0x5
   903                           
   904  0075                     ___lwdiv@quotient:	
   905                           ; 1 bytes @ 0x5
   906                           
   907                           
   908                           ; 2 bytes @ 0x5
   909  0075                     	ds	1
   910  0076                     ___awdiv@sign:	
   911  0076                     ___awmod@sign:	
   912                           ; 1 bytes @ 0x6
   913                           
   914  0076                     _LCD_POINT$242:	
   915                           ; 1 bytes @ 0x6
   916                           
   917  0076                     __Umul8_16@word_mpld:	
   918                           ; 2 bytes @ 0x6
   919                           
   920                           
   921                           ; 2 bytes @ 0x6
   922  0076                     	ds	1
   923  0077                     ___lwdiv@counter:	
   924  0077                     ___awdiv@quotient:	
   925                           ; 1 bytes @ 0x7
   926                           
   927                           
   928                           ; 2 bytes @ 0x7
   929  0077                     	ds	1
   930  0078                     ??___lldiv:	
   931  0078                     LCD_POINT@lin:	
   932                           ; 1 bytes @ 0x8
   933                           
   934  0078                     ___xxtofl@sign:	
   935                           ; 1 bytes @ 0x8
   936                           
   937  0078                     __Umul8_16@multiplier:	
   938                           ; 1 bytes @ 0x8
   939                           
   940                           
   941                           ; 1 bytes @ 0x8
   942  0078                     	ds	1
   943  0079                     ??___flmul:	
   944  0079                     ___fltol@sign1:	
   945                           ; 1 bytes @ 0x9
   946                           
   947  0079                     ___xxtofl@exp:	
   948                           ; 1 bytes @ 0x9
   949                           
   950  0079                     ___lldiv@quotient:	
   951                           ; 1 bytes @ 0x9
   952                           
   953                           
   954                           ; 4 bytes @ 0x9
   955  0079                     	ds	1
   956  007A                     ___fltol@exp1:	
   957  007A                     ___xxtofl@arg:	
   958                           ; 1 bytes @ 0xA
   959                           
   960                           
   961                           ; 4 bytes @ 0xA
   962  007A                     	ds	3
   963  007D                     ___lldiv@counter:	
   964                           
   965                           ; 1 bytes @ 0xD
   966  007D                     	ds	1
   967  007E                     ??_init:	
   968                           
   969                           	psect	cstackBANK0
   970  0045                     __pcstackBANK0:	
   971                           ; 1 bytes @ 0xE
   972                           
   973  0045                     ?_I2C_Master_Init:	
   974  0045                     ?___fldiv:	
   975                           ; 1 bytes @ 0x0
   976                           
   977  0045                     ?___flmul:	
   978                           ; 4 bytes @ 0x0
   979                           
   980  0045                     I2C_Master_Init@c:	
   981                           ; 4 bytes @ 0x0
   982                           
   983  0045                     ___fldiv@a:	
   984                           ; 4 bytes @ 0x0
   985                           
   986  0045                     ___flmul@b:	
   987                           ; 4 bytes @ 0x0
   988                           
   989                           
   990                           ; 4 bytes @ 0x0
   991  0045                     	ds	4
   992  0049                     ??_I2C_Master_Init:	
   993  0049                     ___fldiv@b:	
   994                           ; 1 bytes @ 0x4
   995                           
   996  0049                     ___flmul@a:	
   997                           ; 4 bytes @ 0x4
   998                           
   999                           
  1000                           ; 4 bytes @ 0x4
  1001  0049                     	ds	4
  1002  004D                     ??___fldiv:	
  1003  004D                     ___flmul@sign:	
  1004                           ; 1 bytes @ 0x8
  1005                           
  1006                           
  1007                           ; 1 bytes @ 0x8
  1008  004D                     	ds	1
  1009  004E                     ___flmul@grs:	
  1010                           
  1011                           ; 4 bytes @ 0x9
  1012  004E                     	ds	4
  1013  0052                     ___flmul@aexp:	
  1014  0052                     ___fldiv@rem:	
  1015                           ; 1 bytes @ 0xD
  1016                           
  1017                           
  1018                           ; 4 bytes @ 0xD
  1019  0052                     	ds	1
  1020  0053                     ___flmul@bexp:	
  1021                           
  1022                           ; 1 bytes @ 0xE
  1023  0053                     	ds	1
  1024  0054                     ___flmul@prod:	
  1025                           
  1026                           ; 4 bytes @ 0xF
  1027  0054                     	ds	2
  1028  0056                     ___fldiv@sign:	
  1029                           
  1030                           ; 1 bytes @ 0x11
  1031  0056                     	ds	1
  1032  0057                     ___fldiv@new_exp:	
  1033                           
  1034                           ; 2 bytes @ 0x12
  1035  0057                     	ds	1
  1036  0058                     ___flmul@temp:	
  1037                           
  1038                           ; 2 bytes @ 0x13
  1039  0058                     	ds	1
  1040  0059                     ___fldiv@grs:	
  1041                           
  1042                           ; 4 bytes @ 0x14
  1043  0059                     	ds	4
  1044  005D                     ___fldiv@bexp:	
  1045                           
  1046                           ; 1 bytes @ 0x18
  1047  005D                     	ds	1
  1048  005E                     ___fldiv@aexp:	
  1049                           
  1050                           ; 1 bytes @ 0x19
  1051  005E                     	ds	1
  1052  005F                     ??_main:	
  1053                           
  1054                           ; 1 bytes @ 0x1A
  1055  005F                     	ds	4
  1056                           
  1057                           	psect	maintext
  1058  0358                     __pmaintext:	
  1059 ;;
  1060 ;;Main: autosize = 0, tempsize = 4, incstack = 0, save=0
  1061 ;;
  1062 ;; *************** function _main *****************
  1063 ;; Defined at:
  1064 ;;		line 74 in file "MASTER_Proyecto.c"
  1065 ;; Parameters:    Size  Location     Type
  1066 ;;		None
  1067 ;; Auto vars:     Size  Location     Type
  1068 ;;		None
  1069 ;; Return value:  Size  Location     Type
  1070 ;;                  1    wreg      void 
  1071 ;; Registers used:
  1072 ;;		wreg, fsr0l, fsr0h, status,2, status,0, btemp+1, pclath, cstack
  1073 ;; Tracked objects:
  1074 ;;		On entry : B00/0
  1075 ;;		On exit  : 0/0
  1076 ;;		Unchanged: 0/0
  1077 ;; Data sizes:     COMMON   BANK0   BANK1   BANK3   BANK2
  1078 ;;      Params:         0       0       0       0       0
  1079 ;;      Locals:         0       0       0       0       0
  1080 ;;      Temps:          0       4       0       0       0
  1081 ;;      Totals:         0       4       0       0       0
  1082 ;;Total ram usage:        4 bytes
  1083 ;; Hardware stack levels required when called:    3
  1084 ;; This function calls:
  1085 ;;		_I2C_Master_Read
  1086 ;;		_I2C_Master_Start
  1087 ;;		_I2C_Master_Stop
  1088 ;;		_I2C_Master_Write
  1089 ;;		_LCD_POINT
  1090 ;;		_Val_STR
  1091 ;;		___awdiv
  1092 ;;		___awmod
  1093 ;;		___fldiv
  1094 ;;		___flmul
  1095 ;;		___fltol
  1096 ;;		___lwdiv
  1097 ;;		___lwmod
  1098 ;;		___xxtofl
  1099 ;;		_init
  1100 ;;		_initOsc
  1101 ;;		_lcd_cmd
  1102 ;;		_lcd_dwr
  1103 ;;		_lcd_init
  1104 ;;		_lcd_msg
  1105 ;; This function is called by:
  1106 ;;		Startup code after reset
  1107 ;; This function uses a non-reentrant model
  1108 ;;
  1109                           
  1110                           
  1111                           ;psect for function _main
  1112  0358                     _main:	
  1113  0358                     l2528:	
  1114                           ;incstack = 0
  1115                           ; Regs used in _main: [wreg-fsr0h+status,2+status,0+btemp+1+pclath+cstack]
  1116                           
  1117                           
  1118                           ;MASTER_Proyecto.c: 75:     initOsc(7);
  1119  0358  3007               	movlw	7
  1120  0359  120A  158A  2376  120A  118A  	fcall	_initOsc
  1121  035E                     l2530:	
  1122                           
  1123                           ;MASTER_Proyecto.c: 76:     init();
  1124  035E  120A  158A  2169  120A  118A  	fcall	_init
  1125  0363                     l2532:	
  1126                           
  1127                           ;MASTER_Proyecto.c: 77:     lcd_init();
  1128  0363  120A  158A  2183  120A  118A  	fcall	_lcd_init
  1129  0368                     l2534:	
  1130                           
  1131                           ;MASTER_Proyecto.c: 79:     PORTA = 0;
  1132  0368  1283               	bcf	3,5	;RP0=0, select bank0
  1133  0369  1303               	bcf	3,6	;RP1=0, select bank0
  1134  036A  0185               	clrf	5	;volatile
  1135  036B                     l2536:	
  1136                           
  1137                           ;MASTER_Proyecto.c: 80:     PORTB = 0;
  1138  036B  0186               	clrf	6	;volatile
  1139  036C                     l2538:	
  1140                           
  1141                           ;MASTER_Proyecto.c: 81:     PORTC = 0;
  1142  036C  0187               	clrf	7	;volatile
  1143  036D                     l2540:	
  1144                           
  1145                           ;MASTER_Proyecto.c: 82:     PORTD = 0;
  1146  036D  0188               	clrf	8	;volatile
  1147  036E                     l2542:	
  1148                           
  1149                           ;MASTER_Proyecto.c: 119:         LCD_POINT(1,2);
  1150  036E  3002               	movlw	2
  1151  036F  1283               	bcf	3,5	;RP0=0, select bank0
  1152  0370  1303               	bcf	3,6	;RP1=0, select bank0
  1153  0371  00DF               	movwf	??_main
  1154  0372  085F               	movf	??_main,w
  1155  0373  00F3               	movwf	LCD_POINT@col
  1156  0374  3001               	movlw	1
  1157  0375  120A  158A  223E  120A  118A  	fcall	_LCD_POINT
  1158  037A                     l2544:	
  1159                           
  1160                           ;MASTER_Proyecto.c: 120:         lcd_msg("S1");
  1161  037A  3001               	movlw	(low ((STR_1-__stringbase)| (0+32768)))& (0+255)
  1162  037B  120A  158A  21A2  120A  118A  	fcall	_lcd_msg
  1163                           
  1164                           ;MASTER_Proyecto.c: 121:         LCD_POINT(1,7);
  1165  0380  3007               	movlw	7
  1166  0381  1283               	bcf	3,5	;RP0=0, select bank0
  1167  0382  1303               	bcf	3,6	;RP1=0, select bank0
  1168  0383  00DF               	movwf	??_main
  1169  0384  085F               	movf	??_main,w
  1170  0385  00F3               	movwf	LCD_POINT@col
  1171  0386  3001               	movlw	1
  1172  0387  120A  158A  223E  120A  118A  	fcall	_LCD_POINT
  1173  038C                     l2546:	
  1174                           
  1175                           ;MASTER_Proyecto.c: 122:         lcd_msg("S2");
  1176  038C  3004               	movlw	(low ((STR_2-__stringbase)| (0+32768)))& (0+255)
  1177  038D  120A  158A  21A2  120A  118A  	fcall	_lcd_msg
  1178  0392                     l2548:	
  1179                           
  1180                           ;MASTER_Proyecto.c: 123:         LCD_POINT(1,12);
  1181  0392  300C               	movlw	12
  1182  0393  1283               	bcf	3,5	;RP0=0, select bank0
  1183  0394  1303               	bcf	3,6	;RP1=0, select bank0
  1184  0395  00DF               	movwf	??_main
  1185  0396  085F               	movf	??_main,w
  1186  0397  00F3               	movwf	LCD_POINT@col
  1187  0398  3001               	movlw	1
  1188  0399  120A  158A  223E  120A  118A  	fcall	_LCD_POINT
  1189                           
  1190                           ;MASTER_Proyecto.c: 124:         lcd_msg("S3");
  1191  039E  3007               	movlw	(low ((STR_3-__stringbase)| (0+32768)))& (0+255)
  1192  039F  120A  158A  21A2  120A  118A  	fcall	_lcd_msg
  1193  03A4                     l2550:	
  1194                           
  1195                           ;MASTER_Proyecto.c: 126:         LCD_POINT(2,1);
  1196  03A4  01F3               	clrf	LCD_POINT@col
  1197  03A5  0AF3               	incf	LCD_POINT@col,f
  1198  03A6  3002               	movlw	2
  1199  03A7  120A  158A  223E  120A  118A  	fcall	_LCD_POINT
  1200  03AC                     l2552:	
  1201                           
  1202                           ;MASTER_Proyecto.c: 127:         lcd_dwr('.');
  1203  03AC  302E               	movlw	46
  1204  03AD  120A  158A  2157  120A  118A  	fcall	_lcd_dwr
  1205  03B2                     l2554:	
  1206                           
  1207                           ;MASTER_Proyecto.c: 128:         LCD_POINT(2,4);
  1208  03B2  3004               	movlw	4
  1209  03B3  1283               	bcf	3,5	;RP0=0, select bank0
  1210  03B4  1303               	bcf	3,6	;RP1=0, select bank0
  1211  03B5  00DF               	movwf	??_main
  1212  03B6  085F               	movf	??_main,w
  1213  03B7  00F3               	movwf	LCD_POINT@col
  1214  03B8  3002               	movlw	2
  1215  03B9  120A  158A  223E  120A  118A  	fcall	_LCD_POINT
  1216  03BE                     l2556:	
  1217                           
  1218                           ;MASTER_Proyecto.c: 129:         lcd_dwr('V');
  1219  03BE  3056               	movlw	86
  1220  03BF  120A  158A  2157  120A  118A  	fcall	_lcd_dwr
  1221  03C4                     l2558:	
  1222                           
  1223                           ;MASTER_Proyecto.c: 131:         LCD_POINT(2,11);
  1224  03C4  300B               	movlw	11
  1225  03C5  1283               	bcf	3,5	;RP0=0, select bank0
  1226  03C6  1303               	bcf	3,6	;RP1=0, select bank0
  1227  03C7  00DF               	movwf	??_main
  1228  03C8  085F               	movf	??_main,w
  1229  03C9  00F3               	movwf	LCD_POINT@col
  1230  03CA  3002               	movlw	2
  1231  03CB  120A  158A  223E  120A  118A  	fcall	_LCD_POINT
  1232  03D0                     l2560:	
  1233                           
  1234                           ;MASTER_Proyecto.c: 132:         lcd_dwr('.');
  1235  03D0  302E               	movlw	46
  1236  03D1  120A  158A  2157  120A  118A  	fcall	_lcd_dwr
  1237  03D6                     l2562:	
  1238                           
  1239                           ;MASTER_Proyecto.c: 133:         LCD_POINT(2,14);
  1240  03D6  300E               	movlw	14
  1241  03D7  1283               	bcf	3,5	;RP0=0, select bank0
  1242  03D8  1303               	bcf	3,6	;RP1=0, select bank0
  1243  03D9  00DF               	movwf	??_main
  1244  03DA  085F               	movf	??_main,w
  1245  03DB  00F3               	movwf	LCD_POINT@col
  1246  03DC  3002               	movlw	2
  1247  03DD  120A  158A  223E  120A  118A  	fcall	_LCD_POINT
  1248  03E2                     l2564:	
  1249                           
  1250                           ;MASTER_Proyecto.c: 134:         lcd_dwr('V');
  1251  03E2  3056               	movlw	86
  1252  03E3  120A  158A  2157  120A  118A  	fcall	_lcd_dwr
  1253  03E8                     l2566:	
  1254                           
  1255                           ;MASTER_Proyecto.c: 139:         I2C_Master_Start();
  1256  03E8  120A  158A  210D  120A  118A  	fcall	_I2C_Master_Start
  1257  03ED                     l2568:	
  1258                           
  1259                           ;MASTER_Proyecto.c: 140:         I2C_Master_Write(0x31);
  1260  03ED  3031               	movlw	49
  1261  03EE  00F0               	movwf	I2C_Master_Write@d
  1262  03EF  3000               	movlw	0
  1263  03F0  00F1               	movwf	I2C_Master_Write@d+1
  1264  03F1  120A  158A  211F  120A  118A  	fcall	_I2C_Master_Write
  1265  03F6                     l2570:	
  1266                           
  1267                           ;MASTER_Proyecto.c: 141:         Val_POT = I2C_Master_Read(0);
  1268  03F6  3000               	movlw	0
  1269  03F7  00F0               	movwf	I2C_Master_Read@a
  1270  03F8  00F1               	movwf	I2C_Master_Read@a+1
  1271  03F9  120A  158A  2211  120A  118A  	fcall	_I2C_Master_Read
  1272  03FE  0870               	movf	?_I2C_Master_Read,w
  1273  03FF  1283               	bcf	3,5	;RP0=0, select bank0
  1274  0400  1303               	bcf	3,6	;RP1=0, select bank0
  1275  0401  00DF               	movwf	??_main
  1276  0402  085F               	movf	??_main,w
  1277  0403  00C4               	movwf	_Val_POT
  1278  0404                     l2572:	
  1279                           
  1280                           ;MASTER_Proyecto.c: 142:         I2C_Master_Stop();
  1281  0404  120A  158A  2116  120A  118A  	fcall	_I2C_Master_Stop
  1282  0409                     l2574:	
  1283                           
  1284                           ;MASTER_Proyecto.c: 143:         _delay((unsigned long)((200)*(8000000/4000.0)));
  1285  0409  3003               	movlw	3
  1286  040A  1283               	bcf	3,5	;RP0=0, select bank0
  1287  040B  1303               	bcf	3,6	;RP1=0, select bank0
  1288  040C  00E1               	movwf	??_main+2
  1289  040D  3008               	movlw	8
  1290  040E  00E0               	movwf	??_main+1
  1291  040F  3076               	movlw	118
  1292  0410  00DF               	movwf	??_main
  1293  0411                     u2907:	
  1294  0411  0BDF               	decfsz	??_main,f
  1295  0412  2C11               	goto	u2907
  1296  0413  0BE0               	decfsz	??_main+1,f
  1297  0414  2C11               	goto	u2907
  1298  0415  0BE1               	decfsz	??_main+2,f
  1299  0416  2C11               	goto	u2907
  1300  0417  0000               	nop
  1301  0418                     l2576:	
  1302                           
  1303                           ;MASTER_Proyecto.c: 147:         I2C_Master_Start();
  1304  0418  120A  158A  210D  120A  118A  	fcall	_I2C_Master_Start
  1305  041D                     l2578:	
  1306                           
  1307                           ;MASTER_Proyecto.c: 148:         I2C_Master_Write(0x61);
  1308  041D  3061               	movlw	97
  1309  041E  00F0               	movwf	I2C_Master_Write@d
  1310  041F  3000               	movlw	0
  1311  0420  00F1               	movwf	I2C_Master_Write@d+1
  1312  0421  120A  158A  211F  120A  118A  	fcall	_I2C_Master_Write
  1313  0426                     l2580:	
  1314                           
  1315                           ;MASTER_Proyecto.c: 149:         Val_CONT = I2C_Master_Read(0);
  1316  0426  3000               	movlw	0
  1317  0427  00F0               	movwf	I2C_Master_Read@a
  1318  0428  00F1               	movwf	I2C_Master_Read@a+1
  1319  0429  120A  158A  2211  120A  118A  	fcall	_I2C_Master_Read
  1320  042E  0870               	movf	?_I2C_Master_Read,w
  1321  042F  1283               	bcf	3,5	;RP0=0, select bank0
  1322  0430  1303               	bcf	3,6	;RP1=0, select bank0
  1323  0431  00DF               	movwf	??_main
  1324  0432  085F               	movf	??_main,w
  1325  0433  00C3               	movwf	_Val_CONT
  1326  0434                     l2582:	
  1327                           
  1328                           ;MASTER_Proyecto.c: 150:         I2C_Master_Stop();
  1329  0434  120A  158A  2116  120A  118A  	fcall	_I2C_Master_Stop
  1330  0439                     l2584:	
  1331                           
  1332                           ;MASTER_Proyecto.c: 151:         _delay((unsigned long)((200)*(8000000/4000.0)));
  1333  0439  3003               	movlw	3
  1334  043A  1283               	bcf	3,5	;RP0=0, select bank0
  1335  043B  1303               	bcf	3,6	;RP1=0, select bank0
  1336  043C  00E1               	movwf	??_main+2
  1337  043D  3008               	movlw	8
  1338  043E  00E0               	movwf	??_main+1
  1339  043F  3076               	movlw	118
  1340  0440  00DF               	movwf	??_main
  1341  0441                     u2917:	
  1342  0441  0BDF               	decfsz	??_main,f
  1343  0442  2C41               	goto	u2917
  1344  0443  0BE0               	decfsz	??_main+1,f
  1345  0444  2C41               	goto	u2917
  1346  0445  0BE1               	decfsz	??_main+2,f
  1347  0446  2C41               	goto	u2917
  1348  0447  0000               	nop
  1349  0448                     l2586:	
  1350                           
  1351                           ;MASTER_Proyecto.c: 155:         I2C_Master_Start();
  1352  0448  120A  158A  210D  120A  118A  	fcall	_I2C_Master_Start
  1353  044D                     l2588:	
  1354                           
  1355                           ;MASTER_Proyecto.c: 156:         I2C_Master_Write(0x91);
  1356  044D  3091               	movlw	145
  1357  044E  00F0               	movwf	I2C_Master_Write@d
  1358  044F  3000               	movlw	0
  1359  0450  00F1               	movwf	I2C_Master_Write@d+1
  1360  0451  120A  158A  211F  120A  118A  	fcall	_I2C_Master_Write
  1361  0456                     l2590:	
  1362                           
  1363                           ;MASTER_Proyecto.c: 157:         Val_RES = I2C_Master_Read(0);
  1364  0456  3000               	movlw	0
  1365  0457  00F0               	movwf	I2C_Master_Read@a
  1366  0458  00F1               	movwf	I2C_Master_Read@a+1
  1367  0459  120A  158A  2211  120A  118A  	fcall	_I2C_Master_Read
  1368  045E  0870               	movf	?_I2C_Master_Read,w
  1369  045F  1283               	bcf	3,5	;RP0=0, select bank0
  1370  0460  1303               	bcf	3,6	;RP1=0, select bank0
  1371  0461  00DF               	movwf	??_main
  1372  0462  085F               	movf	??_main,w
  1373  0463  00C2               	movwf	_Val_RES
  1374  0464                     l2592:	
  1375                           
  1376                           ;MASTER_Proyecto.c: 158:         I2C_Master_Stop();
  1377  0464  120A  158A  2116  120A  118A  	fcall	_I2C_Master_Stop
  1378  0469                     l2594:	
  1379                           
  1380                           ;MASTER_Proyecto.c: 159:         _delay((unsigned long)((200)*(8000000/4000.0)));
  1381  0469  3003               	movlw	3
  1382  046A  1283               	bcf	3,5	;RP0=0, select bank0
  1383  046B  1303               	bcf	3,6	;RP1=0, select bank0
  1384  046C  00E1               	movwf	??_main+2
  1385  046D  3008               	movlw	8
  1386  046E  00E0               	movwf	??_main+1
  1387  046F  3076               	movlw	118
  1388  0470  00DF               	movwf	??_main
  1389  0471                     u2927:	
  1390  0471  0BDF               	decfsz	??_main,f
  1391  0472  2C71               	goto	u2927
  1392  0473  0BE0               	decfsz	??_main+1,f
  1393  0474  2C71               	goto	u2927
  1394  0475  0BE1               	decfsz	??_main+2,f
  1395  0476  2C71               	goto	u2927
  1396  0477  0000               	nop
  1397  0478                     l2596:	
  1398                           
  1399                           ;MASTER_Proyecto.c: 163:         ADC_POT_V = (float)((Val_POT)/((float)51));
  1400  0478  3042               	movlw	66
  1401  0479  1283               	bcf	3,5	;RP0=0, select bank0
  1402  047A  1303               	bcf	3,6	;RP1=0, select bank0
  1403  047B  00C8               	movwf	___fldiv@a+3
  1404  047C  304C               	movlw	76
  1405  047D  00C7               	movwf	___fldiv@a+2
  1406  047E  3000               	movlw	0
  1407  047F  00C6               	movwf	___fldiv@a+1
  1408  0480  3000               	movlw	0
  1409  0481  00C5               	movwf	___fldiv@a
  1410  0482  0844               	movf	_Val_POT,w
  1411  0483  00DF               	movwf	??_main
  1412  0484  01E0               	clrf	??_main+1
  1413  0485  01E1               	clrf	??_main+2
  1414  0486  01E2               	clrf	??_main+3
  1415  0487  0862               	movf	??_main+3,w
  1416  0488  00F3               	movwf	___xxtofl@val+3
  1417  0489  0861               	movf	??_main+2,w
  1418  048A  00F2               	movwf	___xxtofl@val+2
  1419  048B  0860               	movf	??_main+1,w
  1420  048C  00F1               	movwf	___xxtofl@val+1
  1421  048D  085F               	movf	??_main,w
  1422  048E  00F0               	movwf	___xxtofl@val
  1423  048F  3001               	movlw	1
  1424  0490  120A  118A  20C1  120A  118A  	fcall	___xxtofl
  1425  0495  0873               	movf	?___xxtofl+3,w
  1426  0496  1283               	bcf	3,5	;RP0=0, select bank0
  1427  0497  1303               	bcf	3,6	;RP1=0, select bank0
  1428  0498  00CC               	movwf	___fldiv@b+3
  1429  0499  0872               	movf	?___xxtofl+2,w
  1430  049A  00CB               	movwf	___fldiv@b+2
  1431  049B  0871               	movf	?___xxtofl+1,w
  1432  049C  00CA               	movwf	___fldiv@b+1
  1433  049D  0870               	movf	?___xxtofl,w
  1434  049E  00C9               	movwf	___fldiv@b
  1435  049F  120A  118A  217B  120A  118A  	fcall	___fldiv
  1436  04A4  1283               	bcf	3,5	;RP0=0, select bank0
  1437  04A5  1303               	bcf	3,6	;RP1=0, select bank0
  1438  04A6  0848               	movf	?___fldiv+3,w
  1439  04A7  00AF               	movwf	_ADC_POT_V+3
  1440  04A8  0847               	movf	?___fldiv+2,w
  1441  04A9  00AE               	movwf	_ADC_POT_V+2
  1442  04AA  0846               	movf	?___fldiv+1,w
  1443  04AB  00AD               	movwf	_ADC_POT_V+1
  1444  04AC  0845               	movf	?___fldiv,w
  1445  04AD  00AC               	movwf	_ADC_POT_V
  1446  04AE                     l2598:	
  1447                           
  1448                           ;MASTER_Proyecto.c: 164:         ADC_RES_V = (float)((Val_RES)/((float)51));
  1449  04AE  3042               	movlw	66
  1450  04AF  00C8               	movwf	___fldiv@a+3
  1451  04B0  304C               	movlw	76
  1452  04B1  00C7               	movwf	___fldiv@a+2
  1453  04B2  3000               	movlw	0
  1454  04B3  00C6               	movwf	___fldiv@a+1
  1455  04B4  3000               	movlw	0
  1456  04B5  00C5               	movwf	___fldiv@a
  1457  04B6  0842               	movf	_Val_RES,w
  1458  04B7  00DF               	movwf	??_main
  1459  04B8  01E0               	clrf	??_main+1
  1460  04B9  01E1               	clrf	??_main+2
  1461  04BA  01E2               	clrf	??_main+3
  1462  04BB  0862               	movf	??_main+3,w
  1463  04BC  00F3               	movwf	___xxtofl@val+3
  1464  04BD  0861               	movf	??_main+2,w
  1465  04BE  00F2               	movwf	___xxtofl@val+2
  1466  04BF  0860               	movf	??_main+1,w
  1467  04C0  00F1               	movwf	___xxtofl@val+1
  1468  04C1  085F               	movf	??_main,w
  1469  04C2  00F0               	movwf	___xxtofl@val
  1470  04C3  3001               	movlw	1
  1471  04C4  120A  118A  20C1  120A  118A  	fcall	___xxtofl
  1472  04C9  0873               	movf	?___xxtofl+3,w
  1473  04CA  1283               	bcf	3,5	;RP0=0, select bank0
  1474  04CB  1303               	bcf	3,6	;RP1=0, select bank0
  1475  04CC  00CC               	movwf	___fldiv@b+3
  1476  04CD  0872               	movf	?___xxtofl+2,w
  1477  04CE  00CB               	movwf	___fldiv@b+2
  1478  04CF  0871               	movf	?___xxtofl+1,w
  1479  04D0  00CA               	movwf	___fldiv@b+1
  1480  04D1  0870               	movf	?___xxtofl,w
  1481  04D2  00C9               	movwf	___fldiv@b
  1482  04D3  120A  118A  217B  120A  118A  	fcall	___fldiv
  1483  04D8  1283               	bcf	3,5	;RP0=0, select bank0
  1484  04D9  1303               	bcf	3,6	;RP1=0, select bank0
  1485  04DA  0848               	movf	?___fldiv+3,w
  1486  04DB  00AB               	movwf	_ADC_RES_V+3
  1487  04DC  0847               	movf	?___fldiv+2,w
  1488  04DD  00AA               	movwf	_ADC_RES_V+2
  1489  04DE  0846               	movf	?___fldiv+1,w
  1490  04DF  00A9               	movwf	_ADC_RES_V+1
  1491  04E0  0845               	movf	?___fldiv,w
  1492  04E1  00A8               	movwf	_ADC_RES_V
  1493  04E2                     l2600:	
  1494                           
  1495                           ;MASTER_Proyecto.c: 168:         POT_cien = (float)((ADC_POT_V)*((float)100));
  1496  04E2  3042               	movlw	66
  1497  04E3  00C8               	movwf	___flmul@b+3
  1498  04E4  30C8               	movlw	200
  1499  04E5  00C7               	movwf	___flmul@b+2
  1500  04E6  3000               	movlw	0
  1501  04E7  00C6               	movwf	___flmul@b+1
  1502  04E8  3000               	movlw	0
  1503  04E9  00C5               	movwf	___flmul@b
  1504  04EA  082F               	movf	_ADC_POT_V+3,w
  1505  04EB  00CC               	movwf	___flmul@a+3
  1506  04EC  082E               	movf	_ADC_POT_V+2,w
  1507  04ED  00CB               	movwf	___flmul@a+2
  1508  04EE  082D               	movf	_ADC_POT_V+1,w
  1509  04EF  00CA               	movwf	___flmul@a+1
  1510  04F0  082C               	movf	_ADC_POT_V,w
  1511  04F1  00C9               	movwf	___flmul@a
  1512  04F2  120A  158A  249F  120A  118A  	fcall	___flmul
  1513  04F7  1283               	bcf	3,5	;RP0=0, select bank0
  1514  04F8  1303               	bcf	3,6	;RP1=0, select bank0
  1515  04F9  0848               	movf	?___flmul+3,w
  1516  04FA  00A7               	movwf	_POT_cien+3
  1517  04FB  0847               	movf	?___flmul+2,w
  1518  04FC  00A6               	movwf	_POT_cien+2
  1519  04FD  0846               	movf	?___flmul+1,w
  1520  04FE  00A5               	movwf	_POT_cien+1
  1521  04FF  0845               	movf	?___flmul,w
  1522  0500  00A4               	movwf	_POT_cien
  1523  0501                     l2602:	
  1524                           
  1525                           ;MASTER_Proyecto.c: 169:         DECI_1_POT = (uint16_t)(POT_cien);
  1526  0501  0827               	movf	_POT_cien+3,w
  1527  0502  00F3               	movwf	___fltol@f1+3
  1528  0503  0826               	movf	_POT_cien+2,w
  1529  0504  00F2               	movwf	___fltol@f1+2
  1530  0505  0825               	movf	_POT_cien+1,w
  1531  0506  00F1               	movwf	___fltol@f1+1
  1532  0507  0824               	movf	_POT_cien,w
  1533  0508  00F0               	movwf	___fltol@f1
  1534  0509  120A  118A  2047  120A  118A  	fcall	___fltol
  1535  050E  0871               	movf	?___fltol+1,w
  1536  050F  1283               	bcf	3,5	;RP0=0, select bank0
  1537  0510  1303               	bcf	3,6	;RP1=0, select bank0
  1538  0511  00B7               	movwf	_DECI_1_POT+1
  1539  0512  0870               	movf	?___fltol,w
  1540  0513  00B6               	movwf	_DECI_1_POT
  1541  0514                     l2604:	
  1542                           
  1543                           ;MASTER_Proyecto.c: 170:         POT_D2 = (uint8_t)((DECI_1_POT)%((uint8_t)10));
  1544  0514  300A               	movlw	10
  1545  0515  00F0               	movwf	___lwmod@divisor
  1546  0516  3000               	movlw	0
  1547  0517  00F1               	movwf	___lwmod@divisor+1
  1548  0518  0837               	movf	_DECI_1_POT+1,w
  1549  0519  00F3               	movwf	___lwmod@dividend+1
  1550  051A  0836               	movf	_DECI_1_POT,w
  1551  051B  00F2               	movwf	___lwmod@dividend
  1552  051C  120A  158A  22A4  120A  118A  	fcall	___lwmod
  1553  0521  0870               	movf	?___lwmod,w
  1554  0522  1283               	bcf	3,5	;RP0=0, select bank0
  1555  0523  1303               	bcf	3,6	;RP1=0, select bank0
  1556  0524  00DF               	movwf	??_main
  1557  0525  085F               	movf	??_main,w
  1558  0526  00BE               	movwf	_POT_D2
  1559  0527                     l2606:	
  1560                           
  1561                           ;MASTER_Proyecto.c: 172:         DECI_2_POT = (uint16_t)((DECI_1_POT)/((uint16_t)10));
  1562  0527  300A               	movlw	10
  1563  0528  00F0               	movwf	___lwdiv@divisor
  1564  0529  3000               	movlw	0
  1565  052A  00F1               	movwf	___lwdiv@divisor+1
  1566  052B  0837               	movf	_DECI_1_POT+1,w
  1567  052C  00F3               	movwf	___lwdiv@dividend+1
  1568  052D  0836               	movf	_DECI_1_POT,w
  1569  052E  00F2               	movwf	___lwdiv@dividend
  1570  052F  120A  118A  2003  120A  118A  	fcall	___lwdiv
  1571  0534  0871               	movf	?___lwdiv+1,w
  1572  0535  1283               	bcf	3,5	;RP0=0, select bank0
  1573  0536  1303               	bcf	3,6	;RP1=0, select bank0
  1574  0537  00B5               	movwf	_DECI_2_POT+1
  1575  0538  0870               	movf	?___lwdiv,w
  1576  0539  00B4               	movwf	_DECI_2_POT
  1577  053A                     l2608:	
  1578                           
  1579                           ;MASTER_Proyecto.c: 173:         POT_D1 = (uint8_t)((DECI_2_POT)%((uint8_t)10));
  1580  053A  300A               	movlw	10
  1581  053B  00F0               	movwf	___lwmod@divisor
  1582  053C  3000               	movlw	0
  1583  053D  00F1               	movwf	___lwmod@divisor+1
  1584  053E  0835               	movf	_DECI_2_POT+1,w
  1585  053F  00F3               	movwf	___lwmod@dividend+1
  1586  0540  0834               	movf	_DECI_2_POT,w
  1587  0541  00F2               	movwf	___lwmod@dividend
  1588  0542  120A  158A  22A4  120A  118A  	fcall	___lwmod
  1589  0547  0870               	movf	?___lwmod,w
  1590  0548  1283               	bcf	3,5	;RP0=0, select bank0
  1591  0549  1303               	bcf	3,6	;RP1=0, select bank0
  1592  054A  00DF               	movwf	??_main
  1593  054B  085F               	movf	??_main,w
  1594  054C  00BF               	movwf	_POT_D1
  1595  054D                     l2610:	
  1596                           
  1597                           ;MASTER_Proyecto.c: 175:         POT_EN = (uint16_t)(ADC_POT_V);
  1598  054D  082F               	movf	_ADC_POT_V+3,w
  1599  054E  00F3               	movwf	___fltol@f1+3
  1600  054F  082E               	movf	_ADC_POT_V+2,w
  1601  0550  00F2               	movwf	___fltol@f1+2
  1602  0551  082D               	movf	_ADC_POT_V+1,w
  1603  0552  00F1               	movwf	___fltol@f1+1
  1604  0553  082C               	movf	_ADC_POT_V,w
  1605  0554  00F0               	movwf	___fltol@f1
  1606  0555  120A  118A  2047  120A  118A  	fcall	___fltol
  1607  055A  0870               	movf	?___fltol,w
  1608  055B  1283               	bcf	3,5	;RP0=0, select bank0
  1609  055C  1303               	bcf	3,6	;RP1=0, select bank0
  1610  055D  00DF               	movwf	??_main
  1611  055E  085F               	movf	??_main,w
  1612  055F  00C1               	movwf	_POT_EN
  1613  0560                     l2612:	
  1614                           
  1615                           ;MASTER_Proyecto.c: 179:         LCD_POINT(2,0);
  1616  0560  01F3               	clrf	LCD_POINT@col
  1617  0561  3002               	movlw	2
  1618  0562  120A  158A  223E  120A  118A  	fcall	_LCD_POINT
  1619  0567                     l2614:	
  1620                           
  1621                           ;MASTER_Proyecto.c: 180:         lcd_dwr(Val_STR(POT_EN));
  1622  0567  1283               	bcf	3,5	;RP0=0, select bank0
  1623  0568  1303               	bcf	3,6	;RP1=0, select bank0
  1624  0569  0841               	movf	_POT_EN,w
  1625  056A  120A  158A  22DE  120A  118A  	fcall	_Val_STR
  1626  056F  120A  158A  2157  120A  118A  	fcall	_lcd_dwr
  1627  0574                     l2616:	
  1628                           
  1629                           ;MASTER_Proyecto.c: 182:         LCD_POINT(2,2);
  1630  0574  3002               	movlw	2
  1631  0575  1283               	bcf	3,5	;RP0=0, select bank0
  1632  0576  1303               	bcf	3,6	;RP1=0, select bank0
  1633  0577  00DF               	movwf	??_main
  1634  0578  085F               	movf	??_main,w
  1635  0579  00F3               	movwf	LCD_POINT@col
  1636  057A  3002               	movlw	2
  1637  057B  120A  158A  223E  120A  118A  	fcall	_LCD_POINT
  1638  0580                     l2618:	
  1639                           
  1640                           ;MASTER_Proyecto.c: 183:         lcd_dwr(Val_STR(POT_D1));
  1641  0580  1283               	bcf	3,5	;RP0=0, select bank0
  1642  0581  1303               	bcf	3,6	;RP1=0, select bank0
  1643  0582  083F               	movf	_POT_D1,w
  1644  0583  120A  158A  22DE  120A  118A  	fcall	_Val_STR
  1645  0588  120A  158A  2157  120A  118A  	fcall	_lcd_dwr
  1646  058D                     l2620:	
  1647                           
  1648                           ;MASTER_Proyecto.c: 185:         LCD_POINT(2,3);
  1649  058D  3003               	movlw	3
  1650  058E  1283               	bcf	3,5	;RP0=0, select bank0
  1651  058F  1303               	bcf	3,6	;RP1=0, select bank0
  1652  0590  00DF               	movwf	??_main
  1653  0591  085F               	movf	??_main,w
  1654  0592  00F3               	movwf	LCD_POINT@col
  1655  0593  3002               	movlw	2
  1656  0594  120A  158A  223E  120A  118A  	fcall	_LCD_POINT
  1657  0599                     l2622:	
  1658                           
  1659                           ;MASTER_Proyecto.c: 186:         lcd_dwr(Val_STR(POT_D2));
  1660  0599  1283               	bcf	3,5	;RP0=0, select bank0
  1661  059A  1303               	bcf	3,6	;RP1=0, select bank0
  1662  059B  083E               	movf	_POT_D2,w
  1663  059C  120A  158A  22DE  120A  118A  	fcall	_Val_STR
  1664  05A1  120A  158A  2157  120A  118A  	fcall	_lcd_dwr
  1665  05A6                     l2624:	
  1666                           
  1667                           ;MASTER_Proyecto.c: 191:         CONT_U = (uint8_t)((Val_CONT)%((uint8_t)10));
  1668  05A6  300A               	movlw	10
  1669  05A7  00F0               	movwf	___awmod@divisor
  1670  05A8  3000               	movlw	0
  1671  05A9  00F1               	movwf	___awmod@divisor+1
  1672  05AA  1283               	bcf	3,5	;RP0=0, select bank0
  1673  05AB  1303               	bcf	3,6	;RP1=0, select bank0
  1674  05AC  0843               	movf	_Val_CONT,w
  1675  05AD  00DF               	movwf	??_main
  1676  05AE  01E0               	clrf	??_main+1
  1677  05AF  085F               	movf	??_main,w
  1678  05B0  00F2               	movwf	___awmod@dividend
  1679  05B1  0860               	movf	??_main+1,w
  1680  05B2  00F3               	movwf	___awmod@dividend+1
  1681  05B3  120A  158A  231D  120A  118A  	fcall	___awmod
  1682  05B8  0870               	movf	?___awmod,w
  1683  05B9  1283               	bcf	3,5	;RP0=0, select bank0
  1684  05BA  1303               	bcf	3,6	;RP1=0, select bank0
  1685  05BB  00E1               	movwf	??_main+2
  1686  05BC  0861               	movf	??_main+2,w
  1687  05BD  00BB               	movwf	_CONT_U
  1688  05BE                     l2626:	
  1689                           
  1690                           ;MASTER_Proyecto.c: 193:         CONT_D = (uint8_t)((Val_CONT)/((uint8_t)10));
  1691  05BE  300A               	movlw	10
  1692  05BF  00F0               	movwf	___awdiv@divisor
  1693  05C0  3000               	movlw	0
  1694  05C1  00F1               	movwf	___awdiv@divisor+1
  1695  05C2  0843               	movf	_Val_CONT,w
  1696  05C3  00DF               	movwf	??_main
  1697  05C4  01E0               	clrf	??_main+1
  1698  05C5  085F               	movf	??_main,w
  1699  05C6  00F2               	movwf	___awdiv@dividend
  1700  05C7  0860               	movf	??_main+1,w
  1701  05C8  00F3               	movwf	___awdiv@dividend+1
  1702  05C9  120A  158A  2438  120A  118A  	fcall	___awdiv
  1703  05CE  0870               	movf	?___awdiv,w
  1704  05CF  1283               	bcf	3,5	;RP0=0, select bank0
  1705  05D0  1303               	bcf	3,6	;RP1=0, select bank0
  1706  05D1  00E1               	movwf	??_main+2
  1707  05D2  0861               	movf	??_main+2,w
  1708  05D3  00BA               	movwf	_CONT_D
  1709  05D4                     l2628:	
  1710                           
  1711                           ;MASTER_Proyecto.c: 197:         LCD_POINT(2,7);
  1712  05D4  3007               	movlw	7
  1713  05D5  00DF               	movwf	??_main
  1714  05D6  085F               	movf	??_main,w
  1715  05D7  00F3               	movwf	LCD_POINT@col
  1716  05D8  3002               	movlw	2
  1717  05D9  120A  158A  223E  120A  118A  	fcall	_LCD_POINT
  1718  05DE                     l2630:	
  1719                           
  1720                           ;MASTER_Proyecto.c: 198:         lcd_dwr(Val_STR(CONT_D));
  1721  05DE  1283               	bcf	3,5	;RP0=0, select bank0
  1722  05DF  1303               	bcf	3,6	;RP1=0, select bank0
  1723  05E0  083A               	movf	_CONT_D,w
  1724  05E1  120A  158A  22DE  120A  118A  	fcall	_Val_STR
  1725  05E6  120A  158A  2157  120A  118A  	fcall	_lcd_dwr
  1726  05EB                     l2632:	
  1727                           
  1728                           ;MASTER_Proyecto.c: 200:         LCD_POINT(2,8);
  1729  05EB  3008               	movlw	8
  1730  05EC  1283               	bcf	3,5	;RP0=0, select bank0
  1731  05ED  1303               	bcf	3,6	;RP1=0, select bank0
  1732  05EE  00DF               	movwf	??_main
  1733  05EF  085F               	movf	??_main,w
  1734  05F0  00F3               	movwf	LCD_POINT@col
  1735  05F1  3002               	movlw	2
  1736  05F2  120A  158A  223E  120A  118A  	fcall	_LCD_POINT
  1737  05F7                     l2634:	
  1738                           
  1739                           ;MASTER_Proyecto.c: 201:         lcd_dwr(Val_STR(CONT_U));
  1740  05F7  1283               	bcf	3,5	;RP0=0, select bank0
  1741  05F8  1303               	bcf	3,6	;RP1=0, select bank0
  1742  05F9  083B               	movf	_CONT_U,w
  1743  05FA  120A  158A  22DE  120A  118A  	fcall	_Val_STR
  1744  05FF  120A  158A  2157  120A  118A  	fcall	_lcd_dwr
  1745  0604                     l2636:	
  1746                           
  1747                           ;MASTER_Proyecto.c: 205:         RES_cien = (float)((ADC_RES_V)*((float)100));
  1748  0604  3042               	movlw	66
  1749  0605  1283               	bcf	3,5	;RP0=0, select bank0
  1750  0606  1303               	bcf	3,6	;RP1=0, select bank0
  1751  0607  00C8               	movwf	___flmul@b+3
  1752  0608  30C8               	movlw	200
  1753  0609  00C7               	movwf	___flmul@b+2
  1754  060A  3000               	movlw	0
  1755  060B  00C6               	movwf	___flmul@b+1
  1756  060C  3000               	movlw	0
  1757  060D  00C5               	movwf	___flmul@b
  1758  060E  082B               	movf	_ADC_RES_V+3,w
  1759  060F  00CC               	movwf	___flmul@a+3
  1760  0610  082A               	movf	_ADC_RES_V+2,w
  1761  0611  00CB               	movwf	___flmul@a+2
  1762  0612  0829               	movf	_ADC_RES_V+1,w
  1763  0613  00CA               	movwf	___flmul@a+1
  1764  0614  0828               	movf	_ADC_RES_V,w
  1765  0615  00C9               	movwf	___flmul@a
  1766  0616  120A  158A  249F  120A  118A  	fcall	___flmul
  1767  061B  1283               	bcf	3,5	;RP0=0, select bank0
  1768  061C  1303               	bcf	3,6	;RP1=0, select bank0
  1769  061D  0848               	movf	?___flmul+3,w
  1770  061E  00A3               	movwf	_RES_cien+3
  1771  061F  0847               	movf	?___flmul+2,w
  1772  0620  00A2               	movwf	_RES_cien+2
  1773  0621  0846               	movf	?___flmul+1,w
  1774  0622  00A1               	movwf	_RES_cien+1
  1775  0623  0845               	movf	?___flmul,w
  1776  0624  00A0               	movwf	_RES_cien
  1777  0625                     l2638:	
  1778                           
  1779                           ;MASTER_Proyecto.c: 206:         DECI_1_RES = (uint16_t)(RES_cien);
  1780  0625  0823               	movf	_RES_cien+3,w
  1781  0626  00F3               	movwf	___fltol@f1+3
  1782  0627  0822               	movf	_RES_cien+2,w
  1783  0628  00F2               	movwf	___fltol@f1+2
  1784  0629  0821               	movf	_RES_cien+1,w
  1785  062A  00F1               	movwf	___fltol@f1+1
  1786  062B  0820               	movf	_RES_cien,w
  1787  062C  00F0               	movwf	___fltol@f1
  1788  062D  120A  118A  2047  120A  118A  	fcall	___fltol
  1789  0632  0871               	movf	?___fltol+1,w
  1790  0633  1283               	bcf	3,5	;RP0=0, select bank0
  1791  0634  1303               	bcf	3,6	;RP1=0, select bank0
  1792  0635  00B3               	movwf	_DECI_1_RES+1
  1793  0636  0870               	movf	?___fltol,w
  1794  0637  00B2               	movwf	_DECI_1_RES
  1795  0638                     l2640:	
  1796                           
  1797                           ;MASTER_Proyecto.c: 207:         RES_D2 = (uint8_t)((DECI_1_RES)%((uint8_t)10));
  1798  0638  300A               	movlw	10
  1799  0639  00F0               	movwf	___lwmod@divisor
  1800  063A  3000               	movlw	0
  1801  063B  00F1               	movwf	___lwmod@divisor+1
  1802  063C  0833               	movf	_DECI_1_RES+1,w
  1803  063D  00F3               	movwf	___lwmod@dividend+1
  1804  063E  0832               	movf	_DECI_1_RES,w
  1805  063F  00F2               	movwf	___lwmod@dividend
  1806  0640  120A  158A  22A4  120A  118A  	fcall	___lwmod
  1807  0645  0870               	movf	?___lwmod,w
  1808  0646  1283               	bcf	3,5	;RP0=0, select bank0
  1809  0647  1303               	bcf	3,6	;RP1=0, select bank0
  1810  0648  00DF               	movwf	??_main
  1811  0649  085F               	movf	??_main,w
  1812  064A  00BC               	movwf	_RES_D2
  1813  064B                     l2642:	
  1814                           
  1815                           ;MASTER_Proyecto.c: 209:         DECI_2_RES = (uint16_t)((DECI_1_RES)/((uint16_t)10));
  1816  064B  300A               	movlw	10
  1817  064C  00F0               	movwf	___lwdiv@divisor
  1818  064D  3000               	movlw	0
  1819  064E  00F1               	movwf	___lwdiv@divisor+1
  1820  064F  0833               	movf	_DECI_1_RES+1,w
  1821  0650  00F3               	movwf	___lwdiv@dividend+1
  1822  0651  0832               	movf	_DECI_1_RES,w
  1823  0652  00F2               	movwf	___lwdiv@dividend
  1824  0653  120A  118A  2003  120A  118A  	fcall	___lwdiv
  1825  0658  0871               	movf	?___lwdiv+1,w
  1826  0659  1283               	bcf	3,5	;RP0=0, select bank0
  1827  065A  1303               	bcf	3,6	;RP1=0, select bank0
  1828  065B  00B1               	movwf	_DECI_2_RES+1
  1829  065C  0870               	movf	?___lwdiv,w
  1830  065D  00B0               	movwf	_DECI_2_RES
  1831  065E                     l2644:	
  1832                           
  1833                           ;MASTER_Proyecto.c: 210:         RES_D1 = (uint8_t)((DECI_2_RES)%((uint8_t)10));
  1834  065E  300A               	movlw	10
  1835  065F  00F0               	movwf	___lwmod@divisor
  1836  0660  3000               	movlw	0
  1837  0661  00F1               	movwf	___lwmod@divisor+1
  1838  0662  0831               	movf	_DECI_2_RES+1,w
  1839  0663  00F3               	movwf	___lwmod@dividend+1
  1840  0664  0830               	movf	_DECI_2_RES,w
  1841  0665  00F2               	movwf	___lwmod@dividend
  1842  0666  120A  158A  22A4  120A  118A  	fcall	___lwmod
  1843  066B  0870               	movf	?___lwmod,w
  1844  066C  1283               	bcf	3,5	;RP0=0, select bank0
  1845  066D  1303               	bcf	3,6	;RP1=0, select bank0
  1846  066E  00DF               	movwf	??_main
  1847  066F  085F               	movf	??_main,w
  1848  0670  00BD               	movwf	_RES_D1
  1849  0671                     l2646:	
  1850                           
  1851                           ;MASTER_Proyecto.c: 212:         RES_EN = (uint16_t)(ADC_RES_V);
  1852  0671  082B               	movf	_ADC_RES_V+3,w
  1853  0672  00F3               	movwf	___fltol@f1+3
  1854  0673  082A               	movf	_ADC_RES_V+2,w
  1855  0674  00F2               	movwf	___fltol@f1+2
  1856  0675  0829               	movf	_ADC_RES_V+1,w
  1857  0676  00F1               	movwf	___fltol@f1+1
  1858  0677  0828               	movf	_ADC_RES_V,w
  1859  0678  00F0               	movwf	___fltol@f1
  1860  0679  120A  118A  2047  120A  118A  	fcall	___fltol
  1861  067E  0870               	movf	?___fltol,w
  1862  067F  1283               	bcf	3,5	;RP0=0, select bank0
  1863  0680  1303               	bcf	3,6	;RP1=0, select bank0
  1864  0681  00DF               	movwf	??_main
  1865  0682  085F               	movf	??_main,w
  1866  0683  00C0               	movwf	_RES_EN
  1867  0684                     l2648:	
  1868                           
  1869                           ;MASTER_Proyecto.c: 216:         LCD_POINT(2,10);
  1870  0684  300A               	movlw	10
  1871  0685  00DF               	movwf	??_main
  1872  0686  085F               	movf	??_main,w
  1873  0687  00F3               	movwf	LCD_POINT@col
  1874  0688  3002               	movlw	2
  1875  0689  120A  158A  223E  120A  118A  	fcall	_LCD_POINT
  1876  068E                     l2650:	
  1877                           
  1878                           ;MASTER_Proyecto.c: 217:         lcd_dwr(Val_STR(RES_EN));
  1879  068E  1283               	bcf	3,5	;RP0=0, select bank0
  1880  068F  1303               	bcf	3,6	;RP1=0, select bank0
  1881  0690  0840               	movf	_RES_EN,w
  1882  0691  120A  158A  22DE  120A  118A  	fcall	_Val_STR
  1883  0696  120A  158A  2157  120A  118A  	fcall	_lcd_dwr
  1884  069B                     l2652:	
  1885                           
  1886                           ;MASTER_Proyecto.c: 219:         LCD_POINT(2,12);
  1887  069B  300C               	movlw	12
  1888  069C  1283               	bcf	3,5	;RP0=0, select bank0
  1889  069D  1303               	bcf	3,6	;RP1=0, select bank0
  1890  069E  00DF               	movwf	??_main
  1891  069F  085F               	movf	??_main,w
  1892  06A0  00F3               	movwf	LCD_POINT@col
  1893  06A1  3002               	movlw	2
  1894  06A2  120A  158A  223E  120A  118A  	fcall	_LCD_POINT
  1895  06A7                     l2654:	
  1896                           
  1897                           ;MASTER_Proyecto.c: 220:         lcd_dwr(Val_STR(RES_D1));
  1898  06A7  1283               	bcf	3,5	;RP0=0, select bank0
  1899  06A8  1303               	bcf	3,6	;RP1=0, select bank0
  1900  06A9  083D               	movf	_RES_D1,w
  1901  06AA  120A  158A  22DE  120A  118A  	fcall	_Val_STR
  1902  06AF  120A  158A  2157  120A  118A  	fcall	_lcd_dwr
  1903  06B4                     l2656:	
  1904                           
  1905                           ;MASTER_Proyecto.c: 222:         LCD_POINT(2,13);
  1906  06B4  300D               	movlw	13
  1907  06B5  1283               	bcf	3,5	;RP0=0, select bank0
  1908  06B6  1303               	bcf	3,6	;RP1=0, select bank0
  1909  06B7  00DF               	movwf	??_main
  1910  06B8  085F               	movf	??_main,w
  1911  06B9  00F3               	movwf	LCD_POINT@col
  1912  06BA  3002               	movlw	2
  1913  06BB  120A  158A  223E  120A  118A  	fcall	_LCD_POINT
  1914  06C0                     l2658:	
  1915                           
  1916                           ;MASTER_Proyecto.c: 223:         lcd_dwr(Val_STR(RES_D2));
  1917  06C0  1283               	bcf	3,5	;RP0=0, select bank0
  1918  06C1  1303               	bcf	3,6	;RP1=0, select bank0
  1919  06C2  083C               	movf	_RES_D2,w
  1920  06C3  120A  158A  22DE  120A  118A  	fcall	_Val_STR
  1921  06C8  120A  158A  2157  120A  118A  	fcall	_lcd_dwr
  1922  06CD                     l2660:	
  1923                           
  1924                           ;MASTER_Proyecto.c: 225:         _delay((unsigned long)((4000)*(8000000/4000.0)));
  1925  06CD  3029               	movlw	41
  1926  06CE  1283               	bcf	3,5	;RP0=0, select bank0
  1927  06CF  1303               	bcf	3,6	;RP1=0, select bank0
  1928  06D0  00E1               	movwf	??_main+2
  1929  06D1  3096               	movlw	150
  1930  06D2  00E0               	movwf	??_main+1
  1931  06D3  307E               	movlw	126
  1932  06D4  00DF               	movwf	??_main
  1933  06D5                     u2937:	
  1934  06D5  0BDF               	decfsz	??_main,f
  1935  06D6  2ED5               	goto	u2937
  1936  06D7  0BE0               	decfsz	??_main+1,f
  1937  06D8  2ED5               	goto	u2937
  1938  06D9  0BE1               	decfsz	??_main+2,f
  1939  06DA  2ED5               	goto	u2937
  1940  06DB  0000               	nop
  1941  06DC                     l2662:	
  1942                           
  1943                           ;MASTER_Proyecto.c: 230:         lcd_cmd(0x01);
  1944  06DC  3001               	movlw	1
  1945  06DD  120A  158A  2145  120A  118A  	fcall	_lcd_cmd
  1946  06E2                     l2664:	
  1947                           
  1948                           ;MASTER_Proyecto.c: 232:         LCD_POINT(1,2);
  1949  06E2  3002               	movlw	2
  1950  06E3  1283               	bcf	3,5	;RP0=0, select bank0
  1951  06E4  1303               	bcf	3,6	;RP1=0, select bank0
  1952  06E5  00DF               	movwf	??_main
  1953  06E6  085F               	movf	??_main,w
  1954  06E7  00F3               	movwf	LCD_POINT@col
  1955  06E8  3001               	movlw	1
  1956  06E9  120A  158A  223E  120A  118A  	fcall	_LCD_POINT
  1957                           
  1958                           ;MASTER_Proyecto.c: 233:         lcd_msg("S4");
  1959  06EE  300A               	movlw	(low ((STR_4-__stringbase)| (0+32768)))& (0+255)
  1960  06EF  120A  158A  21A2  120A  118A  	fcall	_lcd_msg
  1961  06F4                     l2666:	
  1962                           
  1963                           ;MASTER_Proyecto.c: 235:         LCD_POINT(2,1);
  1964  06F4  01F3               	clrf	LCD_POINT@col
  1965  06F5  0AF3               	incf	LCD_POINT@col,f
  1966  06F6  3002               	movlw	2
  1967  06F7  120A  158A  223E  120A  118A  	fcall	_LCD_POINT
  1968  06FC                     l2668:	
  1969                           
  1970                           ;MASTER_Proyecto.c: 236:         lcd_dwr('.');
  1971  06FC  302E               	movlw	46
  1972  06FD  120A  158A  2157  120A  118A  	fcall	_lcd_dwr
  1973  0702                     l2670:	
  1974                           
  1975                           ;MASTER_Proyecto.c: 237:         LCD_POINT(2,4);
  1976  0702  3004               	movlw	4
  1977  0703  1283               	bcf	3,5	;RP0=0, select bank0
  1978  0704  1303               	bcf	3,6	;RP1=0, select bank0
  1979  0705  00DF               	movwf	??_main
  1980  0706  085F               	movf	??_main,w
  1981  0707  00F3               	movwf	LCD_POINT@col
  1982  0708  3002               	movlw	2
  1983  0709  120A  158A  223E  120A  118A  	fcall	_LCD_POINT
  1984  070E                     l2672:	
  1985                           
  1986                           ;MASTER_Proyecto.c: 238:         lcd_dwr('V');
  1987  070E  3056               	movlw	86
  1988  070F  120A  158A  2157  120A  118A  	fcall	_lcd_dwr
  1989  0714                     l2674:	
  1990                           
  1991                           ;MASTER_Proyecto.c: 243:         POT_cien = (float)((ADC_POT_V)*((float)100));
  1992  0714  3042               	movlw	66
  1993  0715  1283               	bcf	3,5	;RP0=0, select bank0
  1994  0716  1303               	bcf	3,6	;RP1=0, select bank0
  1995  0717  00C8               	movwf	___flmul@b+3
  1996  0718  30C8               	movlw	200
  1997  0719  00C7               	movwf	___flmul@b+2
  1998  071A  3000               	movlw	0
  1999  071B  00C6               	movwf	___flmul@b+1
  2000  071C  3000               	movlw	0
  2001  071D  00C5               	movwf	___flmul@b
  2002  071E  082F               	movf	_ADC_POT_V+3,w
  2003  071F  00CC               	movwf	___flmul@a+3
  2004  0720  082E               	movf	_ADC_POT_V+2,w
  2005  0721  00CB               	movwf	___flmul@a+2
  2006  0722  082D               	movf	_ADC_POT_V+1,w
  2007  0723  00CA               	movwf	___flmul@a+1
  2008  0724  082C               	movf	_ADC_POT_V,w
  2009  0725  00C9               	movwf	___flmul@a
  2010  0726  120A  158A  249F  120A  118A  	fcall	___flmul
  2011  072B  1283               	bcf	3,5	;RP0=0, select bank0
  2012  072C  1303               	bcf	3,6	;RP1=0, select bank0
  2013  072D  0848               	movf	?___flmul+3,w
  2014  072E  00A7               	movwf	_POT_cien+3
  2015  072F  0847               	movf	?___flmul+2,w
  2016  0730  00A6               	movwf	_POT_cien+2
  2017  0731  0846               	movf	?___flmul+1,w
  2018  0732  00A5               	movwf	_POT_cien+1
  2019  0733  0845               	movf	?___flmul,w
  2020  0734  00A4               	movwf	_POT_cien
  2021  0735                     l2676:	
  2022                           
  2023                           ;MASTER_Proyecto.c: 244:         DECI_1_POT = (uint16_t)(POT_cien);
  2024  0735  0827               	movf	_POT_cien+3,w
  2025  0736  00F3               	movwf	___fltol@f1+3
  2026  0737  0826               	movf	_POT_cien+2,w
  2027  0738  00F2               	movwf	___fltol@f1+2
  2028  0739  0825               	movf	_POT_cien+1,w
  2029  073A  00F1               	movwf	___fltol@f1+1
  2030  073B  0824               	movf	_POT_cien,w
  2031  073C  00F0               	movwf	___fltol@f1
  2032  073D  120A  118A  2047  120A  118A  	fcall	___fltol
  2033  0742  0871               	movf	?___fltol+1,w
  2034  0743  1283               	bcf	3,5	;RP0=0, select bank0
  2035  0744  1303               	bcf	3,6	;RP1=0, select bank0
  2036  0745  00B7               	movwf	_DECI_1_POT+1
  2037  0746  0870               	movf	?___fltol,w
  2038  0747  00B6               	movwf	_DECI_1_POT
  2039  0748                     l2678:	
  2040                           
  2041                           ;MASTER_Proyecto.c: 245:         POT_D2 = (uint8_t)((DECI_1_POT)%((uint8_t)10));
  2042  0748  300A               	movlw	10
  2043  0749  00F0               	movwf	___lwmod@divisor
  2044  074A  3000               	movlw	0
  2045  074B  00F1               	movwf	___lwmod@divisor+1
  2046  074C  0837               	movf	_DECI_1_POT+1,w
  2047  074D  00F3               	movwf	___lwmod@dividend+1
  2048  074E  0836               	movf	_DECI_1_POT,w
  2049  074F  00F2               	movwf	___lwmod@dividend
  2050  0750  120A  158A  22A4  120A  118A  	fcall	___lwmod
  2051  0755  0870               	movf	?___lwmod,w
  2052  0756  1283               	bcf	3,5	;RP0=0, select bank0
  2053  0757  1303               	bcf	3,6	;RP1=0, select bank0
  2054  0758  00DF               	movwf	??_main
  2055  0759  085F               	movf	??_main,w
  2056  075A  00BE               	movwf	_POT_D2
  2057  075B                     l2680:	
  2058                           
  2059                           ;MASTER_Proyecto.c: 247:         DECI_2_POT = (uint16_t)((DECI_1_POT)/((uint16_t)10));
  2060  075B  300A               	movlw	10
  2061  075C  00F0               	movwf	___lwdiv@divisor
  2062  075D  3000               	movlw	0
  2063  075E  00F1               	movwf	___lwdiv@divisor+1
  2064  075F  0837               	movf	_DECI_1_POT+1,w
  2065  0760  00F3               	movwf	___lwdiv@dividend+1
  2066  0761  0836               	movf	_DECI_1_POT,w
  2067  0762  00F2               	movwf	___lwdiv@dividend
  2068  0763  120A  118A  2003  120A  118A  	fcall	___lwdiv
  2069  0768  0871               	movf	?___lwdiv+1,w
  2070  0769  1283               	bcf	3,5	;RP0=0, select bank0
  2071  076A  1303               	bcf	3,6	;RP1=0, select bank0
  2072  076B  00B5               	movwf	_DECI_2_POT+1
  2073  076C  0870               	movf	?___lwdiv,w
  2074  076D  00B4               	movwf	_DECI_2_POT
  2075  076E                     l2682:	
  2076                           
  2077                           ;MASTER_Proyecto.c: 248:         POT_D1 = (uint8_t)((DECI_2_POT)%((uint8_t)10));
  2078  076E  300A               	movlw	10
  2079  076F  00F0               	movwf	___lwmod@divisor
  2080  0770  3000               	movlw	0
  2081  0771  00F1               	movwf	___lwmod@divisor+1
  2082  0772  0835               	movf	_DECI_2_POT+1,w
  2083  0773  00F3               	movwf	___lwmod@dividend+1
  2084  0774  0834               	movf	_DECI_2_POT,w
  2085  0775  00F2               	movwf	___lwmod@dividend
  2086  0776  120A  158A  22A4  120A  118A  	fcall	___lwmod
  2087  077B  0870               	movf	?___lwmod,w
  2088  077C  1283               	bcf	3,5	;RP0=0, select bank0
  2089  077D  1303               	bcf	3,6	;RP1=0, select bank0
  2090  077E  00DF               	movwf	??_main
  2091  077F  085F               	movf	??_main,w
  2092  0780  00BF               	movwf	_POT_D1
  2093  0781                     l2684:	
  2094                           
  2095                           ;MASTER_Proyecto.c: 250:         POT_EN = (uint16_t)(ADC_POT_V);
  2096  0781  082F               	movf	_ADC_POT_V+3,w
  2097  0782  00F3               	movwf	___fltol@f1+3
  2098  0783  082E               	movf	_ADC_POT_V+2,w
  2099  0784  00F2               	movwf	___fltol@f1+2
  2100  0785  082D               	movf	_ADC_POT_V+1,w
  2101  0786  00F1               	movwf	___fltol@f1+1
  2102  0787  082C               	movf	_ADC_POT_V,w
  2103  0788  00F0               	movwf	___fltol@f1
  2104  0789  120A  118A  2047  120A  118A  	fcall	___fltol
  2105  078E  0870               	movf	?___fltol,w
  2106  078F  1283               	bcf	3,5	;RP0=0, select bank0
  2107  0790  1303               	bcf	3,6	;RP1=0, select bank0
  2108  0791  00DF               	movwf	??_main
  2109  0792  085F               	movf	??_main,w
  2110  0793  00C1               	movwf	_POT_EN
  2111  0794                     l2686:	
  2112                           
  2113                           ;MASTER_Proyecto.c: 254:         LCD_POINT(2,0);
  2114  0794  01F3               	clrf	LCD_POINT@col
  2115  0795  3002               	movlw	2
  2116  0796  120A  158A  223E  120A  118A  	fcall	_LCD_POINT
  2117  079B                     l2688:	
  2118                           
  2119                           ;MASTER_Proyecto.c: 255:         lcd_dwr(Val_STR(POT_EN));
  2120  079B  1283               	bcf	3,5	;RP0=0, select bank0
  2121  079C  1303               	bcf	3,6	;RP1=0, select bank0
  2122  079D  0841               	movf	_POT_EN,w
  2123  079E  120A  158A  22DE  120A  118A  	fcall	_Val_STR
  2124  07A3  120A  158A  2157  120A  118A  	fcall	_lcd_dwr
  2125  07A8                     l2690:	
  2126                           
  2127                           ;MASTER_Proyecto.c: 257:         LCD_POINT(2,2);
  2128  07A8  3002               	movlw	2
  2129  07A9  1283               	bcf	3,5	;RP0=0, select bank0
  2130  07AA  1303               	bcf	3,6	;RP1=0, select bank0
  2131  07AB  00DF               	movwf	??_main
  2132  07AC  085F               	movf	??_main,w
  2133  07AD  00F3               	movwf	LCD_POINT@col
  2134  07AE  3002               	movlw	2
  2135  07AF  120A  158A  223E  120A  118A  	fcall	_LCD_POINT
  2136  07B4                     l2692:	
  2137                           
  2138                           ;MASTER_Proyecto.c: 258:         lcd_dwr(Val_STR(POT_D1));
  2139  07B4  1283               	bcf	3,5	;RP0=0, select bank0
  2140  07B5  1303               	bcf	3,6	;RP1=0, select bank0
  2141  07B6  083F               	movf	_POT_D1,w
  2142  07B7  120A  158A  22DE  120A  118A  	fcall	_Val_STR
  2143  07BC  120A  158A  2157  120A  118A  	fcall	_lcd_dwr
  2144  07C1                     l2694:	
  2145                           
  2146                           ;MASTER_Proyecto.c: 260:         LCD_POINT(2,3);
  2147  07C1  3003               	movlw	3
  2148  07C2  1283               	bcf	3,5	;RP0=0, select bank0
  2149  07C3  1303               	bcf	3,6	;RP1=0, select bank0
  2150  07C4  00DF               	movwf	??_main
  2151  07C5  085F               	movf	??_main,w
  2152  07C6  00F3               	movwf	LCD_POINT@col
  2153  07C7  3002               	movlw	2
  2154  07C8  120A  158A  223E  120A  118A  	fcall	_LCD_POINT
  2155  07CD                     l2696:	
  2156                           
  2157                           ;MASTER_Proyecto.c: 261:         lcd_dwr(Val_STR(POT_D2));
  2158  07CD  1283               	bcf	3,5	;RP0=0, select bank0
  2159  07CE  1303               	bcf	3,6	;RP1=0, select bank0
  2160  07CF  083E               	movf	_POT_D2,w
  2161  07D0  120A  158A  22DE  120A  118A  	fcall	_Val_STR
  2162  07D5  120A  158A  2157  120A  118A  	fcall	_lcd_dwr
  2163  07DA                     l2698:	
  2164                           
  2165                           ;MASTER_Proyecto.c: 263:         _delay((unsigned long)((4000)*(8000000/4000.0)));
  2166  07DA  3029               	movlw	41
  2167  07DB  1283               	bcf	3,5	;RP0=0, select bank0
  2168  07DC  1303               	bcf	3,6	;RP1=0, select bank0
  2169  07DD  00E1               	movwf	??_main+2
  2170  07DE  3096               	movlw	150
  2171  07DF  00E0               	movwf	??_main+1
  2172  07E0  307E               	movlw	126
  2173  07E1  00DF               	movwf	??_main
  2174  07E2                     u2947:	
  2175  07E2  0BDF               	decfsz	??_main,f
  2176  07E3  2FE2               	goto	u2947
  2177  07E4  0BE0               	decfsz	??_main+1,f
  2178  07E5  2FE2               	goto	u2947
  2179  07E6  0BE1               	decfsz	??_main+2,f
  2180  07E7  2FE2               	goto	u2947
  2181  07E8  0000               	nop
  2182  07E9                     l2700:	
  2183                           
  2184                           ;MASTER_Proyecto.c: 265:         lcd_cmd(0x01);
  2185  07E9  3001               	movlw	1
  2186  07EA  120A  158A  2145  120A  118A  	fcall	_lcd_cmd
  2187  07EF  2B6E               	goto	l2542
  2188  07F0  120A  118A  2800   	ljmp	start
  2189  07F3                     __end_of_main:	
  2190                           
  2191                           	psect	text1
  2192  09A2                     __ptext1:	
  2193 ;; *************** function _lcd_msg *****************
  2194 ;; Defined at:
  2195 ;;		line 58 in file "LCD.c"
  2196 ;; Parameters:    Size  Location     Type
  2197 ;;  c               1    wreg     PTR unsigned char 
  2198 ;;		 -> STR_4(3), STR_3(3), STR_2(3), STR_1(3), 
  2199 ;; Auto vars:     Size  Location     Type
  2200 ;;  c               1    4[COMMON] PTR unsigned char 
  2201 ;;		 -> STR_4(3), STR_3(3), STR_2(3), STR_1(3), 
  2202 ;; Return value:  Size  Location     Type
  2203 ;;                  1    wreg      void 
  2204 ;; Registers used:
  2205 ;;		wreg, fsr0l, fsr0h, status,2, status,0, pclath, cstack
  2206 ;; Tracked objects:
  2207 ;;		On entry : 0/0
  2208 ;;		On exit  : 0/0
  2209 ;;		Unchanged: 0/0
  2210 ;; Data sizes:     COMMON   BANK0   BANK1   BANK3   BANK2
  2211 ;;      Params:         0       0       0       0       0
  2212 ;;      Locals:         1       0       0       0       0
  2213 ;;      Temps:          1       0       0       0       0
  2214 ;;      Totals:         2       0       0       0       0
  2215 ;;Total ram usage:        2 bytes
  2216 ;; Hardware stack levels used:    1
  2217 ;; Hardware stack levels required when called:    2
  2218 ;; This function calls:
  2219 ;;		_lcd_dwr
  2220 ;; This function is called by:
  2221 ;;		_main
  2222 ;; This function uses a non-reentrant model
  2223 ;;
  2224                           
  2225                           
  2226                           ;psect for function _lcd_msg
  2227  09A2                     _lcd_msg:	
  2228                           
  2229                           ;incstack = 0
  2230                           ; Regs used in _lcd_msg: [wreg-fsr0h+status,2+status,0+pclath+cstack]
  2231                           ;lcd_msg@c stored from wreg
  2232  09A2  00F4               	movwf	lcd_msg@c
  2233  09A3                     l1950:	
  2234                           
  2235                           ;LCD.c: 60:     while(*c != 0)
  2236  09A3  29B4               	goto	l1956
  2237  09A4                     l1952:	
  2238                           
  2239                           ;LCD.c: 61:         lcd_dwr(*c++);
  2240  09A4  0874               	movf	lcd_msg@c,w
  2241  09A5  0084               	movwf	4
  2242  09A6  120A  158A  2000  120A  158A  	fcall	stringdir
  2243  09AB  120A  158A  2157  120A  158A  	fcall	_lcd_dwr
  2244  09B0                     l1954:	
  2245  09B0  3001               	movlw	1
  2246  09B1  00F3               	movwf	??_lcd_msg
  2247  09B2  0873               	movf	??_lcd_msg,w
  2248  09B3  07F4               	addwf	lcd_msg@c,f
  2249  09B4                     l1956:	
  2250                           
  2251                           ;LCD.c: 60:     while(*c != 0)
  2252  09B4  0874               	movf	lcd_msg@c,w
  2253  09B5  0084               	movwf	4
  2254  09B6  120A  158A  2000  120A  158A  	fcall	stringdir
  2255  09BB  3A00               	xorlw	0
  2256  09BC  1D03               	skipz
  2257  09BD  29BF               	goto	u1651
  2258  09BE  29C0               	goto	u1650
  2259  09BF                     u1651:	
  2260  09BF  29A4               	goto	l1952
  2261  09C0                     u1650:	
  2262  09C0                     l203:	
  2263  09C0  0008               	return
  2264  09C1                     __end_of_lcd_msg:	
  2265                           
  2266                           	psect	text2
  2267  0957                     __ptext2:	
  2268 ;; *************** function _lcd_dwr *****************
  2269 ;; Defined at:
  2270 ;;		line 48 in file "LCD.c"
  2271 ;; Parameters:    Size  Location     Type
  2272 ;;  x               1    wreg     unsigned char 
  2273 ;; Auto vars:     Size  Location     Type
  2274 ;;  x               1    2[COMMON] unsigned char 
  2275 ;; Return value:  Size  Location     Type
  2276 ;;                  1    wreg      void 
  2277 ;; Registers used:
  2278 ;;		wreg, status,2, status,0, pclath, cstack
  2279 ;; Tracked objects:
  2280 ;;		On entry : 0/0
  2281 ;;		On exit  : 0/0
  2282 ;;		Unchanged: 0/0
  2283 ;; Data sizes:     COMMON   BANK0   BANK1   BANK3   BANK2
  2284 ;;      Params:         0       0       0       0       0
  2285 ;;      Locals:         1       0       0       0       0
  2286 ;;      Temps:          0       0       0       0       0
  2287 ;;      Totals:         1       0       0       0       0
  2288 ;;Total ram usage:        1 bytes
  2289 ;; Hardware stack levels used:    1
  2290 ;; Hardware stack levels required when called:    1
  2291 ;; This function calls:
  2292 ;;		_lcd_lat
  2293 ;;		_lcd_ready
  2294 ;; This function is called by:
  2295 ;;		_main
  2296 ;;		_lcd_msg
  2297 ;; This function uses a non-reentrant model
  2298 ;;
  2299                           
  2300                           
  2301                           ;psect for function _lcd_dwr
  2302  0957                     _lcd_dwr:	
  2303                           
  2304                           ;incstack = 0
  2305                           ; Regs used in _lcd_dwr: [wreg+status,2+status,0+pclath+cstack]
  2306                           ;lcd_dwr@x stored from wreg
  2307  0957  00F2               	movwf	lcd_dwr@x
  2308  0958                     l1868:	
  2309                           
  2310                           ;LCD.c: 49:     lcd_ready();
  2311  0958  120A  158A  21E8  120A  158A  	fcall	_lcd_ready
  2312  095D                     l1870:	
  2313                           
  2314                           ;LCD.c: 50:     PORTB = x;
  2315  095D  0872               	movf	lcd_dwr@x,w
  2316  095E  1283               	bcf	3,5	;RP0=0, select bank0
  2317  095F  1303               	bcf	3,6	;RP1=0, select bank0
  2318  0960  0086               	movwf	6	;volatile
  2319  0961                     l1872:	
  2320                           
  2321                           ;LCD.c: 51:     RD7 = 1;
  2322  0961  1788               	bsf	8,7	;volatile
  2323  0962                     l1874:	
  2324                           
  2325                           ;LCD.c: 52:     RD2 = 0;
  2326  0962  1108               	bcf	8,2	;volatile
  2327  0963                     l1876:	
  2328                           
  2329                           ;LCD.c: 53:     lcd_lat();
  2330  0963  120A  158A  2136  120A  158A  	fcall	_lcd_lat
  2331  0968                     l197:	
  2332  0968  0008               	return
  2333  0969                     __end_of_lcd_dwr:	
  2334                           
  2335                           	psect	text3
  2336  0983                     __ptext3:	
  2337 ;; *************** function _lcd_init *****************
  2338 ;; Defined at:
  2339 ;;		line 64 in file "LCD.c"
  2340 ;; Parameters:    Size  Location     Type
  2341 ;;		None
  2342 ;; Auto vars:     Size  Location     Type
  2343 ;;		None
  2344 ;; Return value:  Size  Location     Type
  2345 ;;                  1    wreg      void 
  2346 ;; Registers used:
  2347 ;;		wreg, status,2, status,0, pclath, cstack
  2348 ;; Tracked objects:
  2349 ;;		On entry : 0/0
  2350 ;;		On exit  : 0/0
  2351 ;;		Unchanged: 0/0
  2352 ;; Data sizes:     COMMON   BANK0   BANK1   BANK3   BANK2
  2353 ;;      Params:         0       0       0       0       0
  2354 ;;      Locals:         0       0       0       0       0
  2355 ;;      Temps:          0       0       0       0       0
  2356 ;;      Totals:         0       0       0       0       0
  2357 ;;Total ram usage:        0 bytes
  2358 ;; Hardware stack levels used:    1
  2359 ;; Hardware stack levels required when called:    2
  2360 ;; This function calls:
  2361 ;;		_lcd_cmd
  2362 ;; This function is called by:
  2363 ;;		_main
  2364 ;; This function uses a non-reentrant model
  2365 ;;
  2366                           
  2367                           
  2368                           ;psect for function _lcd_init
  2369  0983                     _lcd_init:	
  2370  0983                     l1932:	
  2371                           ;incstack = 0
  2372                           ; Regs used in _lcd_init: [wreg+status,2+status,0+pclath+cstack]
  2373                           
  2374                           
  2375                           ;LCD.c: 66:     lcd_cmd(0x38);
  2376  0983  3038               	movlw	56
  2377  0984  120A  158A  2145  120A  158A  	fcall	_lcd_cmd
  2378                           
  2379                           ;LCD.c: 67:     lcd_cmd(0x0C);
  2380  0989  300C               	movlw	12
  2381  098A  120A  158A  2145  120A  158A  	fcall	_lcd_cmd
  2382                           
  2383                           ;LCD.c: 68:     lcd_cmd(0x01);
  2384  098F  3001               	movlw	1
  2385  0990  120A  158A  2145  120A  158A  	fcall	_lcd_cmd
  2386                           
  2387                           ;LCD.c: 69:     lcd_cmd(0x06);
  2388  0995  3006               	movlw	6
  2389  0996  120A  158A  2145  120A  158A  	fcall	_lcd_cmd
  2390                           
  2391                           ;LCD.c: 70:     lcd_cmd(0x80);
  2392  099B  3080               	movlw	128
  2393  099C  120A  158A  2145  120A  158A  	fcall	_lcd_cmd
  2394  09A1                     l206:	
  2395  09A1  0008               	return
  2396  09A2                     __end_of_lcd_init:	
  2397                           
  2398                           	psect	text4
  2399  0B76                     __ptext4:	
  2400 ;; *************** function _initOsc *****************
  2401 ;; Defined at:
  2402 ;;		line 8 in file "Oscilador.c"
  2403 ;; Parameters:    Size  Location     Type
  2404 ;;  frec            1    wreg     unsigned char 
  2405 ;; Auto vars:     Size  Location     Type
  2406 ;;  frec            1    2[COMMON] unsigned char 
  2407 ;; Return value:  Size  Location     Type
  2408 ;;                  1    wreg      void 
  2409 ;; Registers used:
  2410 ;;		wreg, fsr0l, fsr0h, status,2, status,0
  2411 ;; Tracked objects:
  2412 ;;		On entry : 0/0
  2413 ;;		On exit  : 0/0
  2414 ;;		Unchanged: 0/0
  2415 ;; Data sizes:     COMMON   BANK0   BANK1   BANK3   BANK2
  2416 ;;      Params:         0       0       0       0       0
  2417 ;;      Locals:         1       0       0       0       0
  2418 ;;      Temps:          2       0       0       0       0
  2419 ;;      Totals:         3       0       0       0       0
  2420 ;;Total ram usage:        3 bytes
  2421 ;; Hardware stack levels used:    1
  2422 ;; This function calls:
  2423 ;;		Nothing
  2424 ;; This function is called by:
  2425 ;;		_main
  2426 ;; This function uses a non-reentrant model
  2427 ;;
  2428                           
  2429                           
  2430                           ;psect for function _initOsc
  2431  0B76                     _initOsc:	
  2432                           
  2433                           ;incstack = 0
  2434                           ; Regs used in _initOsc: [wreg-fsr0h+status,2+status,0]
  2435                           ;initOsc@frec stored from wreg
  2436  0B76  00F2               	movwf	initOsc@frec
  2437  0B77                     l1918:	
  2438                           
  2439                           ;Oscilador.c: 9:     switch(frec){
  2440  0B77  2BAE               	goto	l1922
  2441  0B78                     l223:	
  2442                           ;Oscilador.c: 10:         case 0:
  2443                           
  2444                           
  2445                           ;Oscilador.c: 11:             OSCCONbits.IRCF0 = 0;
  2446  0B78  1683               	bsf	3,5	;RP0=1, select bank1
  2447  0B79  1303               	bcf	3,6	;RP1=0, select bank1
  2448  0B7A  120F               	bcf	15,4	;volatile
  2449                           
  2450                           ;Oscilador.c: 12:             OSCCONbits.IRCF1 = 0;
  2451  0B7B  128F               	bcf	15,5	;volatile
  2452                           
  2453                           ;Oscilador.c: 13:             OSCCONbits.IRCF2 = 0;
  2454  0B7C  130F               	bcf	15,6	;volatile
  2455                           
  2456                           ;Oscilador.c: 14:             break;
  2457  0B7D  2BD0               	goto	l224
  2458  0B7E                     l225:	
  2459                           ;Oscilador.c: 15:         case 1:
  2460                           
  2461                           
  2462                           ;Oscilador.c: 16:             OSCCONbits.IRCF0 = 1;
  2463  0B7E  1683               	bsf	3,5	;RP0=1, select bank1
  2464  0B7F  1303               	bcf	3,6	;RP1=0, select bank1
  2465  0B80  160F               	bsf	15,4	;volatile
  2466                           
  2467                           ;Oscilador.c: 17:             OSCCONbits.IRCF1 = 0;
  2468  0B81  128F               	bcf	15,5	;volatile
  2469                           
  2470                           ;Oscilador.c: 18:             OSCCONbits.IRCF2 = 0;
  2471  0B82  130F               	bcf	15,6	;volatile
  2472                           
  2473                           ;Oscilador.c: 19:             break;
  2474  0B83  2BD0               	goto	l224
  2475  0B84                     l226:	
  2476                           ;Oscilador.c: 20:         case 2:
  2477                           
  2478                           
  2479                           ;Oscilador.c: 21:             OSCCONbits.IRCF0 = 0;
  2480  0B84  1683               	bsf	3,5	;RP0=1, select bank1
  2481  0B85  1303               	bcf	3,6	;RP1=0, select bank1
  2482  0B86  120F               	bcf	15,4	;volatile
  2483                           
  2484                           ;Oscilador.c: 22:             OSCCONbits.IRCF1 = 1;
  2485  0B87  168F               	bsf	15,5	;volatile
  2486                           
  2487                           ;Oscilador.c: 23:             OSCCONbits.IRCF2 = 0;
  2488  0B88  130F               	bcf	15,6	;volatile
  2489                           
  2490                           ;Oscilador.c: 24:             break;
  2491  0B89  2BD0               	goto	l224
  2492  0B8A                     l227:	
  2493                           ;Oscilador.c: 25:         case 3:
  2494                           
  2495                           
  2496                           ;Oscilador.c: 26:             OSCCONbits.IRCF0 = 1;
  2497  0B8A  1683               	bsf	3,5	;RP0=1, select bank1
  2498  0B8B  1303               	bcf	3,6	;RP1=0, select bank1
  2499  0B8C  160F               	bsf	15,4	;volatile
  2500                           
  2501                           ;Oscilador.c: 27:             OSCCONbits.IRCF1 = 1;
  2502  0B8D  168F               	bsf	15,5	;volatile
  2503                           
  2504                           ;Oscilador.c: 28:             OSCCONbits.IRCF2 = 0;
  2505  0B8E  130F               	bcf	15,6	;volatile
  2506                           
  2507                           ;Oscilador.c: 29:             break;
  2508  0B8F  2BD0               	goto	l224
  2509  0B90                     l228:	
  2510                           ;Oscilador.c: 30:         case 4:
  2511                           
  2512                           
  2513                           ;Oscilador.c: 31:             OSCCONbits.IRCF0 = 0;
  2514  0B90  1683               	bsf	3,5	;RP0=1, select bank1
  2515  0B91  1303               	bcf	3,6	;RP1=0, select bank1
  2516  0B92  120F               	bcf	15,4	;volatile
  2517                           
  2518                           ;Oscilador.c: 32:             OSCCONbits.IRCF1 = 0;
  2519  0B93  128F               	bcf	15,5	;volatile
  2520                           
  2521                           ;Oscilador.c: 33:             OSCCONbits.IRCF2 = 1;
  2522  0B94  170F               	bsf	15,6	;volatile
  2523                           
  2524                           ;Oscilador.c: 34:             break;
  2525  0B95  2BD0               	goto	l224
  2526  0B96                     l229:	
  2527                           ;Oscilador.c: 35:         case 5:
  2528                           
  2529                           
  2530                           ;Oscilador.c: 36:             OSCCONbits.IRCF0 = 1;
  2531  0B96  1683               	bsf	3,5	;RP0=1, select bank1
  2532  0B97  1303               	bcf	3,6	;RP1=0, select bank1
  2533  0B98  160F               	bsf	15,4	;volatile
  2534                           
  2535                           ;Oscilador.c: 37:             OSCCONbits.IRCF1 = 0;
  2536  0B99  128F               	bcf	15,5	;volatile
  2537                           
  2538                           ;Oscilador.c: 38:             OSCCONbits.IRCF2 = 1;
  2539  0B9A  170F               	bsf	15,6	;volatile
  2540                           
  2541                           ;Oscilador.c: 39:             break;
  2542  0B9B  2BD0               	goto	l224
  2543  0B9C                     l230:	
  2544                           ;Oscilador.c: 40:         case 6:
  2545                           
  2546                           
  2547                           ;Oscilador.c: 41:             OSCCONbits.IRCF0 = 0;
  2548  0B9C  1683               	bsf	3,5	;RP0=1, select bank1
  2549  0B9D  1303               	bcf	3,6	;RP1=0, select bank1
  2550  0B9E  120F               	bcf	15,4	;volatile
  2551                           
  2552                           ;Oscilador.c: 42:             OSCCONbits.IRCF1 = 1;
  2553  0B9F  168F               	bsf	15,5	;volatile
  2554                           
  2555                           ;Oscilador.c: 43:             OSCCONbits.IRCF2 = 1;
  2556  0BA0  170F               	bsf	15,6	;volatile
  2557                           
  2558                           ;Oscilador.c: 44:             break;
  2559  0BA1  2BD0               	goto	l224
  2560  0BA2                     l231:	
  2561                           ;Oscilador.c: 45:         case 7:
  2562                           
  2563                           
  2564                           ;Oscilador.c: 46:             OSCCONbits.IRCF0 = 1;
  2565  0BA2  1683               	bsf	3,5	;RP0=1, select bank1
  2566  0BA3  1303               	bcf	3,6	;RP1=0, select bank1
  2567  0BA4  160F               	bsf	15,4	;volatile
  2568                           
  2569                           ;Oscilador.c: 47:             OSCCONbits.IRCF1 = 1;
  2570  0BA5  168F               	bsf	15,5	;volatile
  2571                           
  2572                           ;Oscilador.c: 48:             OSCCONbits.IRCF2 = 1;
  2573  0BA6  170F               	bsf	15,6	;volatile
  2574                           
  2575                           ;Oscilador.c: 49:             break;
  2576  0BA7  2BD0               	goto	l224
  2577  0BA8                     l232:	
  2578                           ;Oscilador.c: 50:         default:
  2579                           
  2580                           
  2581                           ;Oscilador.c: 51:             OSCCONbits.IRCF0 = 0;
  2582  0BA8  1683               	bsf	3,5	;RP0=1, select bank1
  2583  0BA9  1303               	bcf	3,6	;RP1=0, select bank1
  2584  0BAA  120F               	bcf	15,4	;volatile
  2585                           
  2586                           ;Oscilador.c: 52:             OSCCONbits.IRCF1 = 1;
  2587  0BAB  168F               	bsf	15,5	;volatile
  2588                           
  2589                           ;Oscilador.c: 53:             OSCCONbits.IRCF2 = 1;
  2590  0BAC  170F               	bsf	15,6	;volatile
  2591                           
  2592                           ;Oscilador.c: 54:             break;
  2593  0BAD  2BD0               	goto	l224
  2594  0BAE                     l1922:	
  2595  0BAE  0872               	movf	initOsc@frec,w
  2596  0BAF  00F0               	movwf	??_initOsc
  2597  0BB0  01F1               	clrf	??_initOsc+1
  2598                           
  2599                           ; Switch on 2 bytes has been partitioned into a top level switch of size 1, and 1 sub-sw
      +                          itches
  2600                           ; Switch size 1, requested type "simple"
  2601                           ; Number of cases is 1, Range of values is 0 to 0
  2602                           ; switch strategies available:
  2603                           ; Name         Instructions Cycles
  2604                           ; simple_byte            4     3 (average)
  2605                           ; direct_byte           11     8 (fixed)
  2606                           ; jumptable            260     6 (fixed)
  2607                           ;	Chosen strategy is simple_byte
  2608  0BB1  0871               	movf	??_initOsc+1,w
  2609  0BB2  3A00               	xorlw	0	; case 0
  2610  0BB3  1903               	skipnz
  2611  0BB4  2BB6               	goto	l2746
  2612  0BB5  2BA8               	goto	l232
  2613  0BB6                     l2746:	
  2614                           
  2615                           ; Switch size 1, requested type "simple"
  2616                           ; Number of cases is 8, Range of values is 0 to 7
  2617                           ; switch strategies available:
  2618                           ; Name         Instructions Cycles
  2619                           ; simple_byte           25    13 (average)
  2620                           ; direct_byte           32     8 (fixed)
  2621                           ; jumptable            260     6 (fixed)
  2622                           ;	Chosen strategy is simple_byte
  2623  0BB6  0870               	movf	??_initOsc,w
  2624  0BB7  3A00               	xorlw	0	; case 0
  2625  0BB8  1903               	skipnz
  2626  0BB9  2B78               	goto	l223
  2627  0BBA  3A01               	xorlw	1	; case 1
  2628  0BBB  1903               	skipnz
  2629  0BBC  2B7E               	goto	l225
  2630  0BBD  3A03               	xorlw	3	; case 2
  2631  0BBE  1903               	skipnz
  2632  0BBF  2B84               	goto	l226
  2633  0BC0  3A01               	xorlw	1	; case 3
  2634  0BC1  1903               	skipnz
  2635  0BC2  2B8A               	goto	l227
  2636  0BC3  3A07               	xorlw	7	; case 4
  2637  0BC4  1903               	skipnz
  2638  0BC5  2B90               	goto	l228
  2639  0BC6  3A01               	xorlw	1	; case 5
  2640  0BC7  1903               	skipnz
  2641  0BC8  2B96               	goto	l229
  2642  0BC9  3A03               	xorlw	3	; case 6
  2643  0BCA  1903               	skipnz
  2644  0BCB  2B9C               	goto	l230
  2645  0BCC  3A01               	xorlw	1	; case 7
  2646  0BCD  1903               	skipnz
  2647  0BCE  2BA2               	goto	l231
  2648  0BCF  2BA8               	goto	l232
  2649  0BD0                     l224:	
  2650                           
  2651                           ;Oscilador.c: 57:     OSCCONbits.SCS = 1;
  2652  0BD0  140F               	bsf	15,0	;volatile
  2653  0BD1                     l233:	
  2654  0BD1  0008               	return
  2655  0BD2                     __end_of_initOsc:	
  2656                           
  2657                           	psect	text5
  2658  0969                     __ptext5:	
  2659 ;; *************** function _init *****************
  2660 ;; Defined at:
  2661 ;;		line 272 in file "MASTER_Proyecto.c"
  2662 ;; Parameters:    Size  Location     Type
  2663 ;;		None
  2664 ;; Auto vars:     Size  Location     Type
  2665 ;;		None
  2666 ;; Return value:  Size  Location     Type
  2667 ;;                  1    wreg      void 
  2668 ;; Registers used:
  2669 ;;		wreg, status,2, status,0, pclath, cstack
  2670 ;; Tracked objects:
  2671 ;;		On entry : 0/0
  2672 ;;		On exit  : 0/0
  2673 ;;		Unchanged: 0/0
  2674 ;; Data sizes:     COMMON   BANK0   BANK1   BANK3   BANK2
  2675 ;;      Params:         0       0       0       0       0
  2676 ;;      Locals:         0       0       0       0       0
  2677 ;;      Temps:          0       0       0       0       0
  2678 ;;      Totals:         0       0       0       0       0
  2679 ;;Total ram usage:        0 bytes
  2680 ;; Hardware stack levels used:    1
  2681 ;; Hardware stack levels required when called:    2
  2682 ;; This function calls:
  2683 ;;		_I2C_Master_Init
  2684 ;; This function is called by:
  2685 ;;		_main
  2686 ;; This function uses a non-reentrant model
  2687 ;;
  2688                           
  2689                           
  2690                           ;psect for function _init
  2691  0969                     _init:	
  2692  0969                     l1928:	
  2693                           ;incstack = 0
  2694                           ; Regs used in _init: [wreg+status,2+status,0+pclath+cstack]
  2695                           
  2696                           
  2697                           ;MASTER_Proyecto.c: 273:     TRISA = 0;
  2698  0969  1683               	bsf	3,5	;RP0=1, select bank1
  2699  096A  1303               	bcf	3,6	;RP1=0, select bank1
  2700  096B  0185               	clrf	5	;volatile
  2701                           
  2702                           ;MASTER_Proyecto.c: 274:     TRISB = 0;
  2703  096C  0186               	clrf	6	;volatile
  2704                           
  2705                           ;MASTER_Proyecto.c: 275:     TRISC = 0;
  2706  096D  0187               	clrf	7	;volatile
  2707                           
  2708                           ;MASTER_Proyecto.c: 276:     TRISD = 0;
  2709  096E  0188               	clrf	8	;volatile
  2710                           
  2711                           ;MASTER_Proyecto.c: 277:     ANSEL = 0;
  2712  096F  1683               	bsf	3,5	;RP0=1, select bank3
  2713  0970  1703               	bsf	3,6	;RP1=1, select bank3
  2714  0971  0188               	clrf	8	;volatile
  2715                           
  2716                           ;MASTER_Proyecto.c: 278:     ANSELH = 0;
  2717  0972  0189               	clrf	9	;volatile
  2718  0973                     l1930:	
  2719                           
  2720                           ;MASTER_Proyecto.c: 279:     I2C_Master_Init(100000);
  2721  0973  3000               	movlw	0
  2722  0974  1283               	bcf	3,5	;RP0=0, select bank0
  2723  0975  1303               	bcf	3,6	;RP1=0, select bank0
  2724  0976  00C8               	movwf	I2C_Master_Init@c+3
  2725  0977  3001               	movlw	1
  2726  0978  00C7               	movwf	I2C_Master_Init@c+2
  2727  0979  3086               	movlw	134
  2728  097A  00C6               	movwf	I2C_Master_Init@c+1
  2729  097B  30A0               	movlw	160
  2730  097C  00C5               	movwf	I2C_Master_Init@c
  2731  097D  120A  158A  226C  120A  158A  	fcall	_I2C_Master_Init
  2732  0982                     l101:	
  2733  0982  0008               	return
  2734  0983                     __end_of_init:	
  2735                           
  2736                           	psect	text6
  2737  0A6C                     __ptext6:	
  2738 ;; *************** function _I2C_Master_Init *****************
  2739 ;; Defined at:
  2740 ;;		line 7 in file "I2C.c"
  2741 ;; Parameters:    Size  Location     Type
  2742 ;;  c               4    0[BANK0 ] const unsigned long 
  2743 ;; Auto vars:     Size  Location     Type
  2744 ;;		None
  2745 ;; Return value:  Size  Location     Type
  2746 ;;                  1    wreg      void 
  2747 ;; Registers used:
  2748 ;;		wreg, status,2, status,0, pclath, cstack
  2749 ;; Tracked objects:
  2750 ;;		On entry : 0/0
  2751 ;;		On exit  : 0/0
  2752 ;;		Unchanged: 0/0
  2753 ;; Data sizes:     COMMON   BANK0   BANK1   BANK3   BANK2
  2754 ;;      Params:         0       4       0       0       0
  2755 ;;      Locals:         0       0       0       0       0
  2756 ;;      Temps:          0       4       0       0       0
  2757 ;;      Totals:         0       8       0       0       0
  2758 ;;Total ram usage:        8 bytes
  2759 ;; Hardware stack levels used:    1
  2760 ;; Hardware stack levels required when called:    1
  2761 ;; This function calls:
  2762 ;;		___lldiv
  2763 ;; This function is called by:
  2764 ;;		_init
  2765 ;; This function uses a non-reentrant model
  2766 ;;
  2767                           
  2768                           
  2769                           ;psect for function _I2C_Master_Init
  2770  0A6C                     _I2C_Master_Init:	
  2771  0A6C                     l1888:	
  2772                           ;incstack = 0
  2773                           ; Regs used in _I2C_Master_Init: [wreg+status,2+status,0+pclath+cstack]
  2774                           
  2775                           
  2776                           ;I2C.c: 7: void I2C_Master_Init(const unsigned long c);I2C.c: 8: {;I2C.c: 9:     SSPCON 
      +                          = 0b00101000;
  2777  0A6C  3028               	movlw	40
  2778  0A6D  1283               	bcf	3,5	;RP0=0, select bank0
  2779  0A6E  1303               	bcf	3,6	;RP1=0, select bank0
  2780  0A6F  0094               	movwf	20	;volatile
  2781  0A70                     l1890:	
  2782                           
  2783                           ;I2C.c: 10:     SSPCON2 = 0;
  2784  0A70  1683               	bsf	3,5	;RP0=1, select bank1
  2785  0A71  1303               	bcf	3,6	;RP1=0, select bank1
  2786  0A72  0191               	clrf	17	;volatile
  2787  0A73                     l1892:	
  2788                           
  2789                           ;I2C.c: 11:     SSPADD = (8000000/(4*c))-1;
  2790  0A73  1283               	bcf	3,5	;RP0=0, select bank0
  2791  0A74  1303               	bcf	3,6	;RP1=0, select bank0
  2792  0A75  0845               	movf	I2C_Master_Init@c,w
  2793  0A76  00C9               	movwf	??_I2C_Master_Init
  2794  0A77  0846               	movf	I2C_Master_Init@c+1,w
  2795  0A78  00CA               	movwf	??_I2C_Master_Init+1
  2796  0A79  0847               	movf	I2C_Master_Init@c+2,w
  2797  0A7A  00CB               	movwf	??_I2C_Master_Init+2
  2798  0A7B  0848               	movf	I2C_Master_Init@c+3,w
  2799  0A7C  00CC               	movwf	??_I2C_Master_Init+3
  2800  0A7D  3002               	movlw	2
  2801  0A7E                     u1565:	
  2802  0A7E  1003               	clrc
  2803  0A7F  0DC9               	rlf	??_I2C_Master_Init,f
  2804  0A80  0DCA               	rlf	??_I2C_Master_Init+1,f
  2805  0A81  0DCB               	rlf	??_I2C_Master_Init+2,f
  2806  0A82  0DCC               	rlf	??_I2C_Master_Init+3,f
  2807  0A83                     u1560:	
  2808  0A83  3EFF               	addlw	-1
  2809  0A84  1D03               	skipz
  2810  0A85  2A7E               	goto	u1565
  2811  0A86  084C               	movf	??_I2C_Master_Init+3,w
  2812  0A87  00F3               	movwf	___lldiv@divisor+3
  2813  0A88  084B               	movf	??_I2C_Master_Init+2,w
  2814  0A89  00F2               	movwf	___lldiv@divisor+2
  2815  0A8A  084A               	movf	??_I2C_Master_Init+1,w
  2816  0A8B  00F1               	movwf	___lldiv@divisor+1
  2817  0A8C  0849               	movf	??_I2C_Master_Init,w
  2818  0A8D  00F0               	movwf	___lldiv@divisor
  2819  0A8E  3000               	movlw	0
  2820  0A8F  00F7               	movwf	___lldiv@dividend+3
  2821  0A90  307A               	movlw	122
  2822  0A91  00F6               	movwf	___lldiv@dividend+2
  2823  0A92  3012               	movlw	18
  2824  0A93  00F5               	movwf	___lldiv@dividend+1
  2825  0A94  3000               	movlw	0
  2826  0A95  00F4               	movwf	___lldiv@dividend
  2827  0A96  120A  158A  23D2  120A  158A  	fcall	___lldiv
  2828  0A9B  0870               	movf	?___lldiv,w
  2829  0A9C  3EFF               	addlw	255
  2830  0A9D  1683               	bsf	3,5	;RP0=1, select bank1
  2831  0A9E  1303               	bcf	3,6	;RP1=0, select bank1
  2832  0A9F  0093               	movwf	19	;volatile
  2833  0AA0                     l1894:	
  2834                           
  2835                           ;I2C.c: 12:     SSPSTAT = 0;
  2836  0AA0  0194               	clrf	20	;volatile
  2837  0AA1                     l1896:	
  2838                           
  2839                           ;I2C.c: 13:     TRISCbits.TRISC3 = 1;
  2840  0AA1  1587               	bsf	7,3	;volatile
  2841  0AA2                     l1898:	
  2842                           
  2843                           ;I2C.c: 14:     TRISCbits.TRISC4 = 1;
  2844  0AA2  1607               	bsf	7,4	;volatile
  2845  0AA3                     l145:	
  2846  0AA3  0008               	return
  2847  0AA4                     __end_of_I2C_Master_Init:	
  2848                           
  2849                           	psect	text7
  2850  0BD2                     __ptext7:	
  2851 ;; *************** function ___lldiv *****************
  2852 ;; Defined at:
  2853 ;;		line 5 in file "C:\Program Files (x86)\Microchip\xc8\v2.10\pic\sources\c90\common\__lldiv.c"
  2854 ;; Parameters:    Size  Location     Type
  2855 ;;  divisor         4    0[COMMON] unsigned long 
  2856 ;;  dividend        4    4[COMMON] unsigned long 
  2857 ;; Auto vars:     Size  Location     Type
  2858 ;;  quotient        4    9[COMMON] unsigned long 
  2859 ;;  counter         1   13[COMMON] unsigned char 
  2860 ;; Return value:  Size  Location     Type
  2861 ;;                  4    0[COMMON] unsigned long 
  2862 ;; Registers used:
  2863 ;;		wreg, status,2, status,0
  2864 ;; Tracked objects:
  2865 ;;		On entry : 0/0
  2866 ;;		On exit  : 0/0
  2867 ;;		Unchanged: 0/0
  2868 ;; Data sizes:     COMMON   BANK0   BANK1   BANK3   BANK2
  2869 ;;      Params:         8       0       0       0       0
  2870 ;;      Locals:         5       0       0       0       0
  2871 ;;      Temps:          1       0       0       0       0
  2872 ;;      Totals:        14       0       0       0       0
  2873 ;;Total ram usage:       14 bytes
  2874 ;; Hardware stack levels used:    1
  2875 ;; This function calls:
  2876 ;;		Nothing
  2877 ;; This function is called by:
  2878 ;;		_I2C_Master_Init
  2879 ;; This function uses a non-reentrant model
  2880 ;;
  2881                           
  2882                           
  2883                           ;psect for function ___lldiv
  2884  0BD2                     ___lldiv:	
  2885  0BD2                     l1844:	
  2886                           ;incstack = 0
  2887                           ; Regs used in ___lldiv: [wreg+status,2+status,0]
  2888                           
  2889  0BD2  3000               	movlw	0
  2890  0BD3  00FC               	movwf	___lldiv@quotient+3
  2891  0BD4  3000               	movlw	0
  2892  0BD5  00FB               	movwf	___lldiv@quotient+2
  2893  0BD6  3000               	movlw	0
  2894  0BD7  00FA               	movwf	___lldiv@quotient+1
  2895  0BD8  3000               	movlw	0
  2896  0BD9  00F9               	movwf	___lldiv@quotient
  2897  0BDA  0873               	movf	___lldiv@divisor+3,w
  2898  0BDB  0472               	iorwf	___lldiv@divisor+2,w
  2899  0BDC  0471               	iorwf	___lldiv@divisor+1,w
  2900  0BDD  0470               	iorwf	___lldiv@divisor,w
  2901  0BDE  1903               	skipnz
  2902  0BDF  2BE1               	goto	u1491
  2903  0BE0  2BE2               	goto	u1490
  2904  0BE1                     u1491:	
  2905  0BE1  2C2F               	goto	l1864
  2906  0BE2                     u1490:	
  2907  0BE2                     l1846:	
  2908  0BE2  01FD               	clrf	___lldiv@counter
  2909  0BE3  0AFD               	incf	___lldiv@counter,f
  2910  0BE4  2BF2               	goto	l1850
  2911  0BE5                     l1848:	
  2912  0BE5  3001               	movlw	1
  2913  0BE6  00F8               	movwf	??___lldiv
  2914  0BE7                     u1505:	
  2915  0BE7  1003               	clrc
  2916  0BE8  0DF0               	rlf	___lldiv@divisor,f
  2917  0BE9  0DF1               	rlf	___lldiv@divisor+1,f
  2918  0BEA  0DF2               	rlf	___lldiv@divisor+2,f
  2919  0BEB  0DF3               	rlf	___lldiv@divisor+3,f
  2920  0BEC  0BF8               	decfsz	??___lldiv,f
  2921  0BED  2BE7               	goto	u1505
  2922  0BEE  3001               	movlw	1
  2923  0BEF  00F8               	movwf	??___lldiv
  2924  0BF0  0878               	movf	??___lldiv,w
  2925  0BF1  07FD               	addwf	___lldiv@counter,f
  2926  0BF2                     l1850:	
  2927  0BF2  1FF3               	btfss	___lldiv@divisor+3,7
  2928  0BF3  2BF5               	goto	u1511
  2929  0BF4  2BF6               	goto	u1510
  2930  0BF5                     u1511:	
  2931  0BF5  2BE5               	goto	l1848
  2932  0BF6                     u1510:	
  2933  0BF6                     l1852:	
  2934  0BF6  3001               	movlw	1
  2935  0BF7  00F8               	movwf	??___lldiv
  2936  0BF8                     u1525:	
  2937  0BF8  1003               	clrc
  2938  0BF9  0DF9               	rlf	___lldiv@quotient,f
  2939  0BFA  0DFA               	rlf	___lldiv@quotient+1,f
  2940  0BFB  0DFB               	rlf	___lldiv@quotient+2,f
  2941  0BFC  0DFC               	rlf	___lldiv@quotient+3,f
  2942  0BFD  0BF8               	decfsz	??___lldiv,f
  2943  0BFE  2BF8               	goto	u1525
  2944  0BFF                     l1854:	
  2945  0BFF  0873               	movf	___lldiv@divisor+3,w
  2946  0C00  0277               	subwf	___lldiv@dividend+3,w
  2947  0C01  1D03               	skipz
  2948  0C02  2C0D               	goto	u1535
  2949  0C03  0872               	movf	___lldiv@divisor+2,w
  2950  0C04  0276               	subwf	___lldiv@dividend+2,w
  2951  0C05  1D03               	skipz
  2952  0C06  2C0D               	goto	u1535
  2953  0C07  0871               	movf	___lldiv@divisor+1,w
  2954  0C08  0275               	subwf	___lldiv@dividend+1,w
  2955  0C09  1D03               	skipz
  2956  0C0A  2C0D               	goto	u1535
  2957  0C0B  0870               	movf	___lldiv@divisor,w
  2958  0C0C  0274               	subwf	___lldiv@dividend,w
  2959  0C0D                     u1535:	
  2960  0C0D  1C03               	skipc
  2961  0C0E  2C10               	goto	u1531
  2962  0C0F  2C11               	goto	u1530
  2963  0C10                     u1531:	
  2964  0C10  2C20               	goto	l1860
  2965  0C11                     u1530:	
  2966  0C11                     l1856:	
  2967  0C11  0870               	movf	___lldiv@divisor,w
  2968  0C12  02F4               	subwf	___lldiv@dividend,f
  2969  0C13  0871               	movf	___lldiv@divisor+1,w
  2970  0C14  1C03               	skipc
  2971  0C15  0F71               	incfsz	___lldiv@divisor+1,w
  2972  0C16  02F5               	subwf	___lldiv@dividend+1,f
  2973  0C17  0872               	movf	___lldiv@divisor+2,w
  2974  0C18  1C03               	skipc
  2975  0C19  0F72               	incfsz	___lldiv@divisor+2,w
  2976  0C1A  02F6               	subwf	___lldiv@dividend+2,f
  2977  0C1B  0873               	movf	___lldiv@divisor+3,w
  2978  0C1C  1C03               	skipc
  2979  0C1D  0F73               	incfsz	___lldiv@divisor+3,w
  2980  0C1E  02F7               	subwf	___lldiv@dividend+3,f
  2981  0C1F                     l1858:	
  2982  0C1F  1479               	bsf	___lldiv@quotient,0
  2983  0C20                     l1860:	
  2984  0C20  3001               	movlw	1
  2985  0C21                     u1545:	
  2986  0C21  1003               	clrc
  2987  0C22  0CF3               	rrf	___lldiv@divisor+3,f
  2988  0C23  0CF2               	rrf	___lldiv@divisor+2,f
  2989  0C24  0CF1               	rrf	___lldiv@divisor+1,f
  2990  0C25  0CF0               	rrf	___lldiv@divisor,f
  2991  0C26  3EFF               	addlw	-1
  2992  0C27  1D03               	skipz
  2993  0C28  2C21               	goto	u1545
  2994  0C29                     l1862:	
  2995  0C29  3001               	movlw	1
  2996  0C2A  02FD               	subwf	___lldiv@counter,f
  2997  0C2B  1D03               	btfss	3,2
  2998  0C2C  2C2E               	goto	u1551
  2999  0C2D  2C2F               	goto	u1550
  3000  0C2E                     u1551:	
  3001  0C2E  2BF6               	goto	l1852
  3002  0C2F                     u1550:	
  3003  0C2F                     l1864:	
  3004  0C2F  087C               	movf	___lldiv@quotient+3,w
  3005  0C30  00F3               	movwf	?___lldiv+3
  3006  0C31  087B               	movf	___lldiv@quotient+2,w
  3007  0C32  00F2               	movwf	?___lldiv+2
  3008  0C33  087A               	movf	___lldiv@quotient+1,w
  3009  0C34  00F1               	movwf	?___lldiv+1
  3010  0C35  0879               	movf	___lldiv@quotient,w
  3011  0C36  00F0               	movwf	?___lldiv
  3012  0C37                     l380:	
  3013  0C37  0008               	return
  3014  0C38                     __end_of___lldiv:	
  3015                           
  3016                           	psect	text8
  3017  00C1                     __ptext8:	
  3018 ;; *************** function ___xxtofl *****************
  3019 ;; Defined at:
  3020 ;;		line 10 in file "C:\Program Files (x86)\Microchip\xc8\v2.10\pic\sources\c90\common\xxtofl.c"
  3021 ;; Parameters:    Size  Location     Type
  3022 ;;  sign            1    wreg     unsigned char 
  3023 ;;  val             4    0[COMMON] long 
  3024 ;; Auto vars:     Size  Location     Type
  3025 ;;  sign            1    8[COMMON] unsigned char 
  3026 ;;  arg             4   10[COMMON] unsigned long 
  3027 ;;  exp             1    9[COMMON] unsigned char 
  3028 ;; Return value:  Size  Location     Type
  3029 ;;                  4    0[COMMON] unsigned char 
  3030 ;; Registers used:
  3031 ;;		wreg, status,2, status,0
  3032 ;; Tracked objects:
  3033 ;;		On entry : 0/0
  3034 ;;		On exit  : 0/0
  3035 ;;		Unchanged: 0/0
  3036 ;; Data sizes:     COMMON   BANK0   BANK1   BANK3   BANK2
  3037 ;;      Params:         4       0       0       0       0
  3038 ;;      Locals:         6       0       0       0       0
  3039 ;;      Temps:          4       0       0       0       0
  3040 ;;      Totals:        14       0       0       0       0
  3041 ;;Total ram usage:       14 bytes
  3042 ;; Hardware stack levels used:    1
  3043 ;; This function calls:
  3044 ;;		Nothing
  3045 ;; This function is called by:
  3046 ;;		_main
  3047 ;; This function uses a non-reentrant model
  3048 ;;
  3049                           
  3050                           
  3051                           ;psect for function ___xxtofl
  3052  00C1                     ___xxtofl:	
  3053                           
  3054                           ;incstack = 0
  3055                           ; Regs used in ___xxtofl: [wreg+status,2+status,0]
  3056                           ;___xxtofl@sign stored from wreg
  3057  00C1  00F8               	movwf	___xxtofl@sign
  3058  00C2                     l2484:	
  3059  00C2  0878               	movf	___xxtofl@sign,w
  3060  00C3  1903               	btfsc	3,2
  3061  00C4  28C6               	goto	u2761
  3062  00C5  28C7               	goto	u2760
  3063  00C6                     u2761:	
  3064  00C6  28DB               	goto	l2490
  3065  00C7                     u2760:	
  3066  00C7                     l2486:	
  3067  00C7  1FF3               	btfss	___xxtofl@val+3,7
  3068  00C8  28CA               	goto	u2771
  3069  00C9  28CB               	goto	u2770
  3070  00CA                     u2771:	
  3071  00CA  28DB               	goto	l2490
  3072  00CB                     u2770:	
  3073  00CB                     l2488:	
  3074  00CB  0970               	comf	___xxtofl@val,w
  3075  00CC  00FA               	movwf	___xxtofl@arg
  3076  00CD  0971               	comf	___xxtofl@val+1,w
  3077  00CE  00FB               	movwf	___xxtofl@arg+1
  3078  00CF  0972               	comf	___xxtofl@val+2,w
  3079  00D0  00FC               	movwf	___xxtofl@arg+2
  3080  00D1  0973               	comf	___xxtofl@val+3,w
  3081  00D2  00FD               	movwf	___xxtofl@arg+3
  3082  00D3  0AFA               	incf	___xxtofl@arg,f
  3083  00D4  1903               	skipnz
  3084  00D5  0AFB               	incf	___xxtofl@arg+1,f
  3085  00D6  1903               	skipnz
  3086  00D7  0AFC               	incf	___xxtofl@arg+2,f
  3087  00D8  1903               	skipnz
  3088  00D9  0AFD               	incf	___xxtofl@arg+3,f
  3089  00DA  28E3               	goto	l771
  3090  00DB                     l2490:	
  3091  00DB  0873               	movf	___xxtofl@val+3,w
  3092  00DC  00FD               	movwf	___xxtofl@arg+3
  3093  00DD  0872               	movf	___xxtofl@val+2,w
  3094  00DE  00FC               	movwf	___xxtofl@arg+2
  3095  00DF  0871               	movf	___xxtofl@val+1,w
  3096  00E0  00FB               	movwf	___xxtofl@arg+1
  3097  00E1  0870               	movf	___xxtofl@val,w
  3098  00E2  00FA               	movwf	___xxtofl@arg
  3099  00E3                     l771:	
  3100  00E3  0873               	movf	___xxtofl@val+3,w
  3101  00E4  0472               	iorwf	___xxtofl@val+2,w
  3102  00E5  0471               	iorwf	___xxtofl@val+1,w
  3103  00E6  0470               	iorwf	___xxtofl@val,w
  3104  00E7  1D03               	skipz
  3105  00E8  28EA               	goto	u2781
  3106  00E9  28EB               	goto	u2780
  3107  00EA                     u2781:	
  3108  00EA  28F4               	goto	l2496
  3109  00EB                     u2780:	
  3110  00EB                     l2492:	
  3111  00EB  3000               	movlw	0
  3112  00EC  00F3               	movwf	?___xxtofl+3
  3113  00ED  3000               	movlw	0
  3114  00EE  00F2               	movwf	?___xxtofl+2
  3115  00EF  3000               	movlw	0
  3116  00F0  00F1               	movwf	?___xxtofl+1
  3117  00F1  3000               	movlw	0
  3118  00F2  00F0               	movwf	?___xxtofl
  3119  00F3  297A               	goto	l773
  3120  00F4                     l2496:	
  3121  00F4  3096               	movlw	150
  3122  00F5  00F4               	movwf	??___xxtofl
  3123  00F6  0874               	movf	??___xxtofl,w
  3124  00F7  00F9               	movwf	___xxtofl@exp
  3125  00F8  2906               	goto	l2500
  3126  00F9                     l2498:	
  3127  00F9  3001               	movlw	1
  3128  00FA  00F4               	movwf	??___xxtofl
  3129  00FB  0874               	movf	??___xxtofl,w
  3130  00FC  07F9               	addwf	___xxtofl@exp,f
  3131  00FD  3001               	movlw	1
  3132  00FE                     u2795:	
  3133  00FE  1003               	clrc
  3134  00FF  0CFD               	rrf	___xxtofl@arg+3,f
  3135  0100  0CFC               	rrf	___xxtofl@arg+2,f
  3136  0101  0CFB               	rrf	___xxtofl@arg+1,f
  3137  0102  0CFA               	rrf	___xxtofl@arg,f
  3138  0103  3EFF               	addlw	-1
  3139  0104  1D03               	skipz
  3140  0105  28FE               	goto	u2795
  3141  0106                     l2500:	
  3142  0106  30FE               	movlw	254
  3143  0107  057D               	andwf	___xxtofl@arg+3,w
  3144  0108  1D03               	btfss	3,2
  3145  0109  290B               	goto	u2801
  3146  010A  290C               	goto	u2800
  3147  010B                     u2801:	
  3148  010B  28F9               	goto	l2498
  3149  010C                     u2800:	
  3150  010C  2928               	goto	l777
  3151  010D                     l2502:	
  3152  010D  3001               	movlw	1
  3153  010E  00F4               	movwf	??___xxtofl
  3154  010F  0874               	movf	??___xxtofl,w
  3155  0110  07F9               	addwf	___xxtofl@exp,f
  3156  0111                     l2504:	
  3157  0111  3001               	movlw	1
  3158  0112  07FA               	addwf	___xxtofl@arg,f
  3159  0113  3000               	movlw	0
  3160  0114  1803               	skipnc
  3161  0115  3001               	movlw	1
  3162  0116  07FB               	addwf	___xxtofl@arg+1,f
  3163  0117  3000               	movlw	0
  3164  0118  1803               	skipnc
  3165  0119  3001               	movlw	1
  3166  011A  07FC               	addwf	___xxtofl@arg+2,f
  3167  011B  3000               	movlw	0
  3168  011C  1803               	skipnc
  3169  011D  3001               	movlw	1
  3170  011E  07FD               	addwf	___xxtofl@arg+3,f
  3171  011F                     l2506:	
  3172  011F  3001               	movlw	1
  3173  0120                     u2815:	
  3174  0120  1003               	clrc
  3175  0121  0CFD               	rrf	___xxtofl@arg+3,f
  3176  0122  0CFC               	rrf	___xxtofl@arg+2,f
  3177  0123  0CFB               	rrf	___xxtofl@arg+1,f
  3178  0124  0CFA               	rrf	___xxtofl@arg,f
  3179  0125  3EFF               	addlw	-1
  3180  0126  1D03               	skipz
  3181  0127  2920               	goto	u2815
  3182  0128                     l777:	
  3183  0128  30FF               	movlw	255
  3184  0129  057D               	andwf	___xxtofl@arg+3,w
  3185  012A  1D03               	btfss	3,2
  3186  012B  292D               	goto	u2821
  3187  012C  292E               	goto	u2820
  3188  012D                     u2821:	
  3189  012D  290D               	goto	l2502
  3190  012E                     u2820:	
  3191  012E  293A               	goto	l2510
  3192  012F                     l2508:	
  3193  012F  3001               	movlw	1
  3194  0130  02F9               	subwf	___xxtofl@exp,f
  3195  0131  3001               	movlw	1
  3196  0132  00F4               	movwf	??___xxtofl
  3197  0133                     u2835:	
  3198  0133  1003               	clrc
  3199  0134  0DFA               	rlf	___xxtofl@arg,f
  3200  0135  0DFB               	rlf	___xxtofl@arg+1,f
  3201  0136  0DFC               	rlf	___xxtofl@arg+2,f
  3202  0137  0DFD               	rlf	___xxtofl@arg+3,f
  3203  0138  0BF4               	decfsz	??___xxtofl,f
  3204  0139  2933               	goto	u2835
  3205  013A                     l2510:	
  3206  013A  1BFC               	btfsc	___xxtofl@arg+2,7
  3207  013B  293D               	goto	u2841
  3208  013C  293E               	goto	u2840
  3209  013D                     u2841:	
  3210  013D  2944               	goto	l784
  3211  013E                     u2840:	
  3212  013E                     l2512:	
  3213  013E  3002               	movlw	2
  3214  013F  0279               	subwf	___xxtofl@exp,w
  3215  0140  1803               	skipnc
  3216  0141  2943               	goto	u2851
  3217  0142  2944               	goto	u2850
  3218  0143                     u2851:	
  3219  0143  292F               	goto	l2508
  3220  0144                     u2850:	
  3221  0144                     l784:	
  3222  0144  1879               	btfsc	___xxtofl@exp,0
  3223  0145  2947               	goto	u2861
  3224  0146  2948               	goto	u2860
  3225  0147                     u2861:	
  3226  0147  2950               	goto	l785
  3227  0148                     u2860:	
  3228  0148                     l2514:	
  3229  0148  30FF               	movlw	255
  3230  0149  05FA               	andwf	___xxtofl@arg,f
  3231  014A  30FF               	movlw	255
  3232  014B  05FB               	andwf	___xxtofl@arg+1,f
  3233  014C  307F               	movlw	127
  3234  014D  05FC               	andwf	___xxtofl@arg+2,f
  3235  014E  30FF               	movlw	255
  3236  014F  05FD               	andwf	___xxtofl@arg+3,f
  3237  0150                     l785:	
  3238  0150  1003               	clrc
  3239  0151  0CF9               	rrf	___xxtofl@exp,f
  3240  0152                     l2516:	
  3241  0152  0879               	movf	___xxtofl@exp,w
  3242  0153  00F4               	movwf	??___xxtofl
  3243  0154  01F5               	clrf	??___xxtofl+1
  3244  0155  01F6               	clrf	??___xxtofl+2
  3245  0156  01F7               	clrf	??___xxtofl+3
  3246  0157  3018               	movlw	24
  3247  0158                     u2875:	
  3248  0158  1003               	clrc
  3249  0159  0DF4               	rlf	??___xxtofl,f
  3250  015A  0DF5               	rlf	??___xxtofl+1,f
  3251  015B  0DF6               	rlf	??___xxtofl+2,f
  3252  015C  0DF7               	rlf	??___xxtofl+3,f
  3253  015D                     u2870:	
  3254  015D  3EFF               	addlw	-1
  3255  015E  1D03               	skipz
  3256  015F  2958               	goto	u2875
  3257  0160  0874               	movf	??___xxtofl,w
  3258  0161  04FA               	iorwf	___xxtofl@arg,f
  3259  0162  0875               	movf	??___xxtofl+1,w
  3260  0163  04FB               	iorwf	___xxtofl@arg+1,f
  3261  0164  0876               	movf	??___xxtofl+2,w
  3262  0165  04FC               	iorwf	___xxtofl@arg+2,f
  3263  0166  0877               	movf	??___xxtofl+3,w
  3264  0167  04FD               	iorwf	___xxtofl@arg+3,f
  3265  0168                     l2518:	
  3266  0168  0878               	movf	___xxtofl@sign,w
  3267  0169  1903               	btfsc	3,2
  3268  016A  296C               	goto	u2881
  3269  016B  296D               	goto	u2880
  3270  016C                     u2881:	
  3271  016C  2972               	goto	l2524
  3272  016D                     u2880:	
  3273  016D                     l2520:	
  3274  016D  1FF3               	btfss	___xxtofl@val+3,7
  3275  016E  2970               	goto	u2891
  3276  016F  2971               	goto	u2890
  3277  0170                     u2891:	
  3278  0170  2972               	goto	l2524
  3279  0171                     u2890:	
  3280  0171                     l2522:	
  3281  0171  17FD               	bsf	___xxtofl@arg+3,7
  3282  0172                     l2524:	
  3283  0172  087D               	movf	___xxtofl@arg+3,w
  3284  0173  00F3               	movwf	?___xxtofl+3
  3285  0174  087C               	movf	___xxtofl@arg+2,w
  3286  0175  00F2               	movwf	?___xxtofl+2
  3287  0176  087B               	movf	___xxtofl@arg+1,w
  3288  0177  00F1               	movwf	?___xxtofl+1
  3289  0178  087A               	movf	___xxtofl@arg,w
  3290  0179  00F0               	movwf	?___xxtofl
  3291  017A                     l773:	
  3292  017A  0008               	return
  3293  017B                     __end_of___xxtofl:	
  3294                           
  3295                           	psect	text9
  3296  0AA4                     __ptext9:	
  3297 ;; *************** function ___lwmod *****************
  3298 ;; Defined at:
  3299 ;;		line 5 in file "C:\Program Files (x86)\Microchip\xc8\v2.10\pic\sources\c90\common\lwmod.c"
  3300 ;; Parameters:    Size  Location     Type
  3301 ;;  divisor         2    0[COMMON] unsigned int 
  3302 ;;  dividend        2    2[COMMON] unsigned int 
  3303 ;; Auto vars:     Size  Location     Type
  3304 ;;  counter         1    5[COMMON] unsigned char 
  3305 ;; Return value:  Size  Location     Type
  3306 ;;                  2    0[COMMON] unsigned int 
  3307 ;; Registers used:
  3308 ;;		wreg, status,2, status,0
  3309 ;; Tracked objects:
  3310 ;;		On entry : 0/0
  3311 ;;		On exit  : 0/0
  3312 ;;		Unchanged: 0/0
  3313 ;; Data sizes:     COMMON   BANK0   BANK1   BANK3   BANK2
  3314 ;;      Params:         4       0       0       0       0
  3315 ;;      Locals:         1       0       0       0       0
  3316 ;;      Temps:          1       0       0       0       0
  3317 ;;      Totals:         6       0       0       0       0
  3318 ;;Total ram usage:        6 bytes
  3319 ;; Hardware stack levels used:    1
  3320 ;; This function calls:
  3321 ;;		Nothing
  3322 ;; This function is called by:
  3323 ;;		_main
  3324 ;; This function uses a non-reentrant model
  3325 ;;
  3326                           
  3327                           
  3328                           ;psect for function ___lwmod
  3329  0AA4                     ___lwmod:	
  3330  0AA4                     l2180:	
  3331                           ;incstack = 0
  3332                           ; Regs used in ___lwmod: [wreg+status,2+status,0]
  3333                           
  3334  0AA4  0870               	movf	___lwmod@divisor,w
  3335  0AA5  0471               	iorwf	___lwmod@divisor+1,w
  3336  0AA6  1903               	btfsc	3,2
  3337  0AA7  2AA9               	goto	u2041
  3338  0AA8  2AAA               	goto	u2040
  3339  0AA9                     u2041:	
  3340  0AA9  2AD9               	goto	l2198
  3341  0AAA                     u2040:	
  3342  0AAA                     l2182:	
  3343  0AAA  01F5               	clrf	___lwmod@counter
  3344  0AAB  0AF5               	incf	___lwmod@counter,f
  3345  0AAC  2AB8               	goto	l2188
  3346  0AAD                     l2184:	
  3347  0AAD  3001               	movlw	1
  3348  0AAE                     u2055:	
  3349  0AAE  1003               	clrc
  3350  0AAF  0DF0               	rlf	___lwmod@divisor,f
  3351  0AB0  0DF1               	rlf	___lwmod@divisor+1,f
  3352  0AB1  3EFF               	addlw	-1
  3353  0AB2  1D03               	skipz
  3354  0AB3  2AAE               	goto	u2055
  3355  0AB4                     l2186:	
  3356  0AB4  3001               	movlw	1
  3357  0AB5  00F4               	movwf	??___lwmod
  3358  0AB6  0874               	movf	??___lwmod,w
  3359  0AB7  07F5               	addwf	___lwmod@counter,f
  3360  0AB8                     l2188:	
  3361  0AB8  1FF1               	btfss	___lwmod@divisor+1,7
  3362  0AB9  2ABB               	goto	u2061
  3363  0ABA  2ABC               	goto	u2060
  3364  0ABB                     u2061:	
  3365  0ABB  2AAD               	goto	l2184
  3366  0ABC                     u2060:	
  3367  0ABC                     l2190:	
  3368  0ABC  0871               	movf	___lwmod@divisor+1,w
  3369  0ABD  0273               	subwf	___lwmod@dividend+1,w
  3370  0ABE  1D03               	skipz
  3371  0ABF  2AC2               	goto	u2075
  3372  0AC0  0870               	movf	___lwmod@divisor,w
  3373  0AC1  0272               	subwf	___lwmod@dividend,w
  3374  0AC2                     u2075:	
  3375  0AC2  1C03               	skipc
  3376  0AC3  2AC5               	goto	u2071
  3377  0AC4  2AC6               	goto	u2070
  3378  0AC5                     u2071:	
  3379  0AC5  2ACC               	goto	l2194
  3380  0AC6                     u2070:	
  3381  0AC6                     l2192:	
  3382  0AC6  0870               	movf	___lwmod@divisor,w
  3383  0AC7  02F2               	subwf	___lwmod@dividend,f
  3384  0AC8  0871               	movf	___lwmod@divisor+1,w
  3385  0AC9  1C03               	skipc
  3386  0ACA  03F3               	decf	___lwmod@dividend+1,f
  3387  0ACB  02F3               	subwf	___lwmod@dividend+1,f
  3388  0ACC                     l2194:	
  3389  0ACC  3001               	movlw	1
  3390  0ACD                     u2085:	
  3391  0ACD  1003               	clrc
  3392  0ACE  0CF1               	rrf	___lwmod@divisor+1,f
  3393  0ACF  0CF0               	rrf	___lwmod@divisor,f
  3394  0AD0  3EFF               	addlw	-1
  3395  0AD1  1D03               	skipz
  3396  0AD2  2ACD               	goto	u2085
  3397  0AD3                     l2196:	
  3398  0AD3  3001               	movlw	1
  3399  0AD4  02F5               	subwf	___lwmod@counter,f
  3400  0AD5  1D03               	btfss	3,2
  3401  0AD6  2AD8               	goto	u2091
  3402  0AD7  2AD9               	goto	u2090
  3403  0AD8                     u2091:	
  3404  0AD8  2ABC               	goto	l2190
  3405  0AD9                     u2090:	
  3406  0AD9                     l2198:	
  3407  0AD9  0873               	movf	___lwmod@dividend+1,w
  3408  0ADA  00F1               	movwf	?___lwmod+1
  3409  0ADB  0872               	movf	___lwmod@dividend,w
  3410  0ADC  00F0               	movwf	?___lwmod
  3411  0ADD                     l626:	
  3412  0ADD  0008               	return
  3413  0ADE                     __end_of___lwmod:	
  3414                           
  3415                           	psect	text10
  3416  0003                     __ptext10:	
  3417 ;; *************** function ___lwdiv *****************
  3418 ;; Defined at:
  3419 ;;		line 5 in file "C:\Program Files (x86)\Microchip\xc8\v2.10\pic\sources\c90\common\lwdiv.c"
  3420 ;; Parameters:    Size  Location     Type
  3421 ;;  divisor         2    0[COMMON] unsigned int 
  3422 ;;  dividend        2    2[COMMON] unsigned int 
  3423 ;; Auto vars:     Size  Location     Type
  3424 ;;  quotient        2    5[COMMON] unsigned int 
  3425 ;;  counter         1    7[COMMON] unsigned char 
  3426 ;; Return value:  Size  Location     Type
  3427 ;;                  2    0[COMMON] unsigned int 
  3428 ;; Registers used:
  3429 ;;		wreg, status,2, status,0
  3430 ;; Tracked objects:
  3431 ;;		On entry : 0/0
  3432 ;;		On exit  : 0/0
  3433 ;;		Unchanged: 0/0
  3434 ;; Data sizes:     COMMON   BANK0   BANK1   BANK3   BANK2
  3435 ;;      Params:         4       0       0       0       0
  3436 ;;      Locals:         3       0       0       0       0
  3437 ;;      Temps:          1       0       0       0       0
  3438 ;;      Totals:         8       0       0       0       0
  3439 ;;Total ram usage:        8 bytes
  3440 ;; Hardware stack levels used:    1
  3441 ;; This function calls:
  3442 ;;		Nothing
  3443 ;; This function is called by:
  3444 ;;		_main
  3445 ;; This function uses a non-reentrant model
  3446 ;;
  3447                           
  3448                           
  3449                           ;psect for function ___lwdiv
  3450  0003                     ___lwdiv:	
  3451  0003                     l2154:	
  3452                           ;incstack = 0
  3453                           ; Regs used in ___lwdiv: [wreg+status,2+status,0]
  3454                           
  3455  0003  01F5               	clrf	___lwdiv@quotient
  3456  0004  01F6               	clrf	___lwdiv@quotient+1
  3457  0005                     l2156:	
  3458  0005  0870               	movf	___lwdiv@divisor,w
  3459  0006  0471               	iorwf	___lwdiv@divisor+1,w
  3460  0007  1903               	btfsc	3,2
  3461  0008  280A               	goto	u1971
  3462  0009  280B               	goto	u1970
  3463  000A                     u1971:	
  3464  000A  2842               	goto	l2176
  3465  000B                     u1970:	
  3466  000B                     l2158:	
  3467  000B  01F7               	clrf	___lwdiv@counter
  3468  000C  0AF7               	incf	___lwdiv@counter,f
  3469  000D  2819               	goto	l2164
  3470  000E                     l2160:	
  3471  000E  3001               	movlw	1
  3472  000F                     u1985:	
  3473  000F  1003               	clrc
  3474  0010  0DF0               	rlf	___lwdiv@divisor,f
  3475  0011  0DF1               	rlf	___lwdiv@divisor+1,f
  3476  0012  3EFF               	addlw	-1
  3477  0013  1D03               	skipz
  3478  0014  280F               	goto	u1985
  3479  0015                     l2162:	
  3480  0015  3001               	movlw	1
  3481  0016  00F4               	movwf	??___lwdiv
  3482  0017  0874               	movf	??___lwdiv,w
  3483  0018  07F7               	addwf	___lwdiv@counter,f
  3484  0019                     l2164:	
  3485  0019  1FF1               	btfss	___lwdiv@divisor+1,7
  3486  001A  281C               	goto	u1991
  3487  001B  281D               	goto	u1990
  3488  001C                     u1991:	
  3489  001C  280E               	goto	l2160
  3490  001D                     u1990:	
  3491  001D                     l2166:	
  3492  001D  3001               	movlw	1
  3493  001E                     u2005:	
  3494  001E  1003               	clrc
  3495  001F  0DF5               	rlf	___lwdiv@quotient,f
  3496  0020  0DF6               	rlf	___lwdiv@quotient+1,f
  3497  0021  3EFF               	addlw	-1
  3498  0022  1D03               	skipz
  3499  0023  281E               	goto	u2005
  3500  0024  0871               	movf	___lwdiv@divisor+1,w
  3501  0025  0273               	subwf	___lwdiv@dividend+1,w
  3502  0026  1D03               	skipz
  3503  0027  282A               	goto	u2015
  3504  0028  0870               	movf	___lwdiv@divisor,w
  3505  0029  0272               	subwf	___lwdiv@dividend,w
  3506  002A                     u2015:	
  3507  002A  1C03               	skipc
  3508  002B  282D               	goto	u2011
  3509  002C  282E               	goto	u2010
  3510  002D                     u2011:	
  3511  002D  2835               	goto	l2172
  3512  002E                     u2010:	
  3513  002E                     l2168:	
  3514  002E  0870               	movf	___lwdiv@divisor,w
  3515  002F  02F2               	subwf	___lwdiv@dividend,f
  3516  0030  0871               	movf	___lwdiv@divisor+1,w
  3517  0031  1C03               	skipc
  3518  0032  03F3               	decf	___lwdiv@dividend+1,f
  3519  0033  02F3               	subwf	___lwdiv@dividend+1,f
  3520  0034                     l2170:	
  3521  0034  1475               	bsf	___lwdiv@quotient,0
  3522  0035                     l2172:	
  3523  0035  3001               	movlw	1
  3524  0036                     u2025:	
  3525  0036  1003               	clrc
  3526  0037  0CF1               	rrf	___lwdiv@divisor+1,f
  3527  0038  0CF0               	rrf	___lwdiv@divisor,f
  3528  0039  3EFF               	addlw	-1
  3529  003A  1D03               	skipz
  3530  003B  2836               	goto	u2025
  3531  003C                     l2174:	
  3532  003C  3001               	movlw	1
  3533  003D  02F7               	subwf	___lwdiv@counter,f
  3534  003E  1D03               	btfss	3,2
  3535  003F  2841               	goto	u2031
  3536  0040  2842               	goto	u2030
  3537  0041                     u2031:	
  3538  0041  281D               	goto	l2166
  3539  0042                     u2030:	
  3540  0042                     l2176:	
  3541  0042  0876               	movf	___lwdiv@quotient+1,w
  3542  0043  00F1               	movwf	?___lwdiv+1
  3543  0044  0875               	movf	___lwdiv@quotient,w
  3544  0045  00F0               	movwf	?___lwdiv
  3545  0046                     l616:	
  3546  0046  0008               	return
  3547  0047                     __end_of___lwdiv:	
  3548                           
  3549                           	psect	text11
  3550  0047                     __ptext11:	
  3551 ;; *************** function ___fltol *****************
  3552 ;; Defined at:
  3553 ;;		line 43 in file "C:\Program Files (x86)\Microchip\xc8\v2.10\pic\sources\c90\common\fltol.c"
  3554 ;; Parameters:    Size  Location     Type
  3555 ;;  f1              4    0[COMMON] unsigned int 
  3556 ;; Auto vars:     Size  Location     Type
  3557 ;;  exp1            1   10[COMMON] unsigned char 
  3558 ;;  sign1           1    9[COMMON] unsigned char 
  3559 ;; Return value:  Size  Location     Type
  3560 ;;                  4    0[COMMON] long 
  3561 ;; Registers used:
  3562 ;;		wreg, status,2, status,0
  3563 ;; Tracked objects:
  3564 ;;		On entry : 0/0
  3565 ;;		On exit  : 0/0
  3566 ;;		Unchanged: 0/0
  3567 ;; Data sizes:     COMMON   BANK0   BANK1   BANK3   BANK2
  3568 ;;      Params:         4       0       0       0       0
  3569 ;;      Locals:         2       0       0       0       0
  3570 ;;      Temps:          5       0       0       0       0
  3571 ;;      Totals:        11       0       0       0       0
  3572 ;;Total ram usage:       11 bytes
  3573 ;; Hardware stack levels used:    1
  3574 ;; This function calls:
  3575 ;;		Nothing
  3576 ;; This function is called by:
  3577 ;;		_main
  3578 ;; This function uses a non-reentrant model
  3579 ;;
  3580                           
  3581                           
  3582                           ;psect for function ___fltol
  3583  0047                     ___fltol:	
  3584  0047                     l2118:	
  3585                           ;incstack = 0
  3586                           ; Regs used in ___fltol: [wreg+status,2+status,0]
  3587                           
  3588  0047  1003               	clrc
  3589  0048  0D72               	rlf	___fltol@f1+2,w
  3590  0049  0D73               	rlf	___fltol@f1+3,w
  3591  004A  00F4               	movwf	??___fltol
  3592  004B  0874               	movf	??___fltol,w
  3593  004C  00FA               	movwf	___fltol@exp1
  3594  004D  087A               	movf	___fltol@exp1,w
  3595  004E  1D03               	btfss	3,2
  3596  004F  2851               	goto	u1871
  3597  0050  2852               	goto	u1870
  3598  0051                     u1871:	
  3599  0051  285B               	goto	l2124
  3600  0052                     u1870:	
  3601  0052                     l2120:	
  3602  0052  3000               	movlw	0
  3603  0053  00F3               	movwf	?___fltol+3
  3604  0054  3000               	movlw	0
  3605  0055  00F2               	movwf	?___fltol+2
  3606  0056  3000               	movlw	0
  3607  0057  00F1               	movwf	?___fltol+1
  3608  0058  3000               	movlw	0
  3609  0059  00F0               	movwf	?___fltol
  3610  005A  28C0               	goto	l530
  3611  005B                     l2124:	
  3612  005B  0870               	movf	___fltol@f1,w
  3613  005C  00F4               	movwf	??___fltol
  3614  005D  0871               	movf	___fltol@f1+1,w
  3615  005E  00F5               	movwf	??___fltol+1
  3616  005F  0872               	movf	___fltol@f1+2,w
  3617  0060  00F6               	movwf	??___fltol+2
  3618  0061  0873               	movf	___fltol@f1+3,w
  3619  0062  00F7               	movwf	??___fltol+3
  3620  0063  301F               	movlw	31
  3621  0064                     u1885:	
  3622  0064  1003               	clrc
  3623  0065  0CF7               	rrf	??___fltol+3,f
  3624  0066  0CF6               	rrf	??___fltol+2,f
  3625  0067  0CF5               	rrf	??___fltol+1,f
  3626  0068  0CF4               	rrf	??___fltol,f
  3627  0069                     u1880:	
  3628  0069  3EFF               	addlw	-1
  3629  006A  1D03               	skipz
  3630  006B  2864               	goto	u1885
  3631  006C  0874               	movf	??___fltol,w
  3632  006D  00F8               	movwf	??___fltol+4
  3633  006E  0878               	movf	??___fltol+4,w
  3634  006F  00F9               	movwf	___fltol@sign1
  3635  0070                     l2126:	
  3636  0070  17F2               	bsf	___fltol@f1+2,7
  3637  0071                     l2128:	
  3638  0071  30FF               	movlw	255
  3639  0072  05F0               	andwf	___fltol@f1,f
  3640  0073  30FF               	movlw	255
  3641  0074  05F1               	andwf	___fltol@f1+1,f
  3642  0075  30FF               	movlw	255
  3643  0076  05F2               	andwf	___fltol@f1+2,f
  3644  0077  3000               	movlw	0
  3645  0078  05F3               	andwf	___fltol@f1+3,f
  3646  0079                     l2130:	
  3647  0079  3096               	movlw	150
  3648  007A  02FA               	subwf	___fltol@exp1,f
  3649  007B                     l2132:	
  3650  007B  1FFA               	btfss	___fltol@exp1,7
  3651  007C  287E               	goto	u1891
  3652  007D  287F               	goto	u1890
  3653  007E                     u1891:	
  3654  007E  2899               	goto	l2142
  3655  007F                     u1890:	
  3656  007F                     l2134:	
  3657  007F  087A               	movf	___fltol@exp1,w
  3658  0080  3A80               	xorlw	128
  3659  0081  3E97               	addlw	151
  3660  0082  1803               	skipnc
  3661  0083  2885               	goto	u1901
  3662  0084  2886               	goto	u1900
  3663  0085                     u1901:	
  3664  0085  2887               	goto	l2140
  3665  0086                     u1900:	
  3666  0086  2852               	goto	l2120
  3667  0087                     l2140:	
  3668  0087  3001               	movlw	1
  3669  0088                     u1915:	
  3670  0088  1003               	clrc
  3671  0089  0CF3               	rrf	___fltol@f1+3,f
  3672  008A  0CF2               	rrf	___fltol@f1+2,f
  3673  008B  0CF1               	rrf	___fltol@f1+1,f
  3674  008C  0CF0               	rrf	___fltol@f1,f
  3675  008D  3EFF               	addlw	-1
  3676  008E  1D03               	skipz
  3677  008F  2888               	goto	u1915
  3678  0090  3001               	movlw	1
  3679  0091  00F4               	movwf	??___fltol
  3680  0092  0874               	movf	??___fltol,w
  3681  0093  07FA               	addwf	___fltol@exp1,f
  3682  0094  1D03               	btfss	3,2
  3683  0095  2897               	goto	u1921
  3684  0096  2898               	goto	u1920
  3685  0097                     u1921:	
  3686  0097  2887               	goto	l2140
  3687  0098                     u1920:	
  3688  0098  28B0               	goto	l2150
  3689  0099                     l2142:	
  3690  0099  3020               	movlw	32
  3691  009A  027A               	subwf	___fltol@exp1,w
  3692  009B  1C03               	skipc
  3693  009C  289E               	goto	u1931
  3694  009D  289F               	goto	u1930
  3695  009E                     u1931:	
  3696  009E  28AB               	goto	l537
  3697  009F                     u1930:	
  3698  009F  2852               	goto	l2120
  3699  00A0                     l2148:	
  3700  00A0  3001               	movlw	1
  3701  00A1  00F4               	movwf	??___fltol
  3702  00A2                     u1945:	
  3703  00A2  1003               	clrc
  3704  00A3  0DF0               	rlf	___fltol@f1,f
  3705  00A4  0DF1               	rlf	___fltol@f1+1,f
  3706  00A5  0DF2               	rlf	___fltol@f1+2,f
  3707  00A6  0DF3               	rlf	___fltol@f1+3,f
  3708  00A7  0BF4               	decfsz	??___fltol,f
  3709  00A8  28A2               	goto	u1945
  3710  00A9  3001               	movlw	1
  3711  00AA  02FA               	subwf	___fltol@exp1,f
  3712  00AB                     l537:	
  3713  00AB  087A               	movf	___fltol@exp1,w
  3714  00AC  1D03               	btfss	3,2
  3715  00AD  28AF               	goto	u1951
  3716  00AE  28B0               	goto	u1950
  3717  00AF                     u1951:	
  3718  00AF  28A0               	goto	l2148
  3719  00B0                     u1950:	
  3720  00B0                     l2150:	
  3721  00B0  0879               	movf	___fltol@sign1,w
  3722  00B1  1903               	btfsc	3,2
  3723  00B2  28B4               	goto	u1961
  3724  00B3  28B5               	goto	u1960
  3725  00B4                     u1961:	
  3726  00B4  28C0               	goto	l540
  3727  00B5                     u1960:	
  3728  00B5                     l2152:	
  3729  00B5  09F0               	comf	___fltol@f1,f
  3730  00B6  09F1               	comf	___fltol@f1+1,f
  3731  00B7  09F2               	comf	___fltol@f1+2,f
  3732  00B8  09F3               	comf	___fltol@f1+3,f
  3733  00B9  0AF0               	incf	___fltol@f1,f
  3734  00BA  1903               	skipnz
  3735  00BB  0AF1               	incf	___fltol@f1+1,f
  3736  00BC  1903               	skipnz
  3737  00BD  0AF2               	incf	___fltol@f1+2,f
  3738  00BE  1903               	skipnz
  3739  00BF  0AF3               	incf	___fltol@f1+3,f
  3740  00C0                     l540:	
  3741  00C0                     l530:	
  3742  00C0  0008               	return
  3743  00C1                     __end_of___fltol:	
  3744                           
  3745                           	psect	text12
  3746  0C9F                     __ptext12:	
  3747 ;; *************** function ___flmul *****************
  3748 ;; Defined at:
  3749 ;;		line 8 in file "C:\Program Files (x86)\Microchip\xc8\v2.10\pic\sources\c90\common\sprcmul.c"
  3750 ;; Parameters:    Size  Location     Type
  3751 ;;  b               4    0[BANK0 ] long 
  3752 ;;  a               4    4[BANK0 ] long 
  3753 ;; Auto vars:     Size  Location     Type
  3754 ;;  prod            4   15[BANK0 ] struct .
  3755 ;;  grs             4    9[BANK0 ] unsigned long 
  3756 ;;  temp            2   19[BANK0 ] struct .
  3757 ;;  bexp            1   14[BANK0 ] unsigned char 
  3758 ;;  aexp            1   13[BANK0 ] unsigned char 
  3759 ;;  sign            1    8[BANK0 ] unsigned char 
  3760 ;; Return value:  Size  Location     Type
  3761 ;;                  4    0[BANK0 ] unsigned char 
  3762 ;; Registers used:
  3763 ;;		wreg, status,2, status,0, btemp+1, pclath, cstack
  3764 ;; Tracked objects:
  3765 ;;		On entry : 0/0
  3766 ;;		On exit  : 0/0
  3767 ;;		Unchanged: 0/0
  3768 ;; Data sizes:     COMMON   BANK0   BANK1   BANK3   BANK2
  3769 ;;      Params:         0       8       0       0       0
  3770 ;;      Locals:         0      13       0       0       0
  3771 ;;      Temps:          5       0       0       0       0
  3772 ;;      Totals:         5      21       0       0       0
  3773 ;;Total ram usage:       26 bytes
  3774 ;; Hardware stack levels used:    1
  3775 ;; Hardware stack levels required when called:    1
  3776 ;; This function calls:
  3777 ;;		__Umul8_16
  3778 ;; This function is called by:
  3779 ;;		_main
  3780 ;; This function uses a non-reentrant model
  3781 ;;
  3782                           
  3783                           
  3784                           ;psect for function ___flmul
  3785  0C9F                     ___flmul:	
  3786  0C9F                     l2344:	
  3787                           ;incstack = 0
  3788                           ; Regs used in ___flmul: [wreg+status,2+status,0+btemp+1+pclath+cstack]
  3789                           
  3790  0C9F  1283               	bcf	3,5	;RP0=0, select bank0
  3791  0CA0  1303               	bcf	3,6	;RP1=0, select bank0
  3792  0CA1  0848               	movf	___flmul@b+3,w
  3793  0CA2  3980               	andlw	128
  3794  0CA3  00F9               	movwf	??___flmul
  3795  0CA4  0879               	movf	??___flmul,w
  3796  0CA5  00CD               	movwf	___flmul@sign
  3797  0CA6                     l2346:	
  3798  0CA6  0848               	movf	___flmul@b+3,w
  3799  0CA7  00F9               	movwf	??___flmul
  3800  0CA8  0779               	addwf	??___flmul,w
  3801  0CA9  00FA               	movwf	??___flmul+1
  3802  0CAA  087A               	movf	??___flmul+1,w
  3803  0CAB  00D3               	movwf	___flmul@bexp
  3804  0CAC                     l2348:	
  3805  0CAC  1FC7               	btfss	___flmul@b+2,7
  3806  0CAD  2CAF               	goto	u2391
  3807  0CAE  2CB0               	goto	u2390
  3808  0CAF                     u2391:	
  3809  0CAF  2CB1               	goto	l2352
  3810  0CB0                     u2390:	
  3811  0CB0                     l2350:	
  3812  0CB0  1453               	bsf	___flmul@bexp,0
  3813  0CB1                     l2352:	
  3814  0CB1  0853               	movf	___flmul@bexp,w
  3815  0CB2  1903               	btfsc	3,2
  3816  0CB3  2CB5               	goto	u2401
  3817  0CB4  2CB6               	goto	u2400
  3818  0CB5                     u2401:	
  3819  0CB5  2CC5               	goto	l2360
  3820  0CB6                     u2400:	
  3821  0CB6                     l2354:	
  3822  0CB6  0A53               	incf	___flmul@bexp,w
  3823  0CB7  1D03               	btfss	3,2
  3824  0CB8  2CBA               	goto	u2411
  3825  0CB9  2CBB               	goto	u2410
  3826  0CBA                     u2411:	
  3827  0CBA  2CC3               	goto	l2358
  3828  0CBB                     u2410:	
  3829  0CBB                     l2356:	
  3830  0CBB  3000               	movlw	0
  3831  0CBC  00C8               	movwf	___flmul@b+3
  3832  0CBD  3000               	movlw	0
  3833  0CBE  00C7               	movwf	___flmul@b+2
  3834  0CBF  3000               	movlw	0
  3835  0CC0  00C6               	movwf	___flmul@b+1
  3836  0CC1  3000               	movlw	0
  3837  0CC2  00C5               	movwf	___flmul@b
  3838  0CC3                     l2358:	
  3839  0CC3  17C7               	bsf	___flmul@b+2,7
  3840  0CC4  2CCD               	goto	l2362
  3841  0CC5                     l2360:	
  3842  0CC5  3000               	movlw	0
  3843  0CC6  00C8               	movwf	___flmul@b+3
  3844  0CC7  3000               	movlw	0
  3845  0CC8  00C7               	movwf	___flmul@b+2
  3846  0CC9  3000               	movlw	0
  3847  0CCA  00C6               	movwf	___flmul@b+1
  3848  0CCB  3000               	movlw	0
  3849  0CCC  00C5               	movwf	___flmul@b
  3850  0CCD                     l2362:	
  3851  0CCD  084C               	movf	___flmul@a+3,w
  3852  0CCE  3980               	andlw	128
  3853  0CCF  00F9               	movwf	??___flmul
  3854  0CD0  0879               	movf	??___flmul,w
  3855  0CD1  06CD               	xorwf	___flmul@sign,f
  3856  0CD2                     l2364:	
  3857  0CD2  084C               	movf	___flmul@a+3,w
  3858  0CD3  00F9               	movwf	??___flmul
  3859  0CD4  0779               	addwf	??___flmul,w
  3860  0CD5  00FA               	movwf	??___flmul+1
  3861  0CD6  087A               	movf	??___flmul+1,w
  3862  0CD7  00D2               	movwf	___flmul@aexp
  3863  0CD8                     l2366:	
  3864  0CD8  1FCB               	btfss	___flmul@a+2,7
  3865  0CD9  2CDB               	goto	u2421
  3866  0CDA  2CDC               	goto	u2420
  3867  0CDB                     u2421:	
  3868  0CDB  2CDD               	goto	l2370
  3869  0CDC                     u2420:	
  3870  0CDC                     l2368:	
  3871  0CDC  1452               	bsf	___flmul@aexp,0
  3872  0CDD                     l2370:	
  3873  0CDD  0852               	movf	___flmul@aexp,w
  3874  0CDE  1903               	btfsc	3,2
  3875  0CDF  2CE1               	goto	u2431
  3876  0CE0  2CE2               	goto	u2430
  3877  0CE1                     u2431:	
  3878  0CE1  2CF1               	goto	l2378
  3879  0CE2                     u2430:	
  3880  0CE2                     l2372:	
  3881  0CE2  0A52               	incf	___flmul@aexp,w
  3882  0CE3  1D03               	btfss	3,2
  3883  0CE4  2CE6               	goto	u2441
  3884  0CE5  2CE7               	goto	u2440
  3885  0CE6                     u2441:	
  3886  0CE6  2CEF               	goto	l2376
  3887  0CE7                     u2440:	
  3888  0CE7                     l2374:	
  3889  0CE7  3000               	movlw	0
  3890  0CE8  00CC               	movwf	___flmul@a+3
  3891  0CE9  3000               	movlw	0
  3892  0CEA  00CB               	movwf	___flmul@a+2
  3893  0CEB  3000               	movlw	0
  3894  0CEC  00CA               	movwf	___flmul@a+1
  3895  0CED  3000               	movlw	0
  3896  0CEE  00C9               	movwf	___flmul@a
  3897  0CEF                     l2376:	
  3898  0CEF  17CB               	bsf	___flmul@a+2,7
  3899  0CF0  2CF9               	goto	l2380
  3900  0CF1                     l2378:	
  3901  0CF1  3000               	movlw	0
  3902  0CF2  00CC               	movwf	___flmul@a+3
  3903  0CF3  3000               	movlw	0
  3904  0CF4  00CB               	movwf	___flmul@a+2
  3905  0CF5  3000               	movlw	0
  3906  0CF6  00CA               	movwf	___flmul@a+1
  3907  0CF7  3000               	movlw	0
  3908  0CF8  00C9               	movwf	___flmul@a
  3909  0CF9                     l2380:	
  3910  0CF9  0852               	movf	___flmul@aexp,w
  3911  0CFA  1903               	btfsc	3,2
  3912  0CFB  2CFD               	goto	u2451
  3913  0CFC  2CFE               	goto	u2450
  3914  0CFD                     u2451:	
  3915  0CFD  2D03               	goto	l2384
  3916  0CFE                     u2450:	
  3917  0CFE                     l2382:	
  3918  0CFE  0853               	movf	___flmul@bexp,w
  3919  0CFF  1D03               	btfss	3,2
  3920  0D00  2D02               	goto	u2461
  3921  0D01  2D03               	goto	u2460
  3922  0D02                     u2461:	
  3923  0D02  2D0C               	goto	l2388
  3924  0D03                     u2460:	
  3925  0D03                     l2384:	
  3926  0D03  3000               	movlw	0
  3927  0D04  00C8               	movwf	?___flmul+3
  3928  0D05  3000               	movlw	0
  3929  0D06  00C7               	movwf	?___flmul+2
  3930  0D07  3000               	movlw	0
  3931  0D08  00C6               	movwf	?___flmul+1
  3932  0D09  3000               	movlw	0
  3933  0D0A  00C5               	movwf	?___flmul
  3934  0D0B  2FFF               	goto	l733
  3935  0D0C                     l2388:	
  3936  0D0C  0845               	movf	___flmul@b,w
  3937  0D0D  00F9               	movwf	??___flmul
  3938  0D0E  0879               	movf	??___flmul,w
  3939  0D0F  00F0               	movwf	__Umul8_16@multiplicand
  3940  0D10  084B               	movf	___flmul@a+2,w
  3941  0D11  120A  158A  21C1  120A  158A  	fcall	__Umul8_16
  3942  0D16  0871               	movf	?__Umul8_16+1,w
  3943  0D17  1283               	bcf	3,5	;RP0=0, select bank0
  3944  0D18  1303               	bcf	3,6	;RP1=0, select bank0
  3945  0D19  00D9               	movwf	___flmul@temp+1
  3946  0D1A  0870               	movf	?__Umul8_16,w
  3947  0D1B  00D8               	movwf	___flmul@temp
  3948  0D1C                     l2390:	
  3949  0D1C  0858               	movf	___flmul@temp,w
  3950  0D1D  00F9               	movwf	??___flmul
  3951  0D1E  01FA               	clrf	??___flmul+1
  3952  0D1F  01FB               	clrf	??___flmul+2
  3953  0D20  01FC               	clrf	??___flmul+3
  3954  0D21  087C               	movf	??___flmul+3,w
  3955  0D22  00D1               	movwf	___flmul@grs+3
  3956  0D23  087B               	movf	??___flmul+2,w
  3957  0D24  00D0               	movwf	___flmul@grs+2
  3958  0D25  087A               	movf	??___flmul+1,w
  3959  0D26  00CF               	movwf	___flmul@grs+1
  3960  0D27  0879               	movf	??___flmul,w
  3961  0D28  00CE               	movwf	___flmul@grs
  3962  0D29                     l2392:	
  3963  0D29  0859               	movf	___flmul@temp+1,w
  3964  0D2A  00F9               	movwf	??___flmul
  3965  0D2B  01FA               	clrf	??___flmul+1
  3966  0D2C  01FB               	clrf	??___flmul+2
  3967  0D2D  01FC               	clrf	??___flmul+3
  3968  0D2E  087C               	movf	??___flmul+3,w
  3969  0D2F  00D7               	movwf	___flmul@prod+3
  3970  0D30  087B               	movf	??___flmul+2,w
  3971  0D31  00D6               	movwf	___flmul@prod+2
  3972  0D32  087A               	movf	??___flmul+1,w
  3973  0D33  00D5               	movwf	___flmul@prod+1
  3974  0D34  0879               	movf	??___flmul,w
  3975  0D35  00D4               	movwf	___flmul@prod
  3976  0D36  0846               	movf	___flmul@b+1,w
  3977  0D37  00F9               	movwf	??___flmul
  3978  0D38  0879               	movf	??___flmul,w
  3979  0D39  00F0               	movwf	__Umul8_16@multiplicand
  3980  0D3A  084A               	movf	___flmul@a+1,w
  3981  0D3B  120A  158A  21C1  120A  158A  	fcall	__Umul8_16
  3982  0D40  0871               	movf	?__Umul8_16+1,w
  3983  0D41  1283               	bcf	3,5	;RP0=0, select bank0
  3984  0D42  1303               	bcf	3,6	;RP1=0, select bank0
  3985  0D43  00D9               	movwf	___flmul@temp+1
  3986  0D44  0870               	movf	?__Umul8_16,w
  3987  0D45  00D8               	movwf	___flmul@temp
  3988  0D46                     l2394:	
  3989  0D46  0858               	movf	___flmul@temp,w
  3990  0D47  00F9               	movwf	??___flmul
  3991  0D48  01FA               	clrf	??___flmul+1
  3992  0D49  01FB               	clrf	??___flmul+2
  3993  0D4A  01FC               	clrf	??___flmul+3
  3994  0D4B  0879               	movf	??___flmul,w
  3995  0D4C  07CE               	addwf	___flmul@grs,f
  3996  0D4D  087A               	movf	??___flmul+1,w
  3997  0D4E  1103               	clrz
  3998  0D4F  1803               	skipnc
  3999  0D50  3E01               	addlw	1
  4000  0D51  1903               	skipnz
  4001  0D52  2D54               	goto	u2471
  4002  0D53  07CF               	addwf	___flmul@grs+1,f
  4003  0D54                     u2471:	
  4004  0D54  087B               	movf	??___flmul+2,w
  4005  0D55  1103               	clrz
  4006  0D56  1803               	skipnc
  4007  0D57  3E01               	addlw	1
  4008  0D58  1903               	skipnz
  4009  0D59  2D5B               	goto	u2472
  4010  0D5A  07D0               	addwf	___flmul@grs+2,f
  4011  0D5B                     u2472:	
  4012  0D5B  087C               	movf	??___flmul+3,w
  4013  0D5C  1103               	clrz
  4014  0D5D  1803               	skipnc
  4015  0D5E  3E01               	addlw	1
  4016  0D5F  1903               	skipnz
  4017  0D60  2D62               	goto	u2473
  4018  0D61  07D1               	addwf	___flmul@grs+3,f
  4019  0D62                     u2473:	
  4020  0D62                     l2396:	
  4021  0D62  0859               	movf	___flmul@temp+1,w
  4022  0D63  00F9               	movwf	??___flmul
  4023  0D64  01FA               	clrf	??___flmul+1
  4024  0D65  01FB               	clrf	??___flmul+2
  4025  0D66  01FC               	clrf	??___flmul+3
  4026  0D67  0879               	movf	??___flmul,w
  4027  0D68  07D4               	addwf	___flmul@prod,f
  4028  0D69  087A               	movf	??___flmul+1,w
  4029  0D6A  1103               	clrz
  4030  0D6B  1803               	skipnc
  4031  0D6C  3E01               	addlw	1
  4032  0D6D  1903               	skipnz
  4033  0D6E  2D70               	goto	u2481
  4034  0D6F  07D5               	addwf	___flmul@prod+1,f
  4035  0D70                     u2481:	
  4036  0D70  087B               	movf	??___flmul+2,w
  4037  0D71  1103               	clrz
  4038  0D72  1803               	skipnc
  4039  0D73  3E01               	addlw	1
  4040  0D74  1903               	skipnz
  4041  0D75  2D77               	goto	u2482
  4042  0D76  07D6               	addwf	___flmul@prod+2,f
  4043  0D77                     u2482:	
  4044  0D77  087C               	movf	??___flmul+3,w
  4045  0D78  1103               	clrz
  4046  0D79  1803               	skipnc
  4047  0D7A  3E01               	addlw	1
  4048  0D7B  1903               	skipnz
  4049  0D7C  2D7E               	goto	u2483
  4050  0D7D  07D7               	addwf	___flmul@prod+3,f
  4051  0D7E                     u2483:	
  4052  0D7E  0847               	movf	___flmul@b+2,w
  4053  0D7F  00F9               	movwf	??___flmul
  4054  0D80  0879               	movf	??___flmul,w
  4055  0D81  00F0               	movwf	__Umul8_16@multiplicand
  4056  0D82  0849               	movf	___flmul@a,w
  4057  0D83  120A  158A  21C1  120A  158A  	fcall	__Umul8_16
  4058  0D88  0871               	movf	?__Umul8_16+1,w
  4059  0D89  1283               	bcf	3,5	;RP0=0, select bank0
  4060  0D8A  1303               	bcf	3,6	;RP1=0, select bank0
  4061  0D8B  00D9               	movwf	___flmul@temp+1
  4062  0D8C  0870               	movf	?__Umul8_16,w
  4063  0D8D  00D8               	movwf	___flmul@temp
  4064  0D8E                     l2398:	
  4065  0D8E  0858               	movf	___flmul@temp,w
  4066  0D8F  00F9               	movwf	??___flmul
  4067  0D90  01FA               	clrf	??___flmul+1
  4068  0D91  01FB               	clrf	??___flmul+2
  4069  0D92  01FC               	clrf	??___flmul+3
  4070  0D93  0879               	movf	??___flmul,w
  4071  0D94  07CE               	addwf	___flmul@grs,f
  4072  0D95  087A               	movf	??___flmul+1,w
  4073  0D96  1103               	clrz
  4074  0D97  1803               	skipnc
  4075  0D98  3E01               	addlw	1
  4076  0D99  1903               	skipnz
  4077  0D9A  2D9C               	goto	u2491
  4078  0D9B  07CF               	addwf	___flmul@grs+1,f
  4079  0D9C                     u2491:	
  4080  0D9C  087B               	movf	??___flmul+2,w
  4081  0D9D  1103               	clrz
  4082  0D9E  1803               	skipnc
  4083  0D9F  3E01               	addlw	1
  4084  0DA0  1903               	skipnz
  4085  0DA1  2DA3               	goto	u2492
  4086  0DA2  07D0               	addwf	___flmul@grs+2,f
  4087  0DA3                     u2492:	
  4088  0DA3  087C               	movf	??___flmul+3,w
  4089  0DA4  1103               	clrz
  4090  0DA5  1803               	skipnc
  4091  0DA6  3E01               	addlw	1
  4092  0DA7  1903               	skipnz
  4093  0DA8  2DAA               	goto	u2493
  4094  0DA9  07D1               	addwf	___flmul@grs+3,f
  4095  0DAA                     u2493:	
  4096  0DAA                     l2400:	
  4097  0DAA  0859               	movf	___flmul@temp+1,w
  4098  0DAB  00F9               	movwf	??___flmul
  4099  0DAC  01FA               	clrf	??___flmul+1
  4100  0DAD  01FB               	clrf	??___flmul+2
  4101  0DAE  01FC               	clrf	??___flmul+3
  4102  0DAF  0879               	movf	??___flmul,w
  4103  0DB0  07D4               	addwf	___flmul@prod,f
  4104  0DB1  087A               	movf	??___flmul+1,w
  4105  0DB2  1103               	clrz
  4106  0DB3  1803               	skipnc
  4107  0DB4  3E01               	addlw	1
  4108  0DB5  1903               	skipnz
  4109  0DB6  2DB8               	goto	u2501
  4110  0DB7  07D5               	addwf	___flmul@prod+1,f
  4111  0DB8                     u2501:	
  4112  0DB8  087B               	movf	??___flmul+2,w
  4113  0DB9  1103               	clrz
  4114  0DBA  1803               	skipnc
  4115  0DBB  3E01               	addlw	1
  4116  0DBC  1903               	skipnz
  4117  0DBD  2DBF               	goto	u2502
  4118  0DBE  07D6               	addwf	___flmul@prod+2,f
  4119  0DBF                     u2502:	
  4120  0DBF  087C               	movf	??___flmul+3,w
  4121  0DC0  1103               	clrz
  4122  0DC1  1803               	skipnc
  4123  0DC2  3E01               	addlw	1
  4124  0DC3  1903               	skipnz
  4125  0DC4  2DC6               	goto	u2503
  4126  0DC5  07D7               	addwf	___flmul@prod+3,f
  4127  0DC6                     u2503:	
  4128  0DC6                     l2402:	
  4129  0DC6  3008               	movlw	8
  4130  0DC7  00F9               	movwf	??___flmul
  4131  0DC8                     u2515:	
  4132  0DC8  1003               	clrc
  4133  0DC9  0DCE               	rlf	___flmul@grs,f
  4134  0DCA  0DCF               	rlf	___flmul@grs+1,f
  4135  0DCB  0DD0               	rlf	___flmul@grs+2,f
  4136  0DCC  0DD1               	rlf	___flmul@grs+3,f
  4137  0DCD  0BF9               	decfsz	??___flmul,f
  4138  0DCE  2DC8               	goto	u2515
  4139  0DCF                     l2404:	
  4140  0DCF  0846               	movf	___flmul@b+1,w
  4141  0DD0  00F9               	movwf	??___flmul
  4142  0DD1  0879               	movf	??___flmul,w
  4143  0DD2  00F0               	movwf	__Umul8_16@multiplicand
  4144  0DD3  0849               	movf	___flmul@a,w
  4145  0DD4  120A  158A  21C1  120A  158A  	fcall	__Umul8_16
  4146  0DD9  0871               	movf	?__Umul8_16+1,w
  4147  0DDA  1283               	bcf	3,5	;RP0=0, select bank0
  4148  0DDB  1303               	bcf	3,6	;RP1=0, select bank0
  4149  0DDC  00D9               	movwf	___flmul@temp+1
  4150  0DDD  0870               	movf	?__Umul8_16,w
  4151  0DDE  00D8               	movwf	___flmul@temp
  4152  0DDF                     l2406:	
  4153  0DDF  0858               	movf	___flmul@temp,w
  4154  0DE0  00F9               	movwf	??___flmul
  4155  0DE1  0859               	movf	___flmul@temp+1,w
  4156  0DE2  00FA               	movwf	??___flmul+1
  4157  0DE3  01FB               	clrf	??___flmul+2
  4158  0DE4  01FC               	clrf	??___flmul+3
  4159  0DE5  0879               	movf	??___flmul,w
  4160  0DE6  07CE               	addwf	___flmul@grs,f
  4161  0DE7  087A               	movf	??___flmul+1,w
  4162  0DE8  1103               	clrz
  4163  0DE9  1803               	skipnc
  4164  0DEA  3E01               	addlw	1
  4165  0DEB  1903               	skipnz
  4166  0DEC  2DEE               	goto	u2521
  4167  0DED  07CF               	addwf	___flmul@grs+1,f
  4168  0DEE                     u2521:	
  4169  0DEE  087B               	movf	??___flmul+2,w
  4170  0DEF  1103               	clrz
  4171  0DF0  1803               	skipnc
  4172  0DF1  3E01               	addlw	1
  4173  0DF2  1903               	skipnz
  4174  0DF3  2DF5               	goto	u2522
  4175  0DF4  07D0               	addwf	___flmul@grs+2,f
  4176  0DF5                     u2522:	
  4177  0DF5  087C               	movf	??___flmul+3,w
  4178  0DF6  1103               	clrz
  4179  0DF7  1803               	skipnc
  4180  0DF8  3E01               	addlw	1
  4181  0DF9  1903               	skipnz
  4182  0DFA  2DFC               	goto	u2523
  4183  0DFB  07D1               	addwf	___flmul@grs+3,f
  4184  0DFC                     u2523:	
  4185  0DFC                     l2408:	
  4186  0DFC  0845               	movf	___flmul@b,w
  4187  0DFD  00F9               	movwf	??___flmul
  4188  0DFE  0879               	movf	??___flmul,w
  4189  0DFF  00F0               	movwf	__Umul8_16@multiplicand
  4190  0E00  084A               	movf	___flmul@a+1,w
  4191  0E01  120A  158A  21C1  120A  158A  	fcall	__Umul8_16
  4192  0E06  0871               	movf	?__Umul8_16+1,w
  4193  0E07  1283               	bcf	3,5	;RP0=0, select bank0
  4194  0E08  1303               	bcf	3,6	;RP1=0, select bank0
  4195  0E09  00D9               	movwf	___flmul@temp+1
  4196  0E0A  0870               	movf	?__Umul8_16,w
  4197  0E0B  00D8               	movwf	___flmul@temp
  4198  0E0C                     l2410:	
  4199  0E0C  0858               	movf	___flmul@temp,w
  4200  0E0D  00F9               	movwf	??___flmul
  4201  0E0E  0859               	movf	___flmul@temp+1,w
  4202  0E0F  00FA               	movwf	??___flmul+1
  4203  0E10  01FB               	clrf	??___flmul+2
  4204  0E11  01FC               	clrf	??___flmul+3
  4205  0E12  0879               	movf	??___flmul,w
  4206  0E13  07CE               	addwf	___flmul@grs,f
  4207  0E14  087A               	movf	??___flmul+1,w
  4208  0E15  1103               	clrz
  4209  0E16  1803               	skipnc
  4210  0E17  3E01               	addlw	1
  4211  0E18  1903               	skipnz
  4212  0E19  2E1B               	goto	u2531
  4213  0E1A  07CF               	addwf	___flmul@grs+1,f
  4214  0E1B                     u2531:	
  4215  0E1B  087B               	movf	??___flmul+2,w
  4216  0E1C  1103               	clrz
  4217  0E1D  1803               	skipnc
  4218  0E1E  3E01               	addlw	1
  4219  0E1F  1903               	skipnz
  4220  0E20  2E22               	goto	u2532
  4221  0E21  07D0               	addwf	___flmul@grs+2,f
  4222  0E22                     u2532:	
  4223  0E22  087C               	movf	??___flmul+3,w
  4224  0E23  1103               	clrz
  4225  0E24  1803               	skipnc
  4226  0E25  3E01               	addlw	1
  4227  0E26  1903               	skipnz
  4228  0E27  2E29               	goto	u2533
  4229  0E28  07D1               	addwf	___flmul@grs+3,f
  4230  0E29                     u2533:	
  4231  0E29                     l2412:	
  4232  0E29  3008               	movlw	8
  4233  0E2A  00F9               	movwf	??___flmul
  4234  0E2B                     u2545:	
  4235  0E2B  1003               	clrc
  4236  0E2C  0DCE               	rlf	___flmul@grs,f
  4237  0E2D  0DCF               	rlf	___flmul@grs+1,f
  4238  0E2E  0DD0               	rlf	___flmul@grs+2,f
  4239  0E2F  0DD1               	rlf	___flmul@grs+3,f
  4240  0E30  0BF9               	decfsz	??___flmul,f
  4241  0E31  2E2B               	goto	u2545
  4242  0E32  0845               	movf	___flmul@b,w
  4243  0E33  00F9               	movwf	??___flmul
  4244  0E34  0879               	movf	??___flmul,w
  4245  0E35  00F0               	movwf	__Umul8_16@multiplicand
  4246  0E36  0849               	movf	___flmul@a,w
  4247  0E37  120A  158A  21C1  120A  158A  	fcall	__Umul8_16
  4248  0E3C  0871               	movf	?__Umul8_16+1,w
  4249  0E3D  1283               	bcf	3,5	;RP0=0, select bank0
  4250  0E3E  1303               	bcf	3,6	;RP1=0, select bank0
  4251  0E3F  00D9               	movwf	___flmul@temp+1
  4252  0E40  0870               	movf	?__Umul8_16,w
  4253  0E41  00D8               	movwf	___flmul@temp
  4254  0E42                     l2414:	
  4255  0E42  0858               	movf	___flmul@temp,w
  4256  0E43  00F9               	movwf	??___flmul
  4257  0E44  0859               	movf	___flmul@temp+1,w
  4258  0E45  00FA               	movwf	??___flmul+1
  4259  0E46  01FB               	clrf	??___flmul+2
  4260  0E47  01FC               	clrf	??___flmul+3
  4261  0E48  0879               	movf	??___flmul,w
  4262  0E49  07CE               	addwf	___flmul@grs,f
  4263  0E4A  087A               	movf	??___flmul+1,w
  4264  0E4B  1103               	clrz
  4265  0E4C  1803               	skipnc
  4266  0E4D  3E01               	addlw	1
  4267  0E4E  1903               	skipnz
  4268  0E4F  2E51               	goto	u2551
  4269  0E50  07CF               	addwf	___flmul@grs+1,f
  4270  0E51                     u2551:	
  4271  0E51  087B               	movf	??___flmul+2,w
  4272  0E52  1103               	clrz
  4273  0E53  1803               	skipnc
  4274  0E54  3E01               	addlw	1
  4275  0E55  1903               	skipnz
  4276  0E56  2E58               	goto	u2552
  4277  0E57  07D0               	addwf	___flmul@grs+2,f
  4278  0E58                     u2552:	
  4279  0E58  087C               	movf	??___flmul+3,w
  4280  0E59  1103               	clrz
  4281  0E5A  1803               	skipnc
  4282  0E5B  3E01               	addlw	1
  4283  0E5C  1903               	skipnz
  4284  0E5D  2E5F               	goto	u2553
  4285  0E5E  07D1               	addwf	___flmul@grs+3,f
  4286  0E5F                     u2553:	
  4287  0E5F                     l2416:	
  4288  0E5F  0846               	movf	___flmul@b+1,w
  4289  0E60  00F9               	movwf	??___flmul
  4290  0E61  0879               	movf	??___flmul,w
  4291  0E62  00F0               	movwf	__Umul8_16@multiplicand
  4292  0E63  084B               	movf	___flmul@a+2,w
  4293  0E64  120A  158A  21C1  120A  158A  	fcall	__Umul8_16
  4294  0E69  0871               	movf	?__Umul8_16+1,w
  4295  0E6A  1283               	bcf	3,5	;RP0=0, select bank0
  4296  0E6B  1303               	bcf	3,6	;RP1=0, select bank0
  4297  0E6C  00D9               	movwf	___flmul@temp+1
  4298  0E6D  0870               	movf	?__Umul8_16,w
  4299  0E6E  00D8               	movwf	___flmul@temp
  4300  0E6F  0858               	movf	___flmul@temp,w
  4301  0E70  00F9               	movwf	??___flmul
  4302  0E71  0859               	movf	___flmul@temp+1,w
  4303  0E72  00FA               	movwf	??___flmul+1
  4304  0E73  01FB               	clrf	??___flmul+2
  4305  0E74  01FC               	clrf	??___flmul+3
  4306  0E75  0879               	movf	??___flmul,w
  4307  0E76  07D4               	addwf	___flmul@prod,f
  4308  0E77  087A               	movf	??___flmul+1,w
  4309  0E78  1103               	clrz
  4310  0E79  1803               	skipnc
  4311  0E7A  3E01               	addlw	1
  4312  0E7B  1903               	skipnz
  4313  0E7C  2E7E               	goto	u2561
  4314  0E7D  07D5               	addwf	___flmul@prod+1,f
  4315  0E7E                     u2561:	
  4316  0E7E  087B               	movf	??___flmul+2,w
  4317  0E7F  1103               	clrz
  4318  0E80  1803               	skipnc
  4319  0E81  3E01               	addlw	1
  4320  0E82  1903               	skipnz
  4321  0E83  2E85               	goto	u2562
  4322  0E84  07D6               	addwf	___flmul@prod+2,f
  4323  0E85                     u2562:	
  4324  0E85  087C               	movf	??___flmul+3,w
  4325  0E86  1103               	clrz
  4326  0E87  1803               	skipnc
  4327  0E88  3E01               	addlw	1
  4328  0E89  1903               	skipnz
  4329  0E8A  2E8C               	goto	u2563
  4330  0E8B  07D7               	addwf	___flmul@prod+3,f
  4331  0E8C                     u2563:	
  4332  0E8C                     l2418:	
  4333  0E8C  0847               	movf	___flmul@b+2,w
  4334  0E8D  00F9               	movwf	??___flmul
  4335  0E8E  0879               	movf	??___flmul,w
  4336  0E8F  00F0               	movwf	__Umul8_16@multiplicand
  4337  0E90  084A               	movf	___flmul@a+1,w
  4338  0E91  120A  158A  21C1  120A  158A  	fcall	__Umul8_16
  4339  0E96  0871               	movf	?__Umul8_16+1,w
  4340  0E97  1283               	bcf	3,5	;RP0=0, select bank0
  4341  0E98  1303               	bcf	3,6	;RP1=0, select bank0
  4342  0E99  00D9               	movwf	___flmul@temp+1
  4343  0E9A  0870               	movf	?__Umul8_16,w
  4344  0E9B  00D8               	movwf	___flmul@temp
  4345  0E9C                     l2420:	
  4346  0E9C  0858               	movf	___flmul@temp,w
  4347  0E9D  00F9               	movwf	??___flmul
  4348  0E9E  0859               	movf	___flmul@temp+1,w
  4349  0E9F  00FA               	movwf	??___flmul+1
  4350  0EA0  01FB               	clrf	??___flmul+2
  4351  0EA1  01FC               	clrf	??___flmul+3
  4352  0EA2  0879               	movf	??___flmul,w
  4353  0EA3  07D4               	addwf	___flmul@prod,f
  4354  0EA4  087A               	movf	??___flmul+1,w
  4355  0EA5  1103               	clrz
  4356  0EA6  1803               	skipnc
  4357  0EA7  3E01               	addlw	1
  4358  0EA8  1903               	skipnz
  4359  0EA9  2EAB               	goto	u2571
  4360  0EAA  07D5               	addwf	___flmul@prod+1,f
  4361  0EAB                     u2571:	
  4362  0EAB  087B               	movf	??___flmul+2,w
  4363  0EAC  1103               	clrz
  4364  0EAD  1803               	skipnc
  4365  0EAE  3E01               	addlw	1
  4366  0EAF  1903               	skipnz
  4367  0EB0  2EB2               	goto	u2572
  4368  0EB1  07D6               	addwf	___flmul@prod+2,f
  4369  0EB2                     u2572:	
  4370  0EB2  087C               	movf	??___flmul+3,w
  4371  0EB3  1103               	clrz
  4372  0EB4  1803               	skipnc
  4373  0EB5  3E01               	addlw	1
  4374  0EB6  1903               	skipnz
  4375  0EB7  2EB9               	goto	u2573
  4376  0EB8  07D7               	addwf	___flmul@prod+3,f
  4377  0EB9                     u2573:	
  4378  0EB9  0847               	movf	___flmul@b+2,w
  4379  0EBA  00F9               	movwf	??___flmul
  4380  0EBB  0879               	movf	??___flmul,w
  4381  0EBC  00F0               	movwf	__Umul8_16@multiplicand
  4382  0EBD  084B               	movf	___flmul@a+2,w
  4383  0EBE  120A  158A  21C1  120A  158A  	fcall	__Umul8_16
  4384  0EC3  0871               	movf	?__Umul8_16+1,w
  4385  0EC4  1283               	bcf	3,5	;RP0=0, select bank0
  4386  0EC5  1303               	bcf	3,6	;RP1=0, select bank0
  4387  0EC6  00D9               	movwf	___flmul@temp+1
  4388  0EC7  0870               	movf	?__Umul8_16,w
  4389  0EC8  00D8               	movwf	___flmul@temp
  4390  0EC9                     l2422:	
  4391  0EC9  0858               	movf	___flmul@temp,w
  4392  0ECA  00F9               	movwf	??___flmul
  4393  0ECB  0859               	movf	___flmul@temp+1,w
  4394  0ECC  00FA               	movwf	??___flmul+1
  4395  0ECD  01FB               	clrf	??___flmul+2
  4396  0ECE  01FC               	clrf	??___flmul+3
  4397  0ECF  3008               	movlw	8
  4398  0ED0                     u2585:	
  4399  0ED0  1003               	clrc
  4400  0ED1  0DF9               	rlf	??___flmul,f
  4401  0ED2  0DFA               	rlf	??___flmul+1,f
  4402  0ED3  0DFB               	rlf	??___flmul+2,f
  4403  0ED4  0DFC               	rlf	??___flmul+3,f
  4404  0ED5                     u2580:	
  4405  0ED5  3EFF               	addlw	-1
  4406  0ED6  1D03               	skipz
  4407  0ED7  2ED0               	goto	u2585
  4408  0ED8  0879               	movf	??___flmul,w
  4409  0ED9  07D4               	addwf	___flmul@prod,f
  4410  0EDA  087A               	movf	??___flmul+1,w
  4411  0EDB  1103               	clrz
  4412  0EDC  1803               	skipnc
  4413  0EDD  3E01               	addlw	1
  4414  0EDE  1903               	skipnz
  4415  0EDF  2EE1               	goto	u2591
  4416  0EE0  07D5               	addwf	___flmul@prod+1,f
  4417  0EE1                     u2591:	
  4418  0EE1  087B               	movf	??___flmul+2,w
  4419  0EE2  1103               	clrz
  4420  0EE3  1803               	skipnc
  4421  0EE4  3E01               	addlw	1
  4422  0EE5  1903               	skipnz
  4423  0EE6  2EE8               	goto	u2592
  4424  0EE7  07D6               	addwf	___flmul@prod+2,f
  4425  0EE8                     u2592:	
  4426  0EE8  087C               	movf	??___flmul+3,w
  4427  0EE9  1103               	clrz
  4428  0EEA  1803               	skipnc
  4429  0EEB  3E01               	addlw	1
  4430  0EEC  1903               	skipnz
  4431  0EED  2EEF               	goto	u2593
  4432  0EEE  07D7               	addwf	___flmul@prod+3,f
  4433  0EEF                     u2593:	
  4434  0EEF                     l2424:	
  4435  0EEF  084E               	movf	___flmul@grs,w
  4436  0EF0  00F9               	movwf	??___flmul
  4437  0EF1  084F               	movf	___flmul@grs+1,w
  4438  0EF2  00FA               	movwf	??___flmul+1
  4439  0EF3  0850               	movf	___flmul@grs+2,w
  4440  0EF4  00FB               	movwf	??___flmul+2
  4441  0EF5  0851               	movf	___flmul@grs+3,w
  4442  0EF6  00FC               	movwf	??___flmul+3
  4443  0EF7  3018               	movlw	24
  4444  0EF8                     u2605:	
  4445  0EF8  1003               	clrc
  4446  0EF9  0CFC               	rrf	??___flmul+3,f
  4447  0EFA  0CFB               	rrf	??___flmul+2,f
  4448  0EFB  0CFA               	rrf	??___flmul+1,f
  4449  0EFC  0CF9               	rrf	??___flmul,f
  4450  0EFD                     u2600:	
  4451  0EFD  3EFF               	addlw	-1
  4452  0EFE  1D03               	skipz
  4453  0EFF  2EF8               	goto	u2605
  4454  0F00  0879               	movf	??___flmul,w
  4455  0F01  07D4               	addwf	___flmul@prod,f
  4456  0F02  087A               	movf	??___flmul+1,w
  4457  0F03  1103               	clrz
  4458  0F04  1803               	skipnc
  4459  0F05  3E01               	addlw	1
  4460  0F06  1903               	skipnz
  4461  0F07  2F09               	goto	u2611
  4462  0F08  07D5               	addwf	___flmul@prod+1,f
  4463  0F09                     u2611:	
  4464  0F09  087B               	movf	??___flmul+2,w
  4465  0F0A  1103               	clrz
  4466  0F0B  1803               	skipnc
  4467  0F0C  3E01               	addlw	1
  4468  0F0D  1903               	skipnz
  4469  0F0E  2F10               	goto	u2612
  4470  0F0F  07D6               	addwf	___flmul@prod+2,f
  4471  0F10                     u2612:	
  4472  0F10  087C               	movf	??___flmul+3,w
  4473  0F11  1103               	clrz
  4474  0F12  1803               	skipnc
  4475  0F13  3E01               	addlw	1
  4476  0F14  1903               	skipnz
  4477  0F15  2F17               	goto	u2613
  4478  0F16  07D7               	addwf	___flmul@prod+3,f
  4479  0F17                     u2613:	
  4480  0F17                     l2426:	
  4481  0F17  3008               	movlw	8
  4482  0F18  00F9               	movwf	??___flmul
  4483  0F19                     u2625:	
  4484  0F19  1003               	clrc
  4485  0F1A  0DCE               	rlf	___flmul@grs,f
  4486  0F1B  0DCF               	rlf	___flmul@grs+1,f
  4487  0F1C  0DD0               	rlf	___flmul@grs+2,f
  4488  0F1D  0DD1               	rlf	___flmul@grs+3,f
  4489  0F1E  0BF9               	decfsz	??___flmul,f
  4490  0F1F  2F19               	goto	u2625
  4491  0F20                     l2428:	
  4492  0F20  0853               	movf	___flmul@bexp,w
  4493  0F21  0752               	addwf	___flmul@aexp,w
  4494  0F22  00F9               	movwf	??___flmul
  4495  0F23  01FA               	clrf	??___flmul+1
  4496  0F24  0DFA               	rlf	??___flmul+1,f
  4497  0F25  0879               	movf	??___flmul,w
  4498  0F26  3E82               	addlw	130
  4499  0F27  00D8               	movwf	___flmul@temp
  4500  0F28  087A               	movf	??___flmul+1,w
  4501  0F29  1803               	skipnc
  4502  0F2A  3E01               	addlw	1
  4503  0F2B  3EFF               	addlw	255
  4504  0F2C  00D9               	movwf	___flmul@temp+1
  4505  0F2D  2F4B               	goto	l2440
  4506  0F2E                     l2430:	
  4507  0F2E  3001               	movlw	1
  4508  0F2F  00F9               	movwf	??___flmul
  4509  0F30                     u2635:	
  4510  0F30  1003               	clrc
  4511  0F31  0DD4               	rlf	___flmul@prod,f
  4512  0F32  0DD5               	rlf	___flmul@prod+1,f
  4513  0F33  0DD6               	rlf	___flmul@prod+2,f
  4514  0F34  0DD7               	rlf	___flmul@prod+3,f
  4515  0F35  0BF9               	decfsz	??___flmul,f
  4516  0F36  2F30               	goto	u2635
  4517  0F37                     l2432:	
  4518  0F37  1FD1               	btfss	___flmul@grs+3,7
  4519  0F38  2F3A               	goto	u2641
  4520  0F39  2F3B               	goto	u2640
  4521  0F3A                     u2641:	
  4522  0F3A  2F3C               	goto	l2436
  4523  0F3B                     u2640:	
  4524  0F3B                     l2434:	
  4525  0F3B  1454               	bsf	___flmul@prod,0
  4526  0F3C                     l2436:	
  4527  0F3C  3001               	movlw	1
  4528  0F3D  00F9               	movwf	??___flmul
  4529  0F3E                     u2655:	
  4530  0F3E  1003               	clrc
  4531  0F3F  0DCE               	rlf	___flmul@grs,f
  4532  0F40  0DCF               	rlf	___flmul@grs+1,f
  4533  0F41  0DD0               	rlf	___flmul@grs+2,f
  4534  0F42  0DD1               	rlf	___flmul@grs+3,f
  4535  0F43  0BF9               	decfsz	??___flmul,f
  4536  0F44  2F3E               	goto	u2655
  4537  0F45                     l2438:	
  4538  0F45  30FF               	movlw	255
  4539  0F46  07D8               	addwf	___flmul@temp,f
  4540  0F47  1803               	skipnc
  4541  0F48  0AD9               	incf	___flmul@temp+1,f
  4542  0F49  30FF               	movlw	255
  4543  0F4A  07D9               	addwf	___flmul@temp+1,f
  4544  0F4B                     l2440:	
  4545  0F4B  1FD6               	btfss	___flmul@prod+2,7
  4546  0F4C  2F4E               	goto	u2661
  4547  0F4D  2F4F               	goto	u2660
  4548  0F4E                     u2661:	
  4549  0F4E  2F2E               	goto	l2430
  4550  0F4F                     u2660:	
  4551  0F4F                     l2442:	
  4552  0F4F  01D2               	clrf	___flmul@aexp
  4553  0F50                     l2444:	
  4554  0F50  1FD1               	btfss	___flmul@grs+3,7
  4555  0F51  2F53               	goto	u2671
  4556  0F52  2F54               	goto	u2670
  4557  0F53                     u2671:	
  4558  0F53  2F70               	goto	l2452
  4559  0F54                     u2670:	
  4560  0F54                     l2446:	
  4561  0F54  30FF               	movlw	255
  4562  0F55  054E               	andwf	___flmul@grs,w
  4563  0F56  00F9               	movwf	??___flmul
  4564  0F57  30FF               	movlw	255
  4565  0F58  054F               	andwf	___flmul@grs+1,w
  4566  0F59  00FA               	movwf	??___flmul+1
  4567  0F5A  30FF               	movlw	255
  4568  0F5B  0550               	andwf	___flmul@grs+2,w
  4569  0F5C  00FB               	movwf	??___flmul+2
  4570  0F5D  307F               	movlw	127
  4571  0F5E  0551               	andwf	___flmul@grs+3,w
  4572  0F5F  00FC               	movwf	??___flmul+3
  4573  0F60  087C               	movf	??___flmul+3,w
  4574  0F61  047B               	iorwf	??___flmul+2,w
  4575  0F62  047A               	iorwf	??___flmul+1,w
  4576  0F63  0479               	iorwf	??___flmul,w
  4577  0F64  1903               	skipnz
  4578  0F65  2F67               	goto	u2681
  4579  0F66  2F68               	goto	u2680
  4580  0F67                     u2681:	
  4581  0F67  2F6B               	goto	l739
  4582  0F68                     u2680:	
  4583  0F68                     l2448:	
  4584  0F68  01D2               	clrf	___flmul@aexp
  4585  0F69  0AD2               	incf	___flmul@aexp,f
  4586  0F6A  2F70               	goto	l2452
  4587  0F6B                     l739:	
  4588  0F6B  1C54               	btfss	___flmul@prod,0
  4589  0F6C  2F6E               	goto	u2691
  4590  0F6D  2F6F               	goto	u2690
  4591  0F6E                     u2691:	
  4592  0F6E  2F70               	goto	l2452
  4593  0F6F                     u2690:	
  4594  0F6F  2F68               	goto	l2448
  4595  0F70                     l2452:	
  4596  0F70  0852               	movf	___flmul@aexp,w
  4597  0F71  1903               	btfsc	3,2
  4598  0F72  2F74               	goto	u2701
  4599  0F73  2F75               	goto	u2700
  4600  0F74                     u2701:	
  4601  0F74  2FA6               	goto	l2462
  4602  0F75                     u2700:	
  4603  0F75                     l2454:	
  4604  0F75  3001               	movlw	1
  4605  0F76  07D4               	addwf	___flmul@prod,f
  4606  0F77  3000               	movlw	0
  4607  0F78  1803               	skipnc
  4608  0F79  3001               	movlw	1
  4609  0F7A  07D5               	addwf	___flmul@prod+1,f
  4610  0F7B  3000               	movlw	0
  4611  0F7C  1803               	skipnc
  4612  0F7D  3001               	movlw	1
  4613  0F7E  07D6               	addwf	___flmul@prod+2,f
  4614  0F7F  3000               	movlw	0
  4615  0F80  1803               	skipnc
  4616  0F81  3001               	movlw	1
  4617  0F82  07D7               	addwf	___flmul@prod+3,f
  4618  0F83                     l2456:	
  4619  0F83  1C57               	btfss	___flmul@prod+3,0
  4620  0F84  2F86               	goto	u2711
  4621  0F85  2F87               	goto	u2710
  4622  0F86                     u2711:	
  4623  0F86  2FA6               	goto	l2462
  4624  0F87                     u2710:	
  4625  0F87                     l2458:	
  4626  0F87  0854               	movf	___flmul@prod,w
  4627  0F88  00F9               	movwf	??___flmul
  4628  0F89  0855               	movf	___flmul@prod+1,w
  4629  0F8A  00FA               	movwf	??___flmul+1
  4630  0F8B  0856               	movf	___flmul@prod+2,w
  4631  0F8C  00FB               	movwf	??___flmul+2
  4632  0F8D  0857               	movf	___flmul@prod+3,w
  4633  0F8E  00FC               	movwf	??___flmul+3
  4634  0F8F  3001               	movlw	1
  4635  0F90  00FD               	movwf	??___flmul+4
  4636  0F91                     u2725:	
  4637  0F91  0D7C               	rlf	??___flmul+3,w
  4638  0F92  0CFC               	rrf	??___flmul+3,f
  4639  0F93  0CFB               	rrf	??___flmul+2,f
  4640  0F94  0CFA               	rrf	??___flmul+1,f
  4641  0F95  0CF9               	rrf	??___flmul,f
  4642  0F96                     u2720:	
  4643  0F96  0BFD               	decfsz	??___flmul+4,f
  4644  0F97  2F91               	goto	u2725
  4645  0F98  087C               	movf	??___flmul+3,w
  4646  0F99  00D7               	movwf	___flmul@prod+3
  4647  0F9A  087B               	movf	??___flmul+2,w
  4648  0F9B  00D6               	movwf	___flmul@prod+2
  4649  0F9C  087A               	movf	??___flmul+1,w
  4650  0F9D  00D5               	movwf	___flmul@prod+1
  4651  0F9E  0879               	movf	??___flmul,w
  4652  0F9F  00D4               	movwf	___flmul@prod
  4653  0FA0                     l2460:	
  4654  0FA0  3001               	movlw	1
  4655  0FA1  07D8               	addwf	___flmul@temp,f
  4656  0FA2  1803               	skipnc
  4657  0FA3  0AD9               	incf	___flmul@temp+1,f
  4658  0FA4  3000               	movlw	0
  4659  0FA5  07D9               	addwf	___flmul@temp+1,f
  4660  0FA6                     l2462:	
  4661  0FA6  0859               	movf	___flmul@temp+1,w
  4662  0FA7  3A80               	xorlw	128
  4663  0FA8  00FF               	movwf	btemp+1
  4664  0FA9  3080               	movlw	128
  4665  0FAA  027F               	subwf	btemp+1,w
  4666  0FAB  1D03               	skipz
  4667  0FAC  2FAF               	goto	u2735
  4668  0FAD  30FF               	movlw	255
  4669  0FAE  0258               	subwf	___flmul@temp,w
  4670  0FAF                     u2735:	
  4671  0FAF  1C03               	skipc
  4672  0FB0  2FB2               	goto	u2731
  4673  0FB1  2FB3               	goto	u2730
  4674  0FB2                     u2731:	
  4675  0FB2  2FBE               	goto	l2466
  4676  0FB3                     u2730:	
  4677  0FB3                     l2464:	
  4678  0FB3  307F               	movlw	127
  4679  0FB4  1283               	bcf	3,5	;RP0=0, select bank0
  4680  0FB5  1303               	bcf	3,6	;RP1=0, select bank0
  4681  0FB6  00D7               	movwf	___flmul@prod+3
  4682  0FB7  3080               	movlw	128
  4683  0FB8  00D6               	movwf	___flmul@prod+2
  4684  0FB9  3000               	movlw	0
  4685  0FBA  00D5               	movwf	___flmul@prod+1
  4686  0FBB  3000               	movlw	0
  4687  0FBC  00D4               	movwf	___flmul@prod
  4688  0FBD  2FF3               	goto	l745
  4689  0FBE                     l2466:	
  4690  0FBE  1283               	bcf	3,5	;RP0=0, select bank0
  4691  0FBF  1303               	bcf	3,6	;RP1=0, select bank0
  4692  0FC0  0859               	movf	___flmul@temp+1,w
  4693  0FC1  3A80               	xorlw	128
  4694  0FC2  00FF               	movwf	btemp+1
  4695  0FC3  3080               	movlw	128
  4696  0FC4  027F               	subwf	btemp+1,w
  4697  0FC5  1D03               	skipz
  4698  0FC6  2FC9               	goto	u2745
  4699  0FC7  3001               	movlw	1
  4700  0FC8  0258               	subwf	___flmul@temp,w
  4701  0FC9                     u2745:	
  4702  0FC9  1803               	skipnc
  4703  0FCA  2FCC               	goto	u2741
  4704  0FCB  2FCD               	goto	u2740
  4705  0FCC                     u2741:	
  4706  0FCC  2FD9               	goto	l2472
  4707  0FCD                     u2740:	
  4708  0FCD                     l2468:	
  4709  0FCD  3000               	movlw	0
  4710  0FCE  1283               	bcf	3,5	;RP0=0, select bank0
  4711  0FCF  1303               	bcf	3,6	;RP1=0, select bank0
  4712  0FD0  00D7               	movwf	___flmul@prod+3
  4713  0FD1  3000               	movlw	0
  4714  0FD2  00D6               	movwf	___flmul@prod+2
  4715  0FD3  3000               	movlw	0
  4716  0FD4  00D5               	movwf	___flmul@prod+1
  4717  0FD5  3000               	movlw	0
  4718  0FD6  00D4               	movwf	___flmul@prod
  4719  0FD7                     l2470:	
  4720  0FD7  01CD               	clrf	___flmul@sign
  4721  0FD8  2FF3               	goto	l745
  4722  0FD9                     l2472:	
  4723  0FD9  1283               	bcf	3,5	;RP0=0, select bank0
  4724  0FDA  1303               	bcf	3,6	;RP1=0, select bank0
  4725  0FDB  0858               	movf	___flmul@temp,w
  4726  0FDC  00F9               	movwf	??___flmul
  4727  0FDD  0879               	movf	??___flmul,w
  4728  0FDE  00D3               	movwf	___flmul@bexp
  4729  0FDF  30FF               	movlw	255
  4730  0FE0  05D4               	andwf	___flmul@prod,f
  4731  0FE1  30FF               	movlw	255
  4732  0FE2  05D5               	andwf	___flmul@prod+1,f
  4733  0FE3  307F               	movlw	127
  4734  0FE4  05D6               	andwf	___flmul@prod+2,f
  4735  0FE5  3000               	movlw	0
  4736  0FE6  05D7               	andwf	___flmul@prod+3,f
  4737  0FE7                     l2474:	
  4738  0FE7  1C53               	btfss	___flmul@bexp,0
  4739  0FE8  2FEA               	goto	u2751
  4740  0FE9  2FEB               	goto	u2750
  4741  0FEA                     u2751:	
  4742  0FEA  2FEC               	goto	l2478
  4743  0FEB                     u2750:	
  4744  0FEB                     l2476:	
  4745  0FEB  17D6               	bsf	___flmul@prod+2,7
  4746  0FEC                     l2478:	
  4747  0FEC  0853               	movf	___flmul@bexp,w
  4748  0FED  00F9               	movwf	??___flmul
  4749  0FEE  1003               	clrc
  4750  0FEF  0C79               	rrf	??___flmul,w
  4751  0FF0  00FA               	movwf	??___flmul+1
  4752  0FF1  087A               	movf	??___flmul+1,w
  4753  0FF2  00D7               	movwf	___flmul@prod+3
  4754  0FF3                     l745:	
  4755  0FF3  084D               	movf	___flmul@sign,w
  4756  0FF4  00F9               	movwf	??___flmul
  4757  0FF5  0879               	movf	??___flmul,w
  4758  0FF6  04D7               	iorwf	___flmul@prod+3,f
  4759  0FF7                     l2480:	
  4760  0FF7  0857               	movf	___flmul@prod+3,w
  4761  0FF8  00C8               	movwf	?___flmul+3
  4762  0FF9  0856               	movf	___flmul@prod+2,w
  4763  0FFA  00C7               	movwf	?___flmul+2
  4764  0FFB  0855               	movf	___flmul@prod+1,w
  4765  0FFC  00C6               	movwf	?___flmul+1
  4766  0FFD  0854               	movf	___flmul@prod,w
  4767  0FFE  00C5               	movwf	?___flmul
  4768  0FFF                     l733:	
  4769  0FFF  0008               	return
  4770  1000                     __end_of___flmul:	
  4771                           
  4772                           	psect	text13
  4773  09C1                     __ptext13:	
  4774 ;; *************** function __Umul8_16 *****************
  4775 ;; Defined at:
  4776 ;;		line 4 in file "C:\Program Files (x86)\Microchip\xc8\v2.10\pic\sources\c90\common\Umul8_16.c"
  4777 ;; Parameters:    Size  Location     Type
  4778 ;;  multiplier      1    wreg     unsigned char 
  4779 ;;  multiplicand    1    0[COMMON] unsigned char 
  4780 ;; Auto vars:     Size  Location     Type
  4781 ;;  multiplier      1    8[COMMON] unsigned char 
  4782 ;;  word_mpld       2    6[COMMON] unsigned int 
  4783 ;;  product         2    4[COMMON] unsigned int 
  4784 ;; Return value:  Size  Location     Type
  4785 ;;                  2    0[COMMON] unsigned int 
  4786 ;; Registers used:
  4787 ;;		wreg, status,2, status,0
  4788 ;; Tracked objects:
  4789 ;;		On entry : 0/0
  4790 ;;		On exit  : 0/0
  4791 ;;		Unchanged: 0/0
  4792 ;; Data sizes:     COMMON   BANK0   BANK1   BANK3   BANK2
  4793 ;;      Params:         2       0       0       0       0
  4794 ;;      Locals:         5       0       0       0       0
  4795 ;;      Temps:          2       0       0       0       0
  4796 ;;      Totals:         9       0       0       0       0
  4797 ;;Total ram usage:        9 bytes
  4798 ;; Hardware stack levels used:    1
  4799 ;; This function calls:
  4800 ;;		Nothing
  4801 ;; This function is called by:
  4802 ;;		___flmul
  4803 ;; This function uses a non-reentrant model
  4804 ;;
  4805                           
  4806                           
  4807                           ;psect for function __Umul8_16
  4808  09C1                     __Umul8_16:	
  4809                           
  4810                           ;incstack = 0
  4811                           ; Regs used in __Umul8_16: [wreg+status,2+status,0]
  4812                           ;__Umul8_16@multiplier stored from wreg
  4813  09C1  00F8               	movwf	__Umul8_16@multiplier
  4814  09C2                     l1904:	
  4815  09C2  01F4               	clrf	__Umul8_16@product
  4816  09C3  01F5               	clrf	__Umul8_16@product+1
  4817  09C4                     l1906:	
  4818  09C4  0870               	movf	__Umul8_16@multiplicand,w
  4819  09C5  00F2               	movwf	??__Umul8_16
  4820  09C6  01F3               	clrf	??__Umul8_16+1
  4821  09C7  0872               	movf	??__Umul8_16,w
  4822  09C8  00F6               	movwf	__Umul8_16@word_mpld
  4823  09C9  0873               	movf	??__Umul8_16+1,w
  4824  09CA  00F7               	movwf	__Umul8_16@word_mpld+1
  4825  09CB                     l1908:	
  4826  09CB  1C78               	btfss	__Umul8_16@multiplier,0
  4827  09CC  29CE               	goto	u1591
  4828  09CD  29CF               	goto	u1590
  4829  09CE                     u1591:	
  4830  09CE  29D5               	goto	l790
  4831  09CF                     u1590:	
  4832  09CF                     l1910:	
  4833  09CF  0876               	movf	__Umul8_16@word_mpld,w
  4834  09D0  07F4               	addwf	__Umul8_16@product,f
  4835  09D1  1803               	skipnc
  4836  09D2  0AF5               	incf	__Umul8_16@product+1,f
  4837  09D3  0877               	movf	__Umul8_16@word_mpld+1,w
  4838  09D4  07F5               	addwf	__Umul8_16@product+1,f
  4839  09D5                     l790:	
  4840  09D5  3001               	movlw	1
  4841  09D6                     u1605:	
  4842  09D6  1003               	clrc
  4843  09D7  0DF6               	rlf	__Umul8_16@word_mpld,f
  4844  09D8  0DF7               	rlf	__Umul8_16@word_mpld+1,f
  4845  09D9  3EFF               	addlw	-1
  4846  09DA  1D03               	skipz
  4847  09DB  29D6               	goto	u1605
  4848  09DC  1003               	clrc
  4849  09DD  0CF8               	rrf	__Umul8_16@multiplier,f
  4850  09DE                     l1912:	
  4851  09DE  0878               	movf	__Umul8_16@multiplier,w
  4852  09DF  1D03               	btfss	3,2
  4853  09E0  29E2               	goto	u1611
  4854  09E1  29E3               	goto	u1610
  4855  09E2                     u1611:	
  4856  09E2  29CB               	goto	l1908
  4857  09E3                     u1610:	
  4858  09E3                     l1914:	
  4859  09E3  0875               	movf	__Umul8_16@product+1,w
  4860  09E4  00F1               	movwf	?__Umul8_16+1
  4861  09E5  0874               	movf	__Umul8_16@product,w
  4862  09E6  00F0               	movwf	?__Umul8_16
  4863  09E7                     l792:	
  4864  09E7  0008               	return
  4865  09E8                     __end_of__Umul8_16:	
  4866                           
  4867                           	psect	text14
  4868  017B                     __ptext14:	
  4869 ;; *************** function ___fldiv *****************
  4870 ;; Defined at:
  4871 ;;		line 8 in file "C:\Program Files (x86)\Microchip\xc8\v2.10\pic\sources\c90\common\sprcdiv.c"
  4872 ;; Parameters:    Size  Location     Type
  4873 ;;  a               4    0[BANK0 ] unsigned int 
  4874 ;;  b               4    4[BANK0 ] unsigned int 
  4875 ;; Auto vars:     Size  Location     Type
  4876 ;;  grs             4   20[BANK0 ] unsigned long 
  4877 ;;  rem             4   13[BANK0 ] unsigned long 
  4878 ;;  new_exp         2   18[BANK0 ] int 
  4879 ;;  aexp            1   25[BANK0 ] unsigned char 
  4880 ;;  bexp            1   24[BANK0 ] unsigned char 
  4881 ;;  sign            1   17[BANK0 ] unsigned char 
  4882 ;; Return value:  Size  Location     Type
  4883 ;;                  4    0[BANK0 ] unsigned char 
  4884 ;; Registers used:
  4885 ;;		wreg, status,2, status,0, btemp+1
  4886 ;; Tracked objects:
  4887 ;;		On entry : 0/0
  4888 ;;		On exit  : 0/0
  4889 ;;		Unchanged: 0/0
  4890 ;; Data sizes:     COMMON   BANK0   BANK1   BANK3   BANK2
  4891 ;;      Params:         0       8       0       0       0
  4892 ;;      Locals:         0      13       0       0       0
  4893 ;;      Temps:          0       5       0       0       0
  4894 ;;      Totals:         0      26       0       0       0
  4895 ;;Total ram usage:       26 bytes
  4896 ;; Hardware stack levels used:    1
  4897 ;; This function calls:
  4898 ;;		Nothing
  4899 ;; This function is called by:
  4900 ;;		_main
  4901 ;; This function uses a non-reentrant model
  4902 ;;
  4903                           
  4904                           
  4905                           ;psect for function ___fldiv
  4906  017B                     ___fldiv:	
  4907  017B                     l2202:	
  4908                           ;incstack = 0
  4909                           ; Regs used in ___fldiv: [wreg+status,2+status,0+btemp+1]
  4910                           
  4911  017B  1283               	bcf	3,5	;RP0=0, select bank0
  4912  017C  1303               	bcf	3,6	;RP1=0, select bank0
  4913  017D  084C               	movf	___fldiv@b+3,w
  4914  017E  3980               	andlw	128
  4915  017F  00CD               	movwf	??___fldiv
  4916  0180  084D               	movf	??___fldiv,w
  4917  0181  00D6               	movwf	___fldiv@sign
  4918  0182                     l2204:	
  4919  0182  084C               	movf	___fldiv@b+3,w
  4920  0183  00CD               	movwf	??___fldiv
  4921  0184  074D               	addwf	??___fldiv,w
  4922  0185  00CE               	movwf	??___fldiv+1
  4923  0186  084E               	movf	??___fldiv+1,w
  4924  0187  00DD               	movwf	___fldiv@bexp
  4925  0188                     l2206:	
  4926  0188  1FCB               	btfss	___fldiv@b+2,7
  4927  0189  298B               	goto	u2101
  4928  018A  298C               	goto	u2100
  4929  018B                     u2101:	
  4930  018B  298D               	goto	l2210
  4931  018C                     u2100:	
  4932  018C                     l2208:	
  4933  018C  145D               	bsf	___fldiv@bexp,0
  4934  018D                     l2210:	
  4935  018D  085D               	movf	___fldiv@bexp,w
  4936  018E  1903               	btfsc	3,2
  4937  018F  2991               	goto	u2111
  4938  0190  2992               	goto	u2110
  4939  0191                     u2111:	
  4940  0191  29A2               	goto	l2220
  4941  0192                     u2110:	
  4942  0192                     l2212:	
  4943  0192  0A5D               	incf	___fldiv@bexp,w
  4944  0193  1D03               	btfss	3,2
  4945  0194  2996               	goto	u2121
  4946  0195  2997               	goto	u2120
  4947  0196                     u2121:	
  4948  0196  299F               	goto	l2216
  4949  0197                     u2120:	
  4950  0197                     l2214:	
  4951  0197  3000               	movlw	0
  4952  0198  00CC               	movwf	___fldiv@b+3
  4953  0199  3000               	movlw	0
  4954  019A  00CB               	movwf	___fldiv@b+2
  4955  019B  3000               	movlw	0
  4956  019C  00CA               	movwf	___fldiv@b+1
  4957  019D  3000               	movlw	0
  4958  019E  00C9               	movwf	___fldiv@b
  4959  019F                     l2216:	
  4960  019F  17CB               	bsf	___fldiv@b+2,7
  4961  01A0                     l2218:	
  4962  01A0  01CC               	clrf	___fldiv@b+3
  4963  01A1  29AA               	goto	l2222
  4964  01A2                     l2220:	
  4965  01A2  3000               	movlw	0
  4966  01A3  00CC               	movwf	___fldiv@b+3
  4967  01A4  3000               	movlw	0
  4968  01A5  00CB               	movwf	___fldiv@b+2
  4969  01A6  3000               	movlw	0
  4970  01A7  00CA               	movwf	___fldiv@b+1
  4971  01A8  3000               	movlw	0
  4972  01A9  00C9               	movwf	___fldiv@b
  4973  01AA                     l2222:	
  4974  01AA  0848               	movf	___fldiv@a+3,w
  4975  01AB  3980               	andlw	128
  4976  01AC  00CD               	movwf	??___fldiv
  4977  01AD  084D               	movf	??___fldiv,w
  4978  01AE  06D6               	xorwf	___fldiv@sign,f
  4979  01AF                     l2224:	
  4980  01AF  0848               	movf	___fldiv@a+3,w
  4981  01B0  00CD               	movwf	??___fldiv
  4982  01B1  074D               	addwf	??___fldiv,w
  4983  01B2  00CE               	movwf	??___fldiv+1
  4984  01B3  084E               	movf	??___fldiv+1,w
  4985  01B4  00DE               	movwf	___fldiv@aexp
  4986  01B5                     l2226:	
  4987  01B5  1FC7               	btfss	___fldiv@a+2,7
  4988  01B6  29B8               	goto	u2131
  4989  01B7  29B9               	goto	u2130
  4990  01B8                     u2131:	
  4991  01B8  29BA               	goto	l2230
  4992  01B9                     u2130:	
  4993  01B9                     l2228:	
  4994  01B9  145E               	bsf	___fldiv@aexp,0
  4995  01BA                     l2230:	
  4996  01BA  085E               	movf	___fldiv@aexp,w
  4997  01BB  1903               	btfsc	3,2
  4998  01BC  29BE               	goto	u2141
  4999  01BD  29BF               	goto	u2140
  5000  01BE                     u2141:	
  5001  01BE  29CF               	goto	l2240
  5002  01BF                     u2140:	
  5003  01BF                     l2232:	
  5004  01BF  0A5E               	incf	___fldiv@aexp,w
  5005  01C0  1D03               	btfss	3,2
  5006  01C1  29C3               	goto	u2151
  5007  01C2  29C4               	goto	u2150
  5008  01C3                     u2151:	
  5009  01C3  29CC               	goto	l2236
  5010  01C4                     u2150:	
  5011  01C4                     l2234:	
  5012  01C4  3000               	movlw	0
  5013  01C5  00C8               	movwf	___fldiv@a+3
  5014  01C6  3000               	movlw	0
  5015  01C7  00C7               	movwf	___fldiv@a+2
  5016  01C8  3000               	movlw	0
  5017  01C9  00C6               	movwf	___fldiv@a+1
  5018  01CA  3000               	movlw	0
  5019  01CB  00C5               	movwf	___fldiv@a
  5020  01CC                     l2236:	
  5021  01CC  17C7               	bsf	___fldiv@a+2,7
  5022  01CD                     l2238:	
  5023  01CD  01C8               	clrf	___fldiv@a+3
  5024  01CE  29D7               	goto	l693
  5025  01CF                     l2240:	
  5026  01CF  3000               	movlw	0
  5027  01D0  00C8               	movwf	___fldiv@a+3
  5028  01D1  3000               	movlw	0
  5029  01D2  00C7               	movwf	___fldiv@a+2
  5030  01D3  3000               	movlw	0
  5031  01D4  00C6               	movwf	___fldiv@a+1
  5032  01D5  3000               	movlw	0
  5033  01D6  00C5               	movwf	___fldiv@a
  5034  01D7                     l693:	
  5035  01D7  0848               	movf	___fldiv@a+3,w
  5036  01D8  0447               	iorwf	___fldiv@a+2,w
  5037  01D9  0446               	iorwf	___fldiv@a+1,w
  5038  01DA  0445               	iorwf	___fldiv@a,w
  5039  01DB  1D03               	skipz
  5040  01DC  29DE               	goto	u2161
  5041  01DD  29DF               	goto	u2160
  5042  01DE                     u2161:	
  5043  01DE  29F8               	goto	l2250
  5044  01DF                     u2160:	
  5045  01DF                     l2242:	
  5046  01DF  3000               	movlw	0
  5047  01E0  00CC               	movwf	___fldiv@b+3
  5048  01E1  3000               	movlw	0
  5049  01E2  00CB               	movwf	___fldiv@b+2
  5050  01E3  3000               	movlw	0
  5051  01E4  00CA               	movwf	___fldiv@b+1
  5052  01E5  3000               	movlw	0
  5053  01E6  00C9               	movwf	___fldiv@b
  5054  01E7  3080               	movlw	128
  5055  01E8  04CB               	iorwf	___fldiv@b+2,f
  5056  01E9  307F               	movlw	127
  5057  01EA  04CC               	iorwf	___fldiv@b+3,f
  5058  01EB                     l2244:	
  5059  01EB  0856               	movf	___fldiv@sign,w
  5060  01EC  00CD               	movwf	??___fldiv
  5061  01ED  084D               	movf	??___fldiv,w
  5062  01EE  04CC               	iorwf	___fldiv@b+3,f
  5063  01EF                     l2246:	
  5064  01EF  084C               	movf	___fldiv@b+3,w
  5065  01F0  00C8               	movwf	?___fldiv+3
  5066  01F1  084B               	movf	___fldiv@b+2,w
  5067  01F2  00C7               	movwf	?___fldiv+2
  5068  01F3  084A               	movf	___fldiv@b+1,w
  5069  01F4  00C6               	movwf	?___fldiv+1
  5070  01F5  0849               	movf	___fldiv@b,w
  5071  01F6  00C5               	movwf	?___fldiv
  5072  01F7  2B57               	goto	l695
  5073  01F8                     l2250:	
  5074  01F8  085D               	movf	___fldiv@bexp,w
  5075  01F9  1D03               	btfss	3,2
  5076  01FA  29FC               	goto	u2171
  5077  01FB  29FD               	goto	u2170
  5078  01FC                     u2171:	
  5079  01FC  2A06               	goto	l2256
  5080  01FD                     u2170:	
  5081  01FD                     l2252:	
  5082  01FD  3000               	movlw	0
  5083  01FE  00C8               	movwf	?___fldiv+3
  5084  01FF  3000               	movlw	0
  5085  0200  00C7               	movwf	?___fldiv+2
  5086  0201  3000               	movlw	0
  5087  0202  00C6               	movwf	?___fldiv+1
  5088  0203  3000               	movlw	0
  5089  0204  00C5               	movwf	?___fldiv
  5090  0205  2B57               	goto	l695
  5091  0206                     l2256:	
  5092  0206  085D               	movf	___fldiv@bexp,w
  5093  0207  00CD               	movwf	??___fldiv
  5094  0208  01CE               	clrf	??___fldiv+1
  5095  0209  084E               	movf	??___fldiv+1,w
  5096  020A  00D0               	movwf	??___fldiv+3
  5097  020B  085E               	movf	___fldiv@aexp,w
  5098  020C  024D               	subwf	??___fldiv,w
  5099  020D  00CF               	movwf	??___fldiv+2
  5100  020E  1C03               	skipc
  5101  020F  03D0               	decf	??___fldiv+3,f
  5102  0210  084F               	movf	??___fldiv+2,w
  5103  0211  3E7F               	addlw	127
  5104  0212  00D7               	movwf	___fldiv@new_exp
  5105  0213  0850               	movf	??___fldiv+3,w
  5106  0214  1803               	skipnc
  5107  0215  3E01               	addlw	1
  5108  0216  3E00               	addlw	0
  5109  0217  00D8               	movwf	___fldiv@new_exp+1
  5110  0218                     l2258:	
  5111  0218  084C               	movf	___fldiv@b+3,w
  5112  0219  00D5               	movwf	___fldiv@rem+3
  5113  021A  084B               	movf	___fldiv@b+2,w
  5114  021B  00D4               	movwf	___fldiv@rem+2
  5115  021C  084A               	movf	___fldiv@b+1,w
  5116  021D  00D3               	movwf	___fldiv@rem+1
  5117  021E  0849               	movf	___fldiv@b,w
  5118  021F  00D2               	movwf	___fldiv@rem
  5119  0220                     l2260:	
  5120  0220  3000               	movlw	0
  5121  0221  00CC               	movwf	___fldiv@b+3
  5122  0222  3000               	movlw	0
  5123  0223  00CB               	movwf	___fldiv@b+2
  5124  0224  3000               	movlw	0
  5125  0225  00CA               	movwf	___fldiv@b+1
  5126  0226  3000               	movlw	0
  5127  0227  00C9               	movwf	___fldiv@b
  5128  0228                     l2262:	
  5129  0228  3000               	movlw	0
  5130  0229  00DC               	movwf	___fldiv@grs+3
  5131  022A  3000               	movlw	0
  5132  022B  00DB               	movwf	___fldiv@grs+2
  5133  022C  3000               	movlw	0
  5134  022D  00DA               	movwf	___fldiv@grs+1
  5135  022E  3000               	movlw	0
  5136  022F  00D9               	movwf	___fldiv@grs
  5137  0230                     l2264:	
  5138  0230  01DE               	clrf	___fldiv@aexp
  5139  0231  2A7C               	goto	l2284
  5140  0232                     l2266:	
  5141  0232  085E               	movf	___fldiv@aexp,w
  5142  0233  1903               	btfsc	3,2
  5143  0234  2A36               	goto	u2181
  5144  0235  2A37               	goto	u2180
  5145  0236                     u2181:	
  5146  0236  2A57               	goto	l2276
  5147  0237                     u2180:	
  5148  0237                     l2268:	
  5149  0237  3001               	movlw	1
  5150  0238  00CD               	movwf	??___fldiv
  5151  0239                     u2195:	
  5152  0239  1003               	clrc
  5153  023A  0DD2               	rlf	___fldiv@rem,f
  5154  023B  0DD3               	rlf	___fldiv@rem+1,f
  5155  023C  0DD4               	rlf	___fldiv@rem+2,f
  5156  023D  0DD5               	rlf	___fldiv@rem+3,f
  5157  023E  0BCD               	decfsz	??___fldiv,f
  5158  023F  2A39               	goto	u2195
  5159  0240  3001               	movlw	1
  5160  0241  00CD               	movwf	??___fldiv
  5161  0242                     u2205:	
  5162  0242  1003               	clrc
  5163  0243  0DC9               	rlf	___fldiv@b,f
  5164  0244  0DCA               	rlf	___fldiv@b+1,f
  5165  0245  0DCB               	rlf	___fldiv@b+2,f
  5166  0246  0DCC               	rlf	___fldiv@b+3,f
  5167  0247  0BCD               	decfsz	??___fldiv,f
  5168  0248  2A42               	goto	u2205
  5169  0249                     l2270:	
  5170  0249  1FDC               	btfss	___fldiv@grs+3,7
  5171  024A  2A4C               	goto	u2211
  5172  024B  2A4D               	goto	u2210
  5173  024C                     u2211:	
  5174  024C  2A4E               	goto	l2274
  5175  024D                     u2210:	
  5176  024D                     l2272:	
  5177  024D  1449               	bsf	___fldiv@b,0
  5178  024E                     l2274:	
  5179  024E  3001               	movlw	1
  5180  024F  00CD               	movwf	??___fldiv
  5181  0250                     u2225:	
  5182  0250  1003               	clrc
  5183  0251  0DD9               	rlf	___fldiv@grs,f
  5184  0252  0DDA               	rlf	___fldiv@grs+1,f
  5185  0253  0DDB               	rlf	___fldiv@grs+2,f
  5186  0254  0DDC               	rlf	___fldiv@grs+3,f
  5187  0255  0BCD               	decfsz	??___fldiv,f
  5188  0256  2A50               	goto	u2225
  5189  0257                     l2276:	
  5190  0257  0848               	movf	___fldiv@a+3,w
  5191  0258  0255               	subwf	___fldiv@rem+3,w
  5192  0259  1D03               	skipz
  5193  025A  2A65               	goto	u2235
  5194  025B  0847               	movf	___fldiv@a+2,w
  5195  025C  0254               	subwf	___fldiv@rem+2,w
  5196  025D  1D03               	skipz
  5197  025E  2A65               	goto	u2235
  5198  025F  0846               	movf	___fldiv@a+1,w
  5199  0260  0253               	subwf	___fldiv@rem+1,w
  5200  0261  1D03               	skipz
  5201  0262  2A65               	goto	u2235
  5202  0263  0845               	movf	___fldiv@a,w
  5203  0264  0252               	subwf	___fldiv@rem,w
  5204  0265                     u2235:	
  5205  0265  1C03               	skipc
  5206  0266  2A68               	goto	u2231
  5207  0267  2A69               	goto	u2230
  5208  0268                     u2231:	
  5209  0268  2A78               	goto	l2282
  5210  0269                     u2230:	
  5211  0269                     l2278:	
  5212  0269  175C               	bsf	___fldiv@grs+3,6
  5213  026A                     l2280:	
  5214  026A  0845               	movf	___fldiv@a,w
  5215  026B  02D2               	subwf	___fldiv@rem,f
  5216  026C  0846               	movf	___fldiv@a+1,w
  5217  026D  1C03               	skipc
  5218  026E  0F46               	incfsz	___fldiv@a+1,w
  5219  026F  02D3               	subwf	___fldiv@rem+1,f
  5220  0270  0847               	movf	___fldiv@a+2,w
  5221  0271  1C03               	skipc
  5222  0272  0F47               	incfsz	___fldiv@a+2,w
  5223  0273  02D4               	subwf	___fldiv@rem+2,f
  5224  0274  0848               	movf	___fldiv@a+3,w
  5225  0275  1C03               	skipc
  5226  0276  0F48               	incfsz	___fldiv@a+3,w
  5227  0277  02D5               	subwf	___fldiv@rem+3,f
  5228  0278                     l2282:	
  5229  0278  3001               	movlw	1
  5230  0279  00CD               	movwf	??___fldiv
  5231  027A  084D               	movf	??___fldiv,w
  5232  027B  07DE               	addwf	___fldiv@aexp,f
  5233  027C                     l2284:	
  5234  027C  301A               	movlw	26
  5235  027D  025E               	subwf	___fldiv@aexp,w
  5236  027E  1C03               	skipc
  5237  027F  2A81               	goto	u2241
  5238  0280  2A82               	goto	u2240
  5239  0281                     u2241:	
  5240  0281  2A32               	goto	l2266
  5241  0282                     u2240:	
  5242  0282                     l2286:	
  5243  0282  0855               	movf	___fldiv@rem+3,w
  5244  0283  0454               	iorwf	___fldiv@rem+2,w
  5245  0284  0453               	iorwf	___fldiv@rem+1,w
  5246  0285  0452               	iorwf	___fldiv@rem,w
  5247  0286  1903               	skipnz
  5248  0287  2A89               	goto	u2251
  5249  0288  2A8A               	goto	u2250
  5250  0289                     u2251:	
  5251  0289  2AA9               	goto	l2300
  5252  028A                     u2250:	
  5253  028A                     l2288:	
  5254  028A  1459               	bsf	___fldiv@grs,0
  5255  028B  2AA9               	goto	l2300
  5256  028C                     l2290:	
  5257  028C  3001               	movlw	1
  5258  028D  00CD               	movwf	??___fldiv
  5259  028E                     u2265:	
  5260  028E  1003               	clrc
  5261  028F  0DC9               	rlf	___fldiv@b,f
  5262  0290  0DCA               	rlf	___fldiv@b+1,f
  5263  0291  0DCB               	rlf	___fldiv@b+2,f
  5264  0292  0DCC               	rlf	___fldiv@b+3,f
  5265  0293  0BCD               	decfsz	??___fldiv,f
  5266  0294  2A8E               	goto	u2265
  5267  0295                     l2292:	
  5268  0295  1FDC               	btfss	___fldiv@grs+3,7
  5269  0296  2A98               	goto	u2271
  5270  0297  2A99               	goto	u2270
  5271  0298                     u2271:	
  5272  0298  2A9A               	goto	l2296
  5273  0299                     u2270:	
  5274  0299                     l2294:	
  5275  0299  1449               	bsf	___fldiv@b,0
  5276  029A                     l2296:	
  5277  029A  3001               	movlw	1
  5278  029B  00CD               	movwf	??___fldiv
  5279  029C                     u2285:	
  5280  029C  1003               	clrc
  5281  029D  0DD9               	rlf	___fldiv@grs,f
  5282  029E  0DDA               	rlf	___fldiv@grs+1,f
  5283  029F  0DDB               	rlf	___fldiv@grs+2,f
  5284  02A0  0DDC               	rlf	___fldiv@grs+3,f
  5285  02A1  0BCD               	decfsz	??___fldiv,f
  5286  02A2  2A9C               	goto	u2285
  5287  02A3                     l2298:	
  5288  02A3  30FF               	movlw	255
  5289  02A4  07D7               	addwf	___fldiv@new_exp,f
  5290  02A5  1803               	skipnc
  5291  02A6  0AD8               	incf	___fldiv@new_exp+1,f
  5292  02A7  30FF               	movlw	255
  5293  02A8  07D8               	addwf	___fldiv@new_exp+1,f
  5294  02A9                     l2300:	
  5295  02A9  1FCB               	btfss	___fldiv@b+2,7
  5296  02AA  2AAC               	goto	u2291
  5297  02AB  2AAD               	goto	u2290
  5298  02AC                     u2291:	
  5299  02AC  2A8C               	goto	l2290
  5300  02AD                     u2290:	
  5301  02AD                     l2302:	
  5302  02AD  01DE               	clrf	___fldiv@aexp
  5303  02AE                     l2304:	
  5304  02AE  1FDC               	btfss	___fldiv@grs+3,7
  5305  02AF  2AB1               	goto	u2301
  5306  02B0  2AB2               	goto	u2300
  5307  02B1                     u2301:	
  5308  02B1  2ACE               	goto	l2312
  5309  02B2                     u2300:	
  5310  02B2                     l2306:	
  5311  02B2  30FF               	movlw	255
  5312  02B3  0559               	andwf	___fldiv@grs,w
  5313  02B4  00CD               	movwf	??___fldiv
  5314  02B5  30FF               	movlw	255
  5315  02B6  055A               	andwf	___fldiv@grs+1,w
  5316  02B7  00CE               	movwf	??___fldiv+1
  5317  02B8  30FF               	movlw	255
  5318  02B9  055B               	andwf	___fldiv@grs+2,w
  5319  02BA  00CF               	movwf	??___fldiv+2
  5320  02BB  307F               	movlw	127
  5321  02BC  055C               	andwf	___fldiv@grs+3,w
  5322  02BD  00D0               	movwf	??___fldiv+3
  5323  02BE  0850               	movf	??___fldiv+3,w
  5324  02BF  044F               	iorwf	??___fldiv+2,w
  5325  02C0  044E               	iorwf	??___fldiv+1,w
  5326  02C1  044D               	iorwf	??___fldiv,w
  5327  02C2  1903               	skipnz
  5328  02C3  2AC5               	goto	u2311
  5329  02C4  2AC6               	goto	u2310
  5330  02C5                     u2311:	
  5331  02C5  2AC9               	goto	l709
  5332  02C6                     u2310:	
  5333  02C6                     l2308:	
  5334  02C6  01DE               	clrf	___fldiv@aexp
  5335  02C7  0ADE               	incf	___fldiv@aexp,f
  5336  02C8  2ACE               	goto	l2312
  5337  02C9                     l709:	
  5338  02C9  1C49               	btfss	___fldiv@b,0
  5339  02CA  2ACC               	goto	u2321
  5340  02CB  2ACD               	goto	u2320
  5341  02CC                     u2321:	
  5342  02CC  2ACE               	goto	l2312
  5343  02CD                     u2320:	
  5344  02CD  2AC6               	goto	l2308
  5345  02CE                     l2312:	
  5346  02CE  085E               	movf	___fldiv@aexp,w
  5347  02CF  1903               	btfsc	3,2
  5348  02D0  2AD2               	goto	u2331
  5349  02D1  2AD3               	goto	u2330
  5350  02D2                     u2331:	
  5351  02D2  2B04               	goto	l2322
  5352  02D3                     u2330:	
  5353  02D3                     l2314:	
  5354  02D3  3001               	movlw	1
  5355  02D4  07C9               	addwf	___fldiv@b,f
  5356  02D5  3000               	movlw	0
  5357  02D6  1803               	skipnc
  5358  02D7  3001               	movlw	1
  5359  02D8  07CA               	addwf	___fldiv@b+1,f
  5360  02D9  3000               	movlw	0
  5361  02DA  1803               	skipnc
  5362  02DB  3001               	movlw	1
  5363  02DC  07CB               	addwf	___fldiv@b+2,f
  5364  02DD  3000               	movlw	0
  5365  02DE  1803               	skipnc
  5366  02DF  3001               	movlw	1
  5367  02E0  07CC               	addwf	___fldiv@b+3,f
  5368  02E1                     l2316:	
  5369  02E1  1C4C               	btfss	___fldiv@b+3,0
  5370  02E2  2AE4               	goto	u2341
  5371  02E3  2AE5               	goto	u2340
  5372  02E4                     u2341:	
  5373  02E4  2B04               	goto	l2322
  5374  02E5                     u2340:	
  5375  02E5                     l2318:	
  5376  02E5  0849               	movf	___fldiv@b,w
  5377  02E6  00CD               	movwf	??___fldiv
  5378  02E7  084A               	movf	___fldiv@b+1,w
  5379  02E8  00CE               	movwf	??___fldiv+1
  5380  02E9  084B               	movf	___fldiv@b+2,w
  5381  02EA  00CF               	movwf	??___fldiv+2
  5382  02EB  084C               	movf	___fldiv@b+3,w
  5383  02EC  00D0               	movwf	??___fldiv+3
  5384  02ED  3001               	movlw	1
  5385  02EE  00D1               	movwf	??___fldiv+4
  5386  02EF                     u2355:	
  5387  02EF  0D50               	rlf	??___fldiv+3,w
  5388  02F0  0CD0               	rrf	??___fldiv+3,f
  5389  02F1  0CCF               	rrf	??___fldiv+2,f
  5390  02F2  0CCE               	rrf	??___fldiv+1,f
  5391  02F3  0CCD               	rrf	??___fldiv,f
  5392  02F4                     u2350:	
  5393  02F4  0BD1               	decfsz	??___fldiv+4,f
  5394  02F5  2AEF               	goto	u2355
  5395  02F6  0850               	movf	??___fldiv+3,w
  5396  02F7  00CC               	movwf	___fldiv@b+3
  5397  02F8  084F               	movf	??___fldiv+2,w
  5398  02F9  00CB               	movwf	___fldiv@b+2
  5399  02FA  084E               	movf	??___fldiv+1,w
  5400  02FB  00CA               	movwf	___fldiv@b+1
  5401  02FC  084D               	movf	??___fldiv,w
  5402  02FD  00C9               	movwf	___fldiv@b
  5403  02FE                     l2320:	
  5404  02FE  3001               	movlw	1
  5405  02FF  07D7               	addwf	___fldiv@new_exp,f
  5406  0300  1803               	skipnc
  5407  0301  0AD8               	incf	___fldiv@new_exp+1,f
  5408  0302  3000               	movlw	0
  5409  0303  07D8               	addwf	___fldiv@new_exp+1,f
  5410  0304                     l2322:	
  5411  0304  0858               	movf	___fldiv@new_exp+1,w
  5412  0305  3A80               	xorlw	128
  5413  0306  00FF               	movwf	btemp+1
  5414  0307  3080               	movlw	128
  5415  0308  027F               	subwf	btemp+1,w
  5416  0309  1D03               	skipz
  5417  030A  2B0D               	goto	u2365
  5418  030B  30FF               	movlw	255
  5419  030C  0257               	subwf	___fldiv@new_exp,w
  5420  030D                     u2365:	
  5421  030D  1C03               	skipc
  5422  030E  2B10               	goto	u2361
  5423  030F  2B11               	goto	u2360
  5424  0310                     u2361:	
  5425  0310  2B1F               	goto	l2326
  5426  0311                     u2360:	
  5427  0311                     l2324:	
  5428  0311  30FF               	movlw	255
  5429  0312  1283               	bcf	3,5	;RP0=0, select bank0
  5430  0313  1303               	bcf	3,6	;RP1=0, select bank0
  5431  0314  00D7               	movwf	___fldiv@new_exp
  5432  0315  3000               	movlw	0
  5433  0316  00D8               	movwf	___fldiv@new_exp+1
  5434  0317  3000               	movlw	0
  5435  0318  00CC               	movwf	___fldiv@b+3
  5436  0319  3000               	movlw	0
  5437  031A  00CB               	movwf	___fldiv@b+2
  5438  031B  3000               	movlw	0
  5439  031C  00CA               	movwf	___fldiv@b+1
  5440  031D  3000               	movlw	0
  5441  031E  00C9               	movwf	___fldiv@b
  5442  031F                     l2326:	
  5443  031F  1283               	bcf	3,5	;RP0=0, select bank0
  5444  0320  1303               	bcf	3,6	;RP1=0, select bank0
  5445  0321  0858               	movf	___fldiv@new_exp+1,w
  5446  0322  3A80               	xorlw	128
  5447  0323  00FF               	movwf	btemp+1
  5448  0324  3080               	movlw	128
  5449  0325  027F               	subwf	btemp+1,w
  5450  0326  1D03               	skipz
  5451  0327  2B2A               	goto	u2375
  5452  0328  3001               	movlw	1
  5453  0329  0257               	subwf	___fldiv@new_exp,w
  5454  032A                     u2375:	
  5455  032A  1803               	skipnc
  5456  032B  2B2D               	goto	u2371
  5457  032C  2B2E               	goto	u2370
  5458  032D                     u2371:	
  5459  032D  2B3B               	goto	l715
  5460  032E                     u2370:	
  5461  032E                     l2328:	
  5462  032E  1283               	bcf	3,5	;RP0=0, select bank0
  5463  032F  1303               	bcf	3,6	;RP1=0, select bank0
  5464  0330  01D7               	clrf	___fldiv@new_exp
  5465  0331  01D8               	clrf	___fldiv@new_exp+1
  5466  0332                     l2330:	
  5467  0332  3000               	movlw	0
  5468  0333  00CC               	movwf	___fldiv@b+3
  5469  0334  3000               	movlw	0
  5470  0335  00CB               	movwf	___fldiv@b+2
  5471  0336  3000               	movlw	0
  5472  0337  00CA               	movwf	___fldiv@b+1
  5473  0338  3000               	movlw	0
  5474  0339  00C9               	movwf	___fldiv@b
  5475  033A                     l2332:	
  5476  033A  01D6               	clrf	___fldiv@sign
  5477  033B                     l715:	
  5478  033B  1283               	bcf	3,5	;RP0=0, select bank0
  5479  033C  1303               	bcf	3,6	;RP1=0, select bank0
  5480  033D  0857               	movf	___fldiv@new_exp,w
  5481  033E  00CD               	movwf	??___fldiv
  5482  033F  084D               	movf	??___fldiv,w
  5483  0340  00DD               	movwf	___fldiv@bexp
  5484  0341                     l2334:	
  5485  0341  1C5D               	btfss	___fldiv@bexp,0
  5486  0342  2B44               	goto	u2381
  5487  0343  2B45               	goto	u2380
  5488  0344                     u2381:	
  5489  0344  2B47               	goto	l2338
  5490  0345                     u2380:	
  5491  0345                     l2336:	
  5492  0345  17CB               	bsf	___fldiv@b+2,7
  5493  0346  2B4B               	goto	l717
  5494  0347                     l2338:	
  5495  0347  307F               	movlw	127
  5496  0348  00CD               	movwf	??___fldiv
  5497  0349  084D               	movf	??___fldiv,w
  5498  034A  05CB               	andwf	___fldiv@b+2,f
  5499  034B                     l717:	
  5500  034B  085D               	movf	___fldiv@bexp,w
  5501  034C  00CD               	movwf	??___fldiv
  5502  034D  1003               	clrc
  5503  034E  0C4D               	rrf	??___fldiv,w
  5504  034F  00CE               	movwf	??___fldiv+1
  5505  0350  084E               	movf	??___fldiv+1,w
  5506  0351  00CC               	movwf	___fldiv@b+3
  5507  0352  0856               	movf	___fldiv@sign,w
  5508  0353  00CD               	movwf	??___fldiv
  5509  0354  084D               	movf	??___fldiv,w
  5510  0355  04CC               	iorwf	___fldiv@b+3,f
  5511  0356  29EF               	goto	l2246
  5512  0357                     l695:	
  5513  0357  0008               	return
  5514  0358                     __end_of___fldiv:	
  5515                           
  5516                           	psect	text15
  5517  0B1D                     __ptext15:	
  5518 ;; *************** function ___awmod *****************
  5519 ;; Defined at:
  5520 ;;		line 5 in file "C:\Program Files (x86)\Microchip\xc8\v2.10\pic\sources\c90\common\awmod.c"
  5521 ;; Parameters:    Size  Location     Type
  5522 ;;  divisor         2    0[COMMON] int 
  5523 ;;  dividend        2    2[COMMON] int 
  5524 ;; Auto vars:     Size  Location     Type
  5525 ;;  sign            1    6[COMMON] unsigned char 
  5526 ;;  counter         1    5[COMMON] unsigned char 
  5527 ;; Return value:  Size  Location     Type
  5528 ;;                  2    0[COMMON] int 
  5529 ;; Registers used:
  5530 ;;		wreg, status,2, status,0
  5531 ;; Tracked objects:
  5532 ;;		On entry : 0/0
  5533 ;;		On exit  : 0/0
  5534 ;;		Unchanged: 0/0
  5535 ;; Data sizes:     COMMON   BANK0   BANK1   BANK3   BANK2
  5536 ;;      Params:         4       0       0       0       0
  5537 ;;      Locals:         2       0       0       0       0
  5538 ;;      Temps:          1       0       0       0       0
  5539 ;;      Totals:         7       0       0       0       0
  5540 ;;Total ram usage:        7 bytes
  5541 ;; Hardware stack levels used:    1
  5542 ;; This function calls:
  5543 ;;		Nothing
  5544 ;; This function is called by:
  5545 ;;		_main
  5546 ;; This function uses a non-reentrant model
  5547 ;;
  5548                           
  5549                           
  5550                           ;psect for function ___awmod
  5551  0B1D                     ___awmod:	
  5552  0B1D                     l2080:	
  5553                           ;incstack = 0
  5554                           ; Regs used in ___awmod: [wreg+status,2+status,0]
  5555                           
  5556  0B1D  01F6               	clrf	___awmod@sign
  5557  0B1E                     l2082:	
  5558  0B1E  1FF3               	btfss	___awmod@dividend+1,7
  5559  0B1F  2B21               	goto	u1781
  5560  0B20  2B22               	goto	u1780
  5561  0B21                     u1781:	
  5562  0B21  2B29               	goto	l2088
  5563  0B22                     u1780:	
  5564  0B22                     l2084:	
  5565  0B22  09F2               	comf	___awmod@dividend,f
  5566  0B23  09F3               	comf	___awmod@dividend+1,f
  5567  0B24  0AF2               	incf	___awmod@dividend,f
  5568  0B25  1903               	skipnz
  5569  0B26  0AF3               	incf	___awmod@dividend+1,f
  5570  0B27                     l2086:	
  5571  0B27  01F6               	clrf	___awmod@sign
  5572  0B28  0AF6               	incf	___awmod@sign,f
  5573  0B29                     l2088:	
  5574  0B29  1FF1               	btfss	___awmod@divisor+1,7
  5575  0B2A  2B2C               	goto	u1791
  5576  0B2B  2B2D               	goto	u1790
  5577  0B2C                     u1791:	
  5578  0B2C  2B32               	goto	l2092
  5579  0B2D                     u1790:	
  5580  0B2D                     l2090:	
  5581  0B2D  09F0               	comf	___awmod@divisor,f
  5582  0B2E  09F1               	comf	___awmod@divisor+1,f
  5583  0B2F  0AF0               	incf	___awmod@divisor,f
  5584  0B30  1903               	skipnz
  5585  0B31  0AF1               	incf	___awmod@divisor+1,f
  5586  0B32                     l2092:	
  5587  0B32  0870               	movf	___awmod@divisor,w
  5588  0B33  0471               	iorwf	___awmod@divisor+1,w
  5589  0B34  1903               	btfsc	3,2
  5590  0B35  2B37               	goto	u1801
  5591  0B36  2B38               	goto	u1800
  5592  0B37                     u1801:	
  5593  0B37  2B67               	goto	l2110
  5594  0B38                     u1800:	
  5595  0B38                     l2094:	
  5596  0B38  01F5               	clrf	___awmod@counter
  5597  0B39  0AF5               	incf	___awmod@counter,f
  5598  0B3A  2B46               	goto	l2100
  5599  0B3B                     l2096:	
  5600  0B3B  3001               	movlw	1
  5601  0B3C                     u1815:	
  5602  0B3C  1003               	clrc
  5603  0B3D  0DF0               	rlf	___awmod@divisor,f
  5604  0B3E  0DF1               	rlf	___awmod@divisor+1,f
  5605  0B3F  3EFF               	addlw	-1
  5606  0B40  1D03               	skipz
  5607  0B41  2B3C               	goto	u1815
  5608  0B42                     l2098:	
  5609  0B42  3001               	movlw	1
  5610  0B43  00F4               	movwf	??___awmod
  5611  0B44  0874               	movf	??___awmod,w
  5612  0B45  07F5               	addwf	___awmod@counter,f
  5613  0B46                     l2100:	
  5614  0B46  1FF1               	btfss	___awmod@divisor+1,7
  5615  0B47  2B49               	goto	u1821
  5616  0B48  2B4A               	goto	u1820
  5617  0B49                     u1821:	
  5618  0B49  2B3B               	goto	l2096
  5619  0B4A                     u1820:	
  5620  0B4A                     l2102:	
  5621  0B4A  0871               	movf	___awmod@divisor+1,w
  5622  0B4B  0273               	subwf	___awmod@dividend+1,w
  5623  0B4C  1D03               	skipz
  5624  0B4D  2B50               	goto	u1835
  5625  0B4E  0870               	movf	___awmod@divisor,w
  5626  0B4F  0272               	subwf	___awmod@dividend,w
  5627  0B50                     u1835:	
  5628  0B50  1C03               	skipc
  5629  0B51  2B53               	goto	u1831
  5630  0B52  2B54               	goto	u1830
  5631  0B53                     u1831:	
  5632  0B53  2B5A               	goto	l2106
  5633  0B54                     u1830:	
  5634  0B54                     l2104:	
  5635  0B54  0870               	movf	___awmod@divisor,w
  5636  0B55  02F2               	subwf	___awmod@dividend,f
  5637  0B56  0871               	movf	___awmod@divisor+1,w
  5638  0B57  1C03               	skipc
  5639  0B58  03F3               	decf	___awmod@dividend+1,f
  5640  0B59  02F3               	subwf	___awmod@dividend+1,f
  5641  0B5A                     l2106:	
  5642  0B5A  3001               	movlw	1
  5643  0B5B                     u1845:	
  5644  0B5B  1003               	clrc
  5645  0B5C  0CF1               	rrf	___awmod@divisor+1,f
  5646  0B5D  0CF0               	rrf	___awmod@divisor,f
  5647  0B5E  3EFF               	addlw	-1
  5648  0B5F  1D03               	skipz
  5649  0B60  2B5B               	goto	u1845
  5650  0B61                     l2108:	
  5651  0B61  3001               	movlw	1
  5652  0B62  02F5               	subwf	___awmod@counter,f
  5653  0B63  1D03               	btfss	3,2
  5654  0B64  2B66               	goto	u1851
  5655  0B65  2B67               	goto	u1850
  5656  0B66                     u1851:	
  5657  0B66  2B4A               	goto	l2102
  5658  0B67                     u1850:	
  5659  0B67                     l2110:	
  5660  0B67  0876               	movf	___awmod@sign,w
  5661  0B68  1903               	btfsc	3,2
  5662  0B69  2B6B               	goto	u1861
  5663  0B6A  2B6C               	goto	u1860
  5664  0B6B                     u1861:	
  5665  0B6B  2B71               	goto	l2114
  5666  0B6C                     u1860:	
  5667  0B6C                     l2112:	
  5668  0B6C  09F2               	comf	___awmod@dividend,f
  5669  0B6D  09F3               	comf	___awmod@dividend+1,f
  5670  0B6E  0AF2               	incf	___awmod@dividend,f
  5671  0B6F  1903               	skipnz
  5672  0B70  0AF3               	incf	___awmod@dividend+1,f
  5673  0B71                     l2114:	
  5674  0B71  0873               	movf	___awmod@dividend+1,w
  5675  0B72  00F1               	movwf	?___awmod+1
  5676  0B73  0872               	movf	___awmod@dividend,w
  5677  0B74  00F0               	movwf	?___awmod
  5678  0B75                     l510:	
  5679  0B75  0008               	return
  5680  0B76                     __end_of___awmod:	
  5681                           
  5682                           	psect	text16
  5683  0C38                     __ptext16:	
  5684 ;; *************** function ___awdiv *****************
  5685 ;; Defined at:
  5686 ;;		line 5 in file "C:\Program Files (x86)\Microchip\xc8\v2.10\pic\sources\c90\common\awdiv.c"
  5687 ;; Parameters:    Size  Location     Type
  5688 ;;  divisor         2    0[COMMON] int 
  5689 ;;  dividend        2    2[COMMON] int 
  5690 ;; Auto vars:     Size  Location     Type
  5691 ;;  quotient        2    7[COMMON] int 
  5692 ;;  sign            1    6[COMMON] unsigned char 
  5693 ;;  counter         1    5[COMMON] unsigned char 
  5694 ;; Return value:  Size  Location     Type
  5695 ;;                  2    0[COMMON] int 
  5696 ;; Registers used:
  5697 ;;		wreg, status,2, status,0
  5698 ;; Tracked objects:
  5699 ;;		On entry : 0/0
  5700 ;;		On exit  : 0/0
  5701 ;;		Unchanged: 0/0
  5702 ;; Data sizes:     COMMON   BANK0   BANK1   BANK3   BANK2
  5703 ;;      Params:         4       0       0       0       0
  5704 ;;      Locals:         4       0       0       0       0
  5705 ;;      Temps:          1       0       0       0       0
  5706 ;;      Totals:         9       0       0       0       0
  5707 ;;Total ram usage:        9 bytes
  5708 ;; Hardware stack levels used:    1
  5709 ;; This function calls:
  5710 ;;		Nothing
  5711 ;; This function is called by:
  5712 ;;		_main
  5713 ;; This function uses a non-reentrant model
  5714 ;;
  5715                           
  5716                           
  5717                           ;psect for function ___awdiv
  5718  0C38                     ___awdiv:	
  5719  0C38                     l2036:	
  5720                           ;incstack = 0
  5721                           ; Regs used in ___awdiv: [wreg+status,2+status,0]
  5722                           
  5723  0C38  01F6               	clrf	___awdiv@sign
  5724  0C39                     l2038:	
  5725  0C39  1FF1               	btfss	___awdiv@divisor+1,7
  5726  0C3A  2C3C               	goto	u1681
  5727  0C3B  2C3D               	goto	u1680
  5728  0C3C                     u1681:	
  5729  0C3C  2C44               	goto	l2044
  5730  0C3D                     u1680:	
  5731  0C3D                     l2040:	
  5732  0C3D  09F0               	comf	___awdiv@divisor,f
  5733  0C3E  09F1               	comf	___awdiv@divisor+1,f
  5734  0C3F  0AF0               	incf	___awdiv@divisor,f
  5735  0C40  1903               	skipnz
  5736  0C41  0AF1               	incf	___awdiv@divisor+1,f
  5737  0C42                     l2042:	
  5738  0C42  01F6               	clrf	___awdiv@sign
  5739  0C43  0AF6               	incf	___awdiv@sign,f
  5740  0C44                     l2044:	
  5741  0C44  1FF3               	btfss	___awdiv@dividend+1,7
  5742  0C45  2C47               	goto	u1691
  5743  0C46  2C48               	goto	u1690
  5744  0C47                     u1691:	
  5745  0C47  2C51               	goto	l2050
  5746  0C48                     u1690:	
  5747  0C48                     l2046:	
  5748  0C48  09F2               	comf	___awdiv@dividend,f
  5749  0C49  09F3               	comf	___awdiv@dividend+1,f
  5750  0C4A  0AF2               	incf	___awdiv@dividend,f
  5751  0C4B  1903               	skipnz
  5752  0C4C  0AF3               	incf	___awdiv@dividend+1,f
  5753  0C4D                     l2048:	
  5754  0C4D  3001               	movlw	1
  5755  0C4E  00F4               	movwf	??___awdiv
  5756  0C4F  0874               	movf	??___awdiv,w
  5757  0C50  06F6               	xorwf	___awdiv@sign,f
  5758  0C51                     l2050:	
  5759  0C51  01F7               	clrf	___awdiv@quotient
  5760  0C52  01F8               	clrf	___awdiv@quotient+1
  5761  0C53                     l2052:	
  5762  0C53  0870               	movf	___awdiv@divisor,w
  5763  0C54  0471               	iorwf	___awdiv@divisor+1,w
  5764  0C55  1903               	btfsc	3,2
  5765  0C56  2C58               	goto	u1701
  5766  0C57  2C59               	goto	u1700
  5767  0C58                     u1701:	
  5768  0C58  2C90               	goto	l2072
  5769  0C59                     u1700:	
  5770  0C59                     l2054:	
  5771  0C59  01F5               	clrf	___awdiv@counter
  5772  0C5A  0AF5               	incf	___awdiv@counter,f
  5773  0C5B  2C67               	goto	l2060
  5774  0C5C                     l2056:	
  5775  0C5C  3001               	movlw	1
  5776  0C5D                     u1715:	
  5777  0C5D  1003               	clrc
  5778  0C5E  0DF0               	rlf	___awdiv@divisor,f
  5779  0C5F  0DF1               	rlf	___awdiv@divisor+1,f
  5780  0C60  3EFF               	addlw	-1
  5781  0C61  1D03               	skipz
  5782  0C62  2C5D               	goto	u1715
  5783  0C63                     l2058:	
  5784  0C63  3001               	movlw	1
  5785  0C64  00F4               	movwf	??___awdiv
  5786  0C65  0874               	movf	??___awdiv,w
  5787  0C66  07F5               	addwf	___awdiv@counter,f
  5788  0C67                     l2060:	
  5789  0C67  1FF1               	btfss	___awdiv@divisor+1,7
  5790  0C68  2C6A               	goto	u1721
  5791  0C69  2C6B               	goto	u1720
  5792  0C6A                     u1721:	
  5793  0C6A  2C5C               	goto	l2056
  5794  0C6B                     u1720:	
  5795  0C6B                     l2062:	
  5796  0C6B  3001               	movlw	1
  5797  0C6C                     u1735:	
  5798  0C6C  1003               	clrc
  5799  0C6D  0DF7               	rlf	___awdiv@quotient,f
  5800  0C6E  0DF8               	rlf	___awdiv@quotient+1,f
  5801  0C6F  3EFF               	addlw	-1
  5802  0C70  1D03               	skipz
  5803  0C71  2C6C               	goto	u1735
  5804  0C72  0871               	movf	___awdiv@divisor+1,w
  5805  0C73  0273               	subwf	___awdiv@dividend+1,w
  5806  0C74  1D03               	skipz
  5807  0C75  2C78               	goto	u1745
  5808  0C76  0870               	movf	___awdiv@divisor,w
  5809  0C77  0272               	subwf	___awdiv@dividend,w
  5810  0C78                     u1745:	
  5811  0C78  1C03               	skipc
  5812  0C79  2C7B               	goto	u1741
  5813  0C7A  2C7C               	goto	u1740
  5814  0C7B                     u1741:	
  5815  0C7B  2C83               	goto	l2068
  5816  0C7C                     u1740:	
  5817  0C7C                     l2064:	
  5818  0C7C  0870               	movf	___awdiv@divisor,w
  5819  0C7D  02F2               	subwf	___awdiv@dividend,f
  5820  0C7E  0871               	movf	___awdiv@divisor+1,w
  5821  0C7F  1C03               	skipc
  5822  0C80  03F3               	decf	___awdiv@dividend+1,f
  5823  0C81  02F3               	subwf	___awdiv@dividend+1,f
  5824  0C82                     l2066:	
  5825  0C82  1477               	bsf	___awdiv@quotient,0
  5826  0C83                     l2068:	
  5827  0C83  3001               	movlw	1
  5828  0C84                     u1755:	
  5829  0C84  1003               	clrc
  5830  0C85  0CF1               	rrf	___awdiv@divisor+1,f
  5831  0C86  0CF0               	rrf	___awdiv@divisor,f
  5832  0C87  3EFF               	addlw	-1
  5833  0C88  1D03               	skipz
  5834  0C89  2C84               	goto	u1755
  5835  0C8A                     l2070:	
  5836  0C8A  3001               	movlw	1
  5837  0C8B  02F5               	subwf	___awdiv@counter,f
  5838  0C8C  1D03               	btfss	3,2
  5839  0C8D  2C8F               	goto	u1761
  5840  0C8E  2C90               	goto	u1760
  5841  0C8F                     u1761:	
  5842  0C8F  2C6B               	goto	l2062
  5843  0C90                     u1760:	
  5844  0C90                     l2072:	
  5845  0C90  0876               	movf	___awdiv@sign,w
  5846  0C91  1903               	btfsc	3,2
  5847  0C92  2C94               	goto	u1771
  5848  0C93  2C95               	goto	u1770
  5849  0C94                     u1771:	
  5850  0C94  2C9A               	goto	l2076
  5851  0C95                     u1770:	
  5852  0C95                     l2074:	
  5853  0C95  09F7               	comf	___awdiv@quotient,f
  5854  0C96  09F8               	comf	___awdiv@quotient+1,f
  5855  0C97  0AF7               	incf	___awdiv@quotient,f
  5856  0C98  1903               	skipnz
  5857  0C99  0AF8               	incf	___awdiv@quotient+1,f
  5858  0C9A                     l2076:	
  5859  0C9A  0878               	movf	___awdiv@quotient+1,w
  5860  0C9B  00F1               	movwf	?___awdiv+1
  5861  0C9C  0877               	movf	___awdiv@quotient,w
  5862  0C9D  00F0               	movwf	?___awdiv
  5863  0C9E                     l497:	
  5864  0C9E  0008               	return
  5865  0C9F                     __end_of___awdiv:	
  5866                           
  5867                           	psect	text17
  5868  0ADE                     __ptext17:	
  5869 ;; *************** function _Val_STR *****************
  5870 ;; Defined at:
  5871 ;;		line 285 in file "MASTER_Proyecto.c"
  5872 ;; Parameters:    Size  Location     Type
  5873 ;;  num             1    wreg     unsigned char 
  5874 ;; Auto vars:     Size  Location     Type
  5875 ;;  num             1    2[COMMON] unsigned char 
  5876 ;; Return value:  Size  Location     Type
  5877 ;;                  1    wreg      unsigned char 
  5878 ;; Registers used:
  5879 ;;		wreg, fsr0l, fsr0h, status,2, status,0
  5880 ;; Tracked objects:
  5881 ;;		On entry : 0/0
  5882 ;;		On exit  : 0/0
  5883 ;;		Unchanged: 0/0
  5884 ;; Data sizes:     COMMON   BANK0   BANK1   BANK3   BANK2
  5885 ;;      Params:         0       0       0       0       0
  5886 ;;      Locals:         1       0       0       0       0
  5887 ;;      Temps:          2       0       0       0       0
  5888 ;;      Totals:         3       0       0       0       0
  5889 ;;Total ram usage:        3 bytes
  5890 ;; Hardware stack levels used:    1
  5891 ;; This function calls:
  5892 ;;		Nothing
  5893 ;; This function is called by:
  5894 ;;		_main
  5895 ;; This function uses a non-reentrant model
  5896 ;;
  5897                           
  5898                           
  5899                           ;psect for function _Val_STR
  5900  0ADE                     _Val_STR:	
  5901                           
  5902                           ;incstack = 0
  5903                           ; Regs used in _Val_STR: [wreg-fsr0h+status,2+status,0]
  5904                           ;Val_STR@num stored from wreg
  5905  0ADE  00F2               	movwf	Val_STR@num
  5906  0ADF                     l1986:	
  5907                           
  5908                           ;MASTER_Proyecto.c: 286:     switch(num){
  5909  0ADF  2AF4               	goto	l2030
  5910  0AE0                     l1988:	
  5911                           
  5912                           ;MASTER_Proyecto.c: 288:             return '0';
  5913  0AE0  3030               	movlw	48
  5914  0AE1  2B1C               	goto	l106
  5915  0AE2                     l1992:	
  5916                           
  5917                           ;MASTER_Proyecto.c: 291:             return '1';
  5918  0AE2  3031               	movlw	49
  5919  0AE3  2B1C               	goto	l106
  5920  0AE4                     l1996:	
  5921                           
  5922                           ;MASTER_Proyecto.c: 294:             return '2';
  5923  0AE4  3032               	movlw	50
  5924  0AE5  2B1C               	goto	l106
  5925  0AE6                     l2000:	
  5926                           
  5927                           ;MASTER_Proyecto.c: 297:             return '3';
  5928  0AE6  3033               	movlw	51
  5929  0AE7  2B1C               	goto	l106
  5930  0AE8                     l2004:	
  5931                           
  5932                           ;MASTER_Proyecto.c: 300:             return '4';
  5933  0AE8  3034               	movlw	52
  5934  0AE9  2B1C               	goto	l106
  5935  0AEA                     l2008:	
  5936                           
  5937                           ;MASTER_Proyecto.c: 303:             return '5';
  5938  0AEA  3035               	movlw	53
  5939  0AEB  2B1C               	goto	l106
  5940  0AEC                     l2012:	
  5941                           
  5942                           ;MASTER_Proyecto.c: 306:             return '6';
  5943  0AEC  3036               	movlw	54
  5944  0AED  2B1C               	goto	l106
  5945  0AEE                     l2016:	
  5946                           
  5947                           ;MASTER_Proyecto.c: 309:             return '7';
  5948  0AEE  3037               	movlw	55
  5949  0AEF  2B1C               	goto	l106
  5950  0AF0                     l2020:	
  5951                           
  5952                           ;MASTER_Proyecto.c: 312:             return '8';
  5953  0AF0  3038               	movlw	56
  5954  0AF1  2B1C               	goto	l106
  5955  0AF2                     l2024:	
  5956                           
  5957                           ;MASTER_Proyecto.c: 315:             return '9';
  5958  0AF2  3039               	movlw	57
  5959  0AF3  2B1C               	goto	l106
  5960  0AF4                     l2030:	
  5961  0AF4  0872               	movf	Val_STR@num,w
  5962  0AF5  00F0               	movwf	??_Val_STR
  5963  0AF6  01F1               	clrf	??_Val_STR+1
  5964                           
  5965                           ; Switch on 2 bytes has been partitioned into a top level switch of size 1, and 1 sub-sw
      +                          itches
  5966                           ; Switch size 1, requested type "simple"
  5967                           ; Number of cases is 1, Range of values is 0 to 0
  5968                           ; switch strategies available:
  5969                           ; Name         Instructions Cycles
  5970                           ; simple_byte            4     3 (average)
  5971                           ; direct_byte           11     8 (fixed)
  5972                           ; jumptable            260     6 (fixed)
  5973                           ;	Chosen strategy is simple_byte
  5974  0AF7  0871               	movf	??_Val_STR+1,w
  5975  0AF8  3A00               	xorlw	0	; case 0
  5976  0AF9  1903               	skipnz
  5977  0AFA  2AFC               	goto	l2748
  5978  0AFB  2B1C               	goto	l106
  5979  0AFC                     l2748:	
  5980                           
  5981                           ; Switch size 1, requested type "simple"
  5982                           ; Number of cases is 10, Range of values is 0 to 9
  5983                           ; switch strategies available:
  5984                           ; Name         Instructions Cycles
  5985                           ; simple_byte           31    16 (average)
  5986                           ; direct_byte           38     8 (fixed)
  5987                           ; jumptable            260     6 (fixed)
  5988                           ;	Chosen strategy is simple_byte
  5989  0AFC  0870               	movf	??_Val_STR,w
  5990  0AFD  3A00               	xorlw	0	; case 0
  5991  0AFE  1903               	skipnz
  5992  0AFF  2AE0               	goto	l1988
  5993  0B00  3A01               	xorlw	1	; case 1
  5994  0B01  1903               	skipnz
  5995  0B02  2AE2               	goto	l1992
  5996  0B03  3A03               	xorlw	3	; case 2
  5997  0B04  1903               	skipnz
  5998  0B05  2AE4               	goto	l1996
  5999  0B06  3A01               	xorlw	1	; case 3
  6000  0B07  1903               	skipnz
  6001  0B08  2AE6               	goto	l2000
  6002  0B09  3A07               	xorlw	7	; case 4
  6003  0B0A  1903               	skipnz
  6004  0B0B  2AE8               	goto	l2004
  6005  0B0C  3A01               	xorlw	1	; case 5
  6006  0B0D  1903               	skipnz
  6007  0B0E  2AEA               	goto	l2008
  6008  0B0F  3A03               	xorlw	3	; case 6
  6009  0B10  1903               	skipnz
  6010  0B11  2AEC               	goto	l2012
  6011  0B12  3A01               	xorlw	1	; case 7
  6012  0B13  1903               	skipnz
  6013  0B14  2AEE               	goto	l2016
  6014  0B15  3A0F               	xorlw	15	; case 8
  6015  0B16  1903               	skipnz
  6016  0B17  2AF0               	goto	l2020
  6017  0B18  3A01               	xorlw	1	; case 9
  6018  0B19  1903               	skipnz
  6019  0B1A  2AF2               	goto	l2024
  6020  0B1B  2B1C               	goto	l106
  6021  0B1C                     l106:	
  6022  0B1C  0008               	return
  6023  0B1D                     __end_of_Val_STR:	
  6024                           
  6025                           	psect	text18
  6026  0A3E                     __ptext18:	
  6027 ;; *************** function _LCD_POINT *****************
  6028 ;; Defined at:
  6029 ;;		line 79 in file "LCD.c"
  6030 ;; Parameters:    Size  Location     Type
  6031 ;;  lin             1    wreg     unsigned char 
  6032 ;;  col             1    3[COMMON] unsigned char 
  6033 ;; Auto vars:     Size  Location     Type
  6034 ;;  lin             1    8[COMMON] unsigned char 
  6035 ;; Return value:  Size  Location     Type
  6036 ;;                  1    wreg      void 
  6037 ;; Registers used:
  6038 ;;		wreg, status,2, status,0, pclath, cstack
  6039 ;; Tracked objects:
  6040 ;;		On entry : 0/0
  6041 ;;		On exit  : 0/0
  6042 ;;		Unchanged: 0/0
  6043 ;; Data sizes:     COMMON   BANK0   BANK1   BANK3   BANK2
  6044 ;;      Params:         1       0       0       0       0
  6045 ;;      Locals:         3       0       0       0       0
  6046 ;;      Temps:          2       0       0       0       0
  6047 ;;      Totals:         6       0       0       0       0
  6048 ;;Total ram usage:        6 bytes
  6049 ;; Hardware stack levels used:    1
  6050 ;; Hardware stack levels required when called:    2
  6051 ;; This function calls:
  6052 ;;		_lcd_cmd
  6053 ;; This function is called by:
  6054 ;;		_main
  6055 ;; This function uses a non-reentrant model
  6056 ;;
  6057                           
  6058                           
  6059                           ;psect for function _LCD_POINT
  6060  0A3E                     _LCD_POINT:	
  6061                           
  6062                           ;incstack = 0
  6063                           ; Regs used in _LCD_POINT: [wreg+status,2+status,0+pclath+cstack]
  6064                           ;LCD_POINT@lin stored from wreg
  6065  0A3E  00F8               	movwf	LCD_POINT@lin
  6066  0A3F                     l1934:	
  6067                           
  6068                           ;LCD.c: 81:     if((lin > 2)||(col> 31)){
  6069  0A3F  3003               	movlw	3
  6070  0A40  0278               	subwf	LCD_POINT@lin,w
  6071  0A41  1803               	skipnc
  6072  0A42  2A44               	goto	u1621
  6073  0A43  2A45               	goto	u1620
  6074  0A44                     u1621:	
  6075  0A44  2A6B               	goto	l212
  6076  0A45                     u1620:	
  6077  0A45                     l1936:	
  6078  0A45  3020               	movlw	32
  6079  0A46  0273               	subwf	LCD_POINT@col,w
  6080  0A47  1C03               	skipc
  6081  0A48  2A4A               	goto	u1631
  6082  0A49  2A4B               	goto	u1630
  6083  0A4A                     u1631:	
  6084  0A4A  2A4C               	goto	l1940
  6085  0A4B                     u1630:	
  6086  0A4B  2A6B               	goto	l212
  6087  0A4C                     l1940:	
  6088                           
  6089                           ;LCD.c: 84:         lcd_cmd((lin == 1) ? (0x80|col): (0xC0|col));
  6090  0A4C  0378               	decf	LCD_POINT@lin,w
  6091  0A4D  1903               	btfsc	3,2
  6092  0A4E  2A50               	goto	u1641
  6093  0A4F  2A51               	goto	u1640
  6094  0A50                     u1641:	
  6095  0A50  2A57               	goto	l1944
  6096  0A51                     u1640:	
  6097  0A51                     l1942:	
  6098  0A51  30C0               	movlw	192
  6099  0A52  0473               	iorwf	LCD_POINT@col,w
  6100  0A53  00F6               	movwf	_LCD_POINT$242
  6101  0A54  3000               	movlw	0
  6102  0A55  00F7               	movwf	_LCD_POINT$242+1
  6103  0A56  2A5C               	goto	l1946
  6104  0A57                     l1944:	
  6105  0A57  3080               	movlw	128
  6106  0A58  0473               	iorwf	LCD_POINT@col,w
  6107  0A59  00F6               	movwf	_LCD_POINT$242
  6108  0A5A  3000               	movlw	0
  6109  0A5B  00F7               	movwf	_LCD_POINT$242+1
  6110  0A5C                     l1946:	
  6111  0A5C  0876               	movf	_LCD_POINT$242,w
  6112  0A5D  120A  158A  2145  120A  158A  	fcall	_lcd_cmd
  6113  0A62                     l1948:	
  6114                           
  6115                           ;LCD.c: 85:         _delay((unsigned long)((5)*(8000000/4000.0)));
  6116  0A62  300D               	movlw	13
  6117  0A63  00F5               	movwf	??_LCD_POINT+1
  6118  0A64  30FB               	movlw	251
  6119  0A65  00F4               	movwf	??_LCD_POINT
  6120  0A66                     u2957:	
  6121  0A66  0BF4               	decfsz	??_LCD_POINT,f
  6122  0A67  2A66               	goto	u2957
  6123  0A68  0BF5               	decfsz	??_LCD_POINT+1,f
  6124  0A69  2A66               	goto	u2957
  6125  0A6A  2A6B               	nop2
  6126  0A6B                     l212:	
  6127  0A6B  0008               	return
  6128  0A6C                     __end_of_LCD_POINT:	
  6129                           
  6130                           	psect	text19
  6131  0945                     __ptext19:	
  6132 ;; *************** function _lcd_cmd *****************
  6133 ;; Defined at:
  6134 ;;		line 15 in file "LCD.c"
  6135 ;; Parameters:    Size  Location     Type
  6136 ;;  x               1    wreg     unsigned char 
  6137 ;; Auto vars:     Size  Location     Type
  6138 ;;  x               1    2[COMMON] unsigned char 
  6139 ;; Return value:  Size  Location     Type
  6140 ;;                  1    wreg      void 
  6141 ;; Registers used:
  6142 ;;		wreg, status,2, status,0, pclath, cstack
  6143 ;; Tracked objects:
  6144 ;;		On entry : 0/0
  6145 ;;		On exit  : 0/0
  6146 ;;		Unchanged: 0/0
  6147 ;; Data sizes:     COMMON   BANK0   BANK1   BANK3   BANK2
  6148 ;;      Params:         0       0       0       0       0
  6149 ;;      Locals:         1       0       0       0       0
  6150 ;;      Temps:          0       0       0       0       0
  6151 ;;      Totals:         1       0       0       0       0
  6152 ;;Total ram usage:        1 bytes
  6153 ;; Hardware stack levels used:    1
  6154 ;; Hardware stack levels required when called:    1
  6155 ;; This function calls:
  6156 ;;		_lcd_lat
  6157 ;;		_lcd_ready
  6158 ;; This function is called by:
  6159 ;;		_main
  6160 ;;		_lcd_init
  6161 ;;		_LCD_POINT
  6162 ;; This function uses a non-reentrant model
  6163 ;;
  6164                           
  6165                           
  6166                           ;psect for function _lcd_cmd
  6167  0945                     _lcd_cmd:	
  6168                           
  6169                           ;incstack = 0
  6170                           ; Regs used in _lcd_cmd: [wreg+status,2+status,0+pclath+cstack]
  6171                           ;lcd_cmd@x stored from wreg
  6172  0945  00F2               	movwf	lcd_cmd@x
  6173  0946                     l1878:	
  6174                           
  6175                           ;LCD.c: 16:     lcd_ready();
  6176  0946  120A  158A  21E8  120A  158A  	fcall	_lcd_ready
  6177  094B                     l1880:	
  6178                           
  6179                           ;LCD.c: 17:     PORTB = x;
  6180  094B  0872               	movf	lcd_cmd@x,w
  6181  094C  1283               	bcf	3,5	;RP0=0, select bank0
  6182  094D  1303               	bcf	3,6	;RP1=0, select bank0
  6183  094E  0086               	movwf	6	;volatile
  6184  094F                     l1882:	
  6185                           
  6186                           ;LCD.c: 18:     RD7 = 0;
  6187  094F  1388               	bcf	8,7	;volatile
  6188  0950                     l1884:	
  6189                           
  6190                           ;LCD.c: 19:     RD2 = 0;
  6191  0950  1108               	bcf	8,2	;volatile
  6192  0951                     l1886:	
  6193                           
  6194                           ;LCD.c: 20:     lcd_lat();
  6195  0951  120A  158A  2136  120A  158A  	fcall	_lcd_lat
  6196  0956                     l186:	
  6197  0956  0008               	return
  6198  0957                     __end_of_lcd_cmd:	
  6199                           
  6200                           	psect	text20
  6201  09E8                     __ptext20:	
  6202 ;; *************** function _lcd_ready *****************
  6203 ;; Defined at:
  6204 ;;		line 28 in file "LCD.c"
  6205 ;; Parameters:    Size  Location     Type
  6206 ;;		None
  6207 ;; Auto vars:     Size  Location     Type
  6208 ;;		None
  6209 ;; Return value:  Size  Location     Type
  6210 ;;                  1    wreg      void 
  6211 ;; Registers used:
  6212 ;;		wreg, status,2, status,0
  6213 ;; Tracked objects:
  6214 ;;		On entry : 0/0
  6215 ;;		On exit  : 0/0
  6216 ;;		Unchanged: 0/0
  6217 ;; Data sizes:     COMMON   BANK0   BANK1   BANK3   BANK2
  6218 ;;      Params:         0       0       0       0       0
  6219 ;;      Locals:         0       0       0       0       0
  6220 ;;      Temps:          2       0       0       0       0
  6221 ;;      Totals:         2       0       0       0       0
  6222 ;;Total ram usage:        2 bytes
  6223 ;; Hardware stack levels used:    1
  6224 ;; This function calls:
  6225 ;;		Nothing
  6226 ;; This function is called by:
  6227 ;;		_lcd_cmd
  6228 ;;		_lcd_dwr
  6229 ;; This function uses a non-reentrant model
  6230 ;;
  6231                           
  6232                           
  6233                           ;psect for function _lcd_ready
  6234  09E8                     _lcd_ready:	
  6235  09E8                     l1818:	
  6236                           ;incstack = 0
  6237                           ; Regs used in _lcd_ready: [wreg+status,2+status,0]
  6238                           
  6239                           
  6240                           ;LCD.c: 29:     PORTB = 0xFF;
  6241  09E8  30FF               	movlw	255
  6242  09E9  1283               	bcf	3,5	;RP0=0, select bank0
  6243  09EA  1303               	bcf	3,6	;RP1=0, select bank0
  6244  09EB  0086               	movwf	6	;volatile
  6245  09EC                     l1820:	
  6246                           
  6247                           ;LCD.c: 30:     PORTB &= 0x80;
  6248  09EC  3080               	movlw	128
  6249  09ED  00F0               	movwf	??_lcd_ready
  6250  09EE  0870               	movf	??_lcd_ready,w
  6251  09EF  0586               	andwf	6,f	;volatile
  6252  09F0                     l1822:	
  6253                           
  6254                           ;LCD.c: 31:     RD7 = 0;
  6255  09F0  1388               	bcf	8,7	;volatile
  6256  09F1                     l1824:	
  6257                           
  6258                           ;LCD.c: 32:     RD2 = 1;
  6259  09F1  1508               	bsf	8,2	;volatile
  6260  09F2                     l1826:	
  6261                           
  6262                           ;LCD.c: 33:     RD3 = 0;
  6263  09F2  1188               	bcf	8,3	;volatile
  6264  09F3                     l1828:	
  6265                           
  6266                           ;LCD.c: 34:     _delay((unsigned long)((30)*(8000000/4000.0)));
  6267  09F3  304E               	movlw	78
  6268  09F4  00F1               	movwf	??_lcd_ready+1
  6269  09F5  30EB               	movlw	235
  6270  09F6  00F0               	movwf	??_lcd_ready
  6271  09F7                     u2967:	
  6272  09F7  0BF0               	decfsz	??_lcd_ready,f
  6273  09F8  29F7               	goto	u2967
  6274  09F9  0BF1               	decfsz	??_lcd_ready+1,f
  6275  09FA  29F7               	goto	u2967
  6276  09FB                     l1830:	
  6277                           
  6278                           ;LCD.c: 35:     RD3 = 1;
  6279  09FB  1283               	bcf	3,5	;RP0=0, select bank0
  6280  09FC  1303               	bcf	3,6	;RP1=0, select bank0
  6281  09FD  1588               	bsf	8,3	;volatile
  6282                           
  6283                           ;LCD.c: 36:     if (PORTB == 0x80){
  6284  09FE  3080               	movlw	128
  6285  09FF  0606               	xorwf	6,w	;volatile
  6286  0A00  1D03               	btfss	3,2
  6287  0A01  2A03               	goto	u1481
  6288  0A02  2A04               	goto	u1480
  6289  0A03                     u1481:	
  6290  0A03  2A10               	goto	l194
  6291  0A04                     u1480:	
  6292  0A04                     l1832:	
  6293                           
  6294                           ;LCD.c: 37:     RD3 = 0;
  6295  0A04  1188               	bcf	8,3	;volatile
  6296  0A05                     l1834:	
  6297                           
  6298                           ;LCD.c: 38:     _delay((unsigned long)((30)*(8000000/4000.0)));
  6299  0A05  304E               	movlw	78
  6300  0A06  00F1               	movwf	??_lcd_ready+1
  6301  0A07  30EB               	movlw	235
  6302  0A08  00F0               	movwf	??_lcd_ready
  6303  0A09                     u2977:	
  6304  0A09  0BF0               	decfsz	??_lcd_ready,f
  6305  0A0A  2A09               	goto	u2977
  6306  0A0B  0BF1               	decfsz	??_lcd_ready+1,f
  6307  0A0C  2A09               	goto	u2977
  6308  0A0D                     l1836:	
  6309                           
  6310                           ;LCD.c: 39:     RD3 = 1;
  6311  0A0D  1283               	bcf	3,5	;RP0=0, select bank0
  6312  0A0E  1303               	bcf	3,6	;RP1=0, select bank0
  6313  0A0F  1588               	bsf	8,3	;volatile
  6314  0A10                     l194:	
  6315                           ;LCD.c: 40:     }
  6316                           
  6317  0A10  0008               	return
  6318  0A11                     __end_of_lcd_ready:	
  6319                           
  6320                           	psect	text21
  6321  0936                     __ptext21:	
  6322 ;; *************** function _lcd_lat *****************
  6323 ;; Defined at:
  6324 ;;		line 23 in file "LCD.c"
  6325 ;; Parameters:    Size  Location     Type
  6326 ;;		None
  6327 ;; Auto vars:     Size  Location     Type
  6328 ;;		None
  6329 ;; Return value:  Size  Location     Type
  6330 ;;                  1    wreg      void 
  6331 ;; Registers used:
  6332 ;;		wreg
  6333 ;; Tracked objects:
  6334 ;;		On entry : 0/0
  6335 ;;		On exit  : 0/0
  6336 ;;		Unchanged: 0/0
  6337 ;; Data sizes:     COMMON   BANK0   BANK1   BANK3   BANK2
  6338 ;;      Params:         0       0       0       0       0
  6339 ;;      Locals:         0       0       0       0       0
  6340 ;;      Temps:          2       0       0       0       0
  6341 ;;      Totals:         2       0       0       0       0
  6342 ;;Total ram usage:        2 bytes
  6343 ;; Hardware stack levels used:    1
  6344 ;; This function calls:
  6345 ;;		Nothing
  6346 ;; This function is called by:
  6347 ;;		_lcd_cmd
  6348 ;;		_lcd_dwr
  6349 ;; This function uses a non-reentrant model
  6350 ;;
  6351                           
  6352                           
  6353                           ;psect for function _lcd_lat
  6354  0936                     _lcd_lat:	
  6355  0936                     l1838:	
  6356                           ;incstack = 0
  6357                           ; Regs used in _lcd_lat: [wreg]
  6358                           
  6359                           
  6360                           ;LCD.c: 24:     RD3 = 1;
  6361  0936  1283               	bcf	3,5	;RP0=0, select bank0
  6362  0937  1303               	bcf	3,6	;RP1=0, select bank0
  6363  0938  1588               	bsf	8,3	;volatile
  6364  0939                     l1840:	
  6365                           
  6366                           ;LCD.c: 25:    _delay((unsigned long)((30)*(8000000/4000.0)));
  6367  0939  304E               	movlw	78
  6368  093A  00F1               	movwf	??_lcd_lat+1
  6369  093B  30EB               	movlw	235
  6370  093C  00F0               	movwf	??_lcd_lat
  6371  093D                     u2987:	
  6372  093D  0BF0               	decfsz	??_lcd_lat,f
  6373  093E  293D               	goto	u2987
  6374  093F  0BF1               	decfsz	??_lcd_lat+1,f
  6375  0940  293D               	goto	u2987
  6376  0941                     l1842:	
  6377                           
  6378                           ;LCD.c: 26:    RD3 = 0;
  6379  0941  1283               	bcf	3,5	;RP0=0, select bank0
  6380  0942  1303               	bcf	3,6	;RP1=0, select bank0
  6381  0943  1188               	bcf	8,3	;volatile
  6382  0944                     l189:	
  6383  0944  0008               	return
  6384  0945                     __end_of_lcd_lat:	
  6385                           
  6386                           	psect	text22
  6387  091F                     __ptext22:	
  6388 ;; *************** function _I2C_Master_Write *****************
  6389 ;; Defined at:
  6390 ;;		line 56 in file "I2C.c"
  6391 ;; Parameters:    Size  Location     Type
  6392 ;;  d               2    0[COMMON] unsigned int 
  6393 ;; Auto vars:     Size  Location     Type
  6394 ;;		None
  6395 ;; Return value:  Size  Location     Type
  6396 ;;                  1    wreg      void 
  6397 ;; Registers used:
  6398 ;;		wreg, status,2, status,0, pclath, cstack
  6399 ;; Tracked objects:
  6400 ;;		On entry : 0/0
  6401 ;;		On exit  : 0/0
  6402 ;;		Unchanged: 0/0
  6403 ;; Data sizes:     COMMON   BANK0   BANK1   BANK3   BANK2
  6404 ;;      Params:         2       0       0       0       0
  6405 ;;      Locals:         0       0       0       0       0
  6406 ;;      Temps:          0       0       0       0       0
  6407 ;;      Totals:         2       0       0       0       0
  6408 ;;Total ram usage:        2 bytes
  6409 ;; Hardware stack levels used:    1
  6410 ;; Hardware stack levels required when called:    1
  6411 ;; This function calls:
  6412 ;;		_I2C_Master_Wait
  6413 ;; This function is called by:
  6414 ;;		_main
  6415 ;; This function uses a non-reentrant model
  6416 ;;
  6417                           
  6418                           
  6419                           ;psect for function _I2C_Master_Write
  6420  091F                     _I2C_Master_Write:	
  6421  091F                     l1962:	
  6422                           ;incstack = 0
  6423                           ; Regs used in _I2C_Master_Write: [wreg+status,2+status,0+pclath+cstack]
  6424                           
  6425                           
  6426                           ;I2C.c: 56: void I2C_Master_Write(unsigned d);I2C.c: 57: {;I2C.c: 58:     I2C_Master_Wai
      +                          t();
  6427  091F  120A  158A  2129  120A  158A  	fcall	_I2C_Master_Wait
  6428  0924                     l1964:	
  6429                           
  6430                           ;I2C.c: 59:     SSPBUF = d;
  6431  0924  0870               	movf	I2C_Master_Write@d,w
  6432  0925  1283               	bcf	3,5	;RP0=0, select bank0
  6433  0926  1303               	bcf	3,6	;RP1=0, select bank0
  6434  0927  0093               	movwf	19	;volatile
  6435  0928                     l163:	
  6436  0928  0008               	return
  6437  0929                     __end_of_I2C_Master_Write:	
  6438                           
  6439                           	psect	text23
  6440  0916                     __ptext23:	
  6441 ;; *************** function _I2C_Master_Stop *****************
  6442 ;; Defined at:
  6443 ;;		line 46 in file "I2C.c"
  6444 ;; Parameters:    Size  Location     Type
  6445 ;;		None
  6446 ;; Auto vars:     Size  Location     Type
  6447 ;;		None
  6448 ;; Return value:  Size  Location     Type
  6449 ;;                  1    wreg      void 
  6450 ;; Registers used:
  6451 ;;		wreg, status,2, status,0, pclath, cstack
  6452 ;; Tracked objects:
  6453 ;;		On entry : 0/0
  6454 ;;		On exit  : 0/0
  6455 ;;		Unchanged: 0/0
  6456 ;; Data sizes:     COMMON   BANK0   BANK1   BANK3   BANK2
  6457 ;;      Params:         0       0       0       0       0
  6458 ;;      Locals:         0       0       0       0       0
  6459 ;;      Temps:          0       0       0       0       0
  6460 ;;      Totals:         0       0       0       0       0
  6461 ;;Total ram usage:        0 bytes
  6462 ;; Hardware stack levels used:    1
  6463 ;; Hardware stack levels required when called:    1
  6464 ;; This function calls:
  6465 ;;		_I2C_Master_Wait
  6466 ;; This function is called by:
  6467 ;;		_main
  6468 ;; This function uses a non-reentrant model
  6469 ;;
  6470                           
  6471                           
  6472                           ;psect for function _I2C_Master_Stop
  6473  0916                     _I2C_Master_Stop:	
  6474  0916                     l1982:	
  6475                           ;incstack = 0
  6476                           ; Regs used in _I2C_Master_Stop: [wreg+status,2+status,0+pclath+cstack]
  6477                           
  6478                           
  6479                           ;I2C.c: 48:     I2C_Master_Wait();
  6480  0916  120A  158A  2129  120A  158A  	fcall	_I2C_Master_Wait
  6481  091B                     l1984:	
  6482                           
  6483                           ;I2C.c: 49:     SSPCON2bits.PEN = 1;
  6484  091B  1683               	bsf	3,5	;RP0=1, select bank1
  6485  091C  1303               	bcf	3,6	;RP1=0, select bank1
  6486  091D  1511               	bsf	17,2	;volatile
  6487  091E                     l160:	
  6488  091E  0008               	return
  6489  091F                     __end_of_I2C_Master_Stop:	
  6490                           
  6491                           	psect	text24
  6492  090D                     __ptext24:	
  6493 ;; *************** function _I2C_Master_Start *****************
  6494 ;; Defined at:
  6495 ;;		line 30 in file "I2C.c"
  6496 ;; Parameters:    Size  Location     Type
  6497 ;;		None
  6498 ;; Auto vars:     Size  Location     Type
  6499 ;;		None
  6500 ;; Return value:  Size  Location     Type
  6501 ;;                  1    wreg      void 
  6502 ;; Registers used:
  6503 ;;		wreg, status,2, status,0, pclath, cstack
  6504 ;; Tracked objects:
  6505 ;;		On entry : 0/0
  6506 ;;		On exit  : 0/0
  6507 ;;		Unchanged: 0/0
  6508 ;; Data sizes:     COMMON   BANK0   BANK1   BANK3   BANK2
  6509 ;;      Params:         0       0       0       0       0
  6510 ;;      Locals:         0       0       0       0       0
  6511 ;;      Temps:          0       0       0       0       0
  6512 ;;      Totals:         0       0       0       0       0
  6513 ;;Total ram usage:        0 bytes
  6514 ;; Hardware stack levels used:    1
  6515 ;; Hardware stack levels required when called:    1
  6516 ;; This function calls:
  6517 ;;		_I2C_Master_Wait
  6518 ;; This function is called by:
  6519 ;;		_main
  6520 ;; This function uses a non-reentrant model
  6521 ;;
  6522                           
  6523                           
  6524                           ;psect for function _I2C_Master_Start
  6525  090D                     _I2C_Master_Start:	
  6526  090D                     l1958:	
  6527                           ;incstack = 0
  6528                           ; Regs used in _I2C_Master_Start: [wreg+status,2+status,0+pclath+cstack]
  6529                           
  6530                           
  6531                           ;I2C.c: 32:     I2C_Master_Wait();
  6532  090D  120A  158A  2129  120A  158A  	fcall	_I2C_Master_Wait
  6533  0912                     l1960:	
  6534                           
  6535                           ;I2C.c: 33:     SSPCON2bits.SEN = 1;
  6536  0912  1683               	bsf	3,5	;RP0=1, select bank1
  6537  0913  1303               	bcf	3,6	;RP1=0, select bank1
  6538  0914  1411               	bsf	17,0	;volatile
  6539  0915                     l154:	
  6540  0915  0008               	return
  6541  0916                     __end_of_I2C_Master_Start:	
  6542                           
  6543                           	psect	text25
  6544  0A11                     __ptext25:	
  6545 ;; *************** function _I2C_Master_Read *****************
  6546 ;; Defined at:
  6547 ;;		line 65 in file "I2C.c"
  6548 ;; Parameters:    Size  Location     Type
  6549 ;;  a               2    0[COMMON] unsigned short 
  6550 ;; Auto vars:     Size  Location     Type
  6551 ;;  temp            2    4[COMMON] unsigned short 
  6552 ;; Return value:  Size  Location     Type
  6553 ;;                  2    0[COMMON] unsigned short 
  6554 ;; Registers used:
  6555 ;;		wreg, status,2, status,0, pclath, cstack
  6556 ;; Tracked objects:
  6557 ;;		On entry : 0/0
  6558 ;;		On exit  : 0/0
  6559 ;;		Unchanged: 0/0
  6560 ;; Data sizes:     COMMON   BANK0   BANK1   BANK3   BANK2
  6561 ;;      Params:         2       0       0       0       0
  6562 ;;      Locals:         2       0       0       0       0
  6563 ;;      Temps:          2       0       0       0       0
  6564 ;;      Totals:         6       0       0       0       0
  6565 ;;Total ram usage:        6 bytes
  6566 ;; Hardware stack levels used:    1
  6567 ;; Hardware stack levels required when called:    1
  6568 ;; This function calls:
  6569 ;;		_I2C_Master_Wait
  6570 ;; This function is called by:
  6571 ;;		_main
  6572 ;; This function uses a non-reentrant model
  6573 ;;
  6574                           
  6575                           
  6576                           ;psect for function _I2C_Master_Read
  6577  0A11                     _I2C_Master_Read:	
  6578  0A11                     l1966:	
  6579                           ;incstack = 0
  6580                           ; Regs used in _I2C_Master_Read: [wreg+status,2+status,0+pclath+cstack]
  6581                           
  6582                           
  6583                           ;I2C.c: 65: unsigned short I2C_Master_Read(unsigned short a);I2C.c: 66: {;I2C.c: 67:    
      +                           unsigned short temp;;I2C.c: 68:     I2C_Master_Wait();
  6584  0A11  120A  158A  2129  120A  158A  	fcall	_I2C_Master_Wait
  6585  0A16                     l1968:	
  6586                           
  6587                           ;I2C.c: 69:     SSPCON2bits.RCEN = 1;
  6588  0A16  1683               	bsf	3,5	;RP0=1, select bank1
  6589  0A17  1303               	bcf	3,6	;RP1=0, select bank1
  6590  0A18  1591               	bsf	17,3	;volatile
  6591                           
  6592                           ;I2C.c: 70:     I2C_Master_Wait();
  6593  0A19  120A  158A  2129  120A  158A  	fcall	_I2C_Master_Wait
  6594  0A1E                     l1970:	
  6595                           
  6596                           ;I2C.c: 71:     temp = SSPBUF;
  6597  0A1E  1283               	bcf	3,5	;RP0=0, select bank0
  6598  0A1F  1303               	bcf	3,6	;RP1=0, select bank0
  6599  0A20  0813               	movf	19,w	;volatile
  6600  0A21  00F2               	movwf	??_I2C_Master_Read
  6601  0A22  01F3               	clrf	??_I2C_Master_Read+1
  6602  0A23  0872               	movf	??_I2C_Master_Read,w
  6603  0A24  00F4               	movwf	I2C_Master_Read@temp
  6604  0A25  0873               	movf	??_I2C_Master_Read+1,w
  6605  0A26  00F5               	movwf	I2C_Master_Read@temp+1
  6606  0A27                     l1972:	
  6607                           
  6608                           ;I2C.c: 72:     I2C_Master_Wait();
  6609  0A27  120A  158A  2129  120A  158A  	fcall	_I2C_Master_Wait
  6610  0A2C                     l1974:	
  6611                           
  6612                           ;I2C.c: 78:     SSPCON2bits.ACKDT = (a)?0:1;
  6613  0A2C  0870               	movf	I2C_Master_Read@a,w
  6614  0A2D  0471               	iorwf	I2C_Master_Read@a+1,w
  6615  0A2E  1903               	btfsc	3,2
  6616  0A2F  2A31               	goto	u1661
  6617  0A30  2A35               	goto	u1660
  6618  0A31                     u1661:	
  6619  0A31  1683               	bsf	3,5	;RP0=1, select bank1
  6620  0A32  1303               	bcf	3,6	;RP1=0, select bank1
  6621  0A33  1691               	bsf	17,5	;volatile
  6622  0A34  2A38               	goto	u1674
  6623  0A35                     u1660:	
  6624  0A35  1683               	bsf	3,5	;RP0=1, select bank1
  6625  0A36  1303               	bcf	3,6	;RP1=0, select bank1
  6626  0A37  1291               	bcf	17,5	;volatile
  6627  0A38                     u1674:	
  6628  0A38                     l1976:	
  6629                           
  6630                           ;I2C.c: 79:     SSPCON2bits.ACKEN = 1;
  6631  0A38  1611               	bsf	17,4	;volatile
  6632  0A39                     l1978:	
  6633                           
  6634                           ;I2C.c: 80:     return temp;
  6635  0A39  0875               	movf	I2C_Master_Read@temp+1,w
  6636  0A3A  00F1               	movwf	?_I2C_Master_Read+1
  6637  0A3B  0874               	movf	I2C_Master_Read@temp,w
  6638  0A3C  00F0               	movwf	?_I2C_Master_Read
  6639  0A3D                     l166:	
  6640  0A3D  0008               	return
  6641  0A3E                     __end_of_I2C_Master_Read:	
  6642                           
  6643                           	psect	text26
  6644  0929                     __ptext26:	
  6645 ;; *************** function _I2C_Master_Wait *****************
  6646 ;; Defined at:
  6647 ;;		line 23 in file "I2C.c"
  6648 ;; Parameters:    Size  Location     Type
  6649 ;;		None
  6650 ;; Auto vars:     Size  Location     Type
  6651 ;;		None
  6652 ;; Return value:  Size  Location     Type
  6653 ;;                  1    wreg      void 
  6654 ;; Registers used:
  6655 ;;		wreg, status,2
  6656 ;; Tracked objects:
  6657 ;;		On entry : 0/0
  6658 ;;		On exit  : 0/0
  6659 ;;		Unchanged: 0/0
  6660 ;; Data sizes:     COMMON   BANK0   BANK1   BANK3   BANK2
  6661 ;;      Params:         0       0       0       0       0
  6662 ;;      Locals:         0       0       0       0       0
  6663 ;;      Temps:          0       0       0       0       0
  6664 ;;      Totals:         0       0       0       0       0
  6665 ;;Total ram usage:        0 bytes
  6666 ;; Hardware stack levels used:    1
  6667 ;; This function calls:
  6668 ;;		Nothing
  6669 ;; This function is called by:
  6670 ;;		_I2C_Master_Start
  6671 ;;		_I2C_Master_Stop
  6672 ;;		_I2C_Master_Write
  6673 ;;		_I2C_Master_Read
  6674 ;;		_I2C_Master_RepeatedStart
  6675 ;; This function uses a non-reentrant model
  6676 ;;
  6677                           
  6678                           
  6679                           ;psect for function _I2C_Master_Wait
  6680  0929                     _I2C_Master_Wait:	
  6681  0929                     l1900:	
  6682                           ;incstack = 0
  6683                           ; Regs used in _I2C_Master_Wait: [wreg+status,2]
  6684                           
  6685  0929                     l148:	
  6686                           ;I2C.c: 25:     while ((SSPSTAT & 0x04) || (SSPCON2 & 0x1F));
  6687                           
  6688  0929  1683               	bsf	3,5	;RP0=1, select bank1
  6689  092A  1303               	bcf	3,6	;RP1=0, select bank1
  6690  092B  1914               	btfsc	20,2	;volatile
  6691  092C  292E               	goto	u1571
  6692  092D  292F               	goto	u1570
  6693  092E                     u1571:	
  6694  092E  2929               	goto	l148
  6695  092F                     u1570:	
  6696  092F                     l1902:	
  6697  092F  0811               	movf	17,w	;volatile
  6698  0930  391F               	andlw	31
  6699  0931  1D03               	btfss	3,2
  6700  0932  2934               	goto	u1581
  6701  0933  2935               	goto	u1580
  6702  0934                     u1581:	
  6703  0934  2929               	goto	l148
  6704  0935                     u1580:	
  6705  0935                     l151:	
  6706  0935  0008               	return
  6707  0936                     __end_of_I2C_Master_Wait:	
  6708  007E                     btemp	set	126	;btemp
  6709  007E                     wtemp0	set	126


Data Sizes:
    Strings     12
    Constant    0
    Data        0
    BSS         37
    Persistent  0
    Stack       0

Auto Spaces:
    Space          Size  Autos    Used
    COMMON           14     14      14
    BANK0            80     30      67
    BANK1            80      0       0
    BANK3            96      0       0
    BANK2            96      0       0

Pointer List with Targets:

    lcd_msg@c	PTR unsigned char  size(1) Largest target is 3
		 -> STR_4(CODE[3]), STR_3(CODE[3]), STR_2(CODE[3]), STR_1(CODE[3]), 


Critical Paths under _main in COMMON

    _main->___flmul
    _main->___xxtofl
    _lcd_msg->_lcd_dwr
    _lcd_dwr->_lcd_lat
    _lcd_dwr->_lcd_ready
    _lcd_init->_lcd_cmd
    _I2C_Master_Init->___lldiv
    ___flmul->__Umul8_16
    ___fldiv->___xxtofl
    _LCD_POINT->_lcd_cmd
    _lcd_cmd->_lcd_lat
    _lcd_cmd->_lcd_ready

Critical Paths under _main in BANK0

    _main->___fldiv
    _init->_I2C_Master_Init

Critical Paths under _main in BANK1

    None.

Critical Paths under _main in BANK3

    None.

Critical Paths under _main in BANK2

    None.

Call Graph Tables:

 ---------------------------------------------------------------------------------
 (Depth) Function   	        Calls       Base Space   Used Autos Params    Refs
 ---------------------------------------------------------------------------------
 (0) _main                                                 4     4      0   10890
                                             26 BANK0      4     4      0
                    _I2C_Master_Read
                   _I2C_Master_Start
                    _I2C_Master_Stop
                   _I2C_Master_Write
                          _LCD_POINT
                            _Val_STR
                            ___awdiv
                            ___awmod
                            ___fldiv
                            ___flmul
                            ___fltol
                            ___lwdiv
                            ___lwmod
                           ___xxtofl
                               _init
                            _initOsc
                            _lcd_cmd
                            _lcd_dwr
                           _lcd_init
                            _lcd_msg
 ---------------------------------------------------------------------------------
 (1) _lcd_msg                                              2     2      0     199
                                              3 COMMON     2     2      0
                            _lcd_dwr
 ---------------------------------------------------------------------------------
 (2) _lcd_dwr                                              1     1      0      22
                                              2 COMMON     1     1      0
                            _lcd_lat
                          _lcd_ready
 ---------------------------------------------------------------------------------
 (1) _lcd_init                                             0     0      0      22
                            _lcd_cmd
 ---------------------------------------------------------------------------------
 (1) _initOsc                                              3     3      0      22
                                              0 COMMON     3     3      0
 ---------------------------------------------------------------------------------
 (1) _init                                                 0     0      0     412
                    _I2C_Master_Init
 ---------------------------------------------------------------------------------
 (2) _I2C_Master_Init                                      8     4      4     412
                                              0 BANK0      8     4      4
                            ___lldiv
 ---------------------------------------------------------------------------------
 (3) ___lldiv                                             14     6      8     314
                                              0 COMMON    14     6      8
 ---------------------------------------------------------------------------------
 (1) ___xxtofl                                            14    10      4     474
                                              0 COMMON    14    10      4
 ---------------------------------------------------------------------------------
 (1) ___lwmod                                              6     2      4    1071
                                              0 COMMON     6     2      4
 ---------------------------------------------------------------------------------
 (1) ___lwdiv                                              8     4      4     618
                                              0 COMMON     8     4      4
 ---------------------------------------------------------------------------------
 (1) ___fltol                                             11     7      4     685
                                              0 COMMON    11     7      4
 ---------------------------------------------------------------------------------
 (1) ___flmul                                             26    18      8    2721
                                              9 COMMON     5     5      0
                                              0 BANK0     21    13      8
                          __Umul8_16
 ---------------------------------------------------------------------------------
 (2) __Umul8_16                                            9     7      2     799
                                              0 COMMON     9     7      2
 ---------------------------------------------------------------------------------
 (1) ___fldiv                                             26    18      8    1425
                                              0 BANK0     26    18      8
                           ___xxtofl (ARG)
 ---------------------------------------------------------------------------------
 (1) ___awmod                                              7     3      4     448
                                              0 COMMON     7     3      4
 ---------------------------------------------------------------------------------
 (1) ___awdiv                                              9     5      4     452
                                              0 COMMON     9     5      4
 ---------------------------------------------------------------------------------
 (1) _Val_STR                                              3     3      0      22
                                              0 COMMON     3     3      0
 ---------------------------------------------------------------------------------
 (1) _LCD_POINT                                            6     5      1    1752
                                              3 COMMON     6     5      1
                            _lcd_cmd
 ---------------------------------------------------------------------------------
 (2) _lcd_cmd                                              1     1      0      22
                                              2 COMMON     1     1      0
                            _lcd_lat
                          _lcd_ready
 ---------------------------------------------------------------------------------
 (3) _lcd_ready                                            2     2      0       0
                                              0 COMMON     2     2      0
 ---------------------------------------------------------------------------------
 (3) _lcd_lat                                              2     2      0       0
                                              0 COMMON     2     2      0
 ---------------------------------------------------------------------------------
 (1) _I2C_Master_Write                                     2     0      2     250
                                              0 COMMON     2     0      2
                    _I2C_Master_Wait
 ---------------------------------------------------------------------------------
 (1) _I2C_Master_Stop                                      0     0      0       0
                    _I2C_Master_Wait
 ---------------------------------------------------------------------------------
 (1) _I2C_Master_Start                                     0     0      0       0
                    _I2C_Master_Wait
 ---------------------------------------------------------------------------------
 (1) _I2C_Master_Read                                      6     4      2     273
                                              0 COMMON     6     4      2
                    _I2C_Master_Wait
 ---------------------------------------------------------------------------------
 (2) _I2C_Master_Wait                                      0     0      0       0
 ---------------------------------------------------------------------------------
 Estimated maximum stack depth 3
 ---------------------------------------------------------------------------------

 Call Graph Graphs:

 _main (ROOT)
   _I2C_Master_Read
     _I2C_Master_Wait
   _I2C_Master_Start
     _I2C_Master_Wait
   _I2C_Master_Stop
     _I2C_Master_Wait
   _I2C_Master_Write
     _I2C_Master_Wait
   _LCD_POINT
     _lcd_cmd
       _lcd_lat
       _lcd_ready
   _Val_STR
   ___awdiv
   ___awmod
   ___fldiv
     ___xxtofl (ARG)
   ___flmul
     __Umul8_16
   ___fltol
   ___lwdiv
   ___lwmod
   ___xxtofl
   _init
     _I2C_Master_Init
       ___lldiv
   _initOsc
   _lcd_cmd
     _lcd_lat
     _lcd_ready
   _lcd_dwr
     _lcd_lat
     _lcd_ready
   _lcd_init
     _lcd_cmd
       _lcd_lat
       _lcd_ready
   _lcd_msg
     _lcd_dwr
       _lcd_lat
       _lcd_ready

 Address spaces:
Name               Size   Autos  Total    Cost      Usage
BITCOMMON            E      0       0       0        0.0%
EEDATA             100      0       0       0        0.0%
NULL                 0      0       0       0        0.0%
CODE                 0      0       0       0        0.0%
COMMON               E      E       E       1      100.0%
BITSFR0              0      0       0       1        0.0%
SFR0                 0      0       0       1        0.0%
BITSFR1              0      0       0       2        0.0%
SFR1                 0      0       0       2        0.0%
STACK                0      0       0       2        0.0%
ABS                  0      0      51       3        0.0%
BITBANK0            50      0       0       4        0.0%
BITSFR3              0      0       0       4        0.0%
SFR3                 0      0       0       4        0.0%
BANK0               50     1E      43       5       83.8%
BITSFR2              0      0       0       5        0.0%
SFR2                 0      0       0       5        0.0%
BITBANK1            50      0       0       6        0.0%
BANK1               50      0       0       7        0.0%
BITBANK3            60      0       0       8        0.0%
BANK3               60      0       0       9        0.0%
BITBANK2            60      0       0      10        0.0%
BANK2               60      0       0      11        0.0%
DATA                 0      0      51      12        0.0%


Microchip Technology PIC Macro Assembler V2.10 build 88905656 
Symbol Table                                                                                   Sun Mar 08 01:41:31 2020

             ___fldiv@aexp 005E               ___fldiv@bexp 005D                          _i 0038  
                        pc 0002               ___fldiv@sign 0056                __CFG_CP$OFF 0000  
             ___awdiv@sign 0076                         fsr 0004        __Umul8_16@word_mpld 0076  
                      l101 0982                        l106 0B1C                        l203 09C0  
                      l212 0A6B                        l230 0B9C                        l206 09A1  
                      l151 0935                        l231 0BA2                        l223 0B78  
                      l160 091E                        l232 0BA8                        l224 0BD0  
                      l145 0AA3                        l233 0BD1                        l225 0B7E  
                      l154 0915                        l226 0B84                        l163 0928  
                      l227 0B8A                        l148 0929                        l228 0B90  
                      l229 0B96                        l166 0A3D                        l510 0B75  
                      l194 0A10                        l186 0956                        l530 00C0  
                      l540 00C0                        l380 0C37                        l189 0944  
                      l197 0968                        l616 0046                        l537 00AB  
                      l626 0ADD                        l715 033B                        l717 034B  
                      l709 02C9                        l733 0FFF                        l497 0C9E  
                      l745 0FF3                        l739 0F6B                        l771 00E3  
                      l693 01D7                        l773 017A                        l790 09D5  
                      l695 0357                        l792 09E7                        l784 0144  
                      l785 0150                        l777 0128                        _GIE 005F  
                      _RD2 0042                        _RD3 0043                        _RD7 0047  
             __CFG_CPD$OFF 0000                        fsr0 0004                        indf 0000  
             ___awmod@sign 0076               ___flmul@aexp 0052               ___flmul@bexp 0053  
             ___flmul@sign 004D               ___flmul@temp 0058               ___flmul@prod 0054  
             LCD_POINT@col 0073               LCD_POINT@lin 0078               __CFG_LVP$OFF 0000  
             ___fltol@exp1 007A                       l2000 0AE6                       l2020 0AF0  
                     l2012 0AEC                       l2004 0AE8                       l2100 0B46  
                     l2030 0AF4                       l2102 0B4A                       l2110 0B67  
                     l2024 0AF2                       l2016 0AEE                       l2008 0AEA  
                     l2040 0C3D                       l2112 0B6C                       l2104 0B54  
                     l2120 0052                       l2050 0C51                       l2042 0C42  
                     l2114 0B71                       l2106 0B5A                       l2210 018D  
                     l2202 017B                       l2130 0079                       l2060 0C67  
                     l2052 0C53                       l2044 0C44                       l2036 0C38  
                     l2108 0B61                       l2300 02A9                       l2212 0192  
                     l2220 01A2                       l2204 0182                       l2140 0087  
                     l2132 007B                       l2124 005B                       l2070 0C8A  
                     l2062 0C6B                       l2054 0C59                       l2046 0C48  
                     l2038 0C39                       l2302 02AD                       l2230 01BA  
                     l2222 01AA                       l2214 0197                       l2206 0188  
                     l2150 00B0                       l2134 007F                       l2142 0099  
                     l2126 0070                       l2118 0047                       l2064 0C7C  
                     l2056 0C5C                       l2072 0C90                       l2048 0C4D  
                     l2080 0B1D                       l2320 02FE                       l2312 02CE  
                     l2304 02AE                       l2232 01BF                       l2240 01CF  
                     l2224 01AF                       l2216 019F                       l2208 018C  
                     l2400 0DAA                       l2152 00B5                       l2128 0071  
                     l2160 000E                       l2074 0C95                       l2066 0C82  
                     l2058 0C63                       l2090 0B2D                       l2082 0B1E  
                     l2330 0332                       l2314 02D3                       l2322 0304  
                     l2306 02B2                       l2242 01DF                       l2250 01F8  
                     l2234 01C4                       l2226 01B5                       l2218 01A0  
                     l2410 0E0C                       l2402 0DC6                       l2170 0034  
                     l2162 0015                       l2154 0003                       l2076 0C9A  
                     l2068 0C83                       l2092 0B32                       l2084 0B22  
                     l2332 033A                       l2324 0311                       l2316 02E1  
                     l2308 02C6                       l2260 0220                       l2252 01FD  
                     l2244 01EB                       l2236 01CC                       l2228 01B9  
                     l2420 0E9C                       l2412 0E29                       l2404 0DCF  
                     l2148 00A0                       l2172 0035                       l2164 0019  
                     l2156 0005                       l2180 0AA4                       l2500 0106  
                     l2094 0B38                       l2086 0B27                       l2334 0341  
                     l2326 031F                       l2318 02E5                       l2270 0249  
                     l2262 0228                       l2246 01EF                       l2238 01CD  
                     l2430 0F2E                       l2422 0EC9                       l2414 0E42  
                     l2406 0DDF                       l2350 0CB0                       l2174 003C  
                     l2166 001D                       l2158 000B                       l2190 0ABC  
                     l2182 0AAA                       l2510 013A                       l2502 010D  
                     l2096 0B3B                       l2088 0B29                       l2336 0345  
                     l2328 032E                       l2280 026A                       l2272 024D  
                     l2264 0230                       l2256 0206                       l2432 0F37  
                     l2440 0F4B                       l2424 0EEF                       l2416 0E5F  
                     l2408 0DFC                       l2360 0CC5                       l2352 0CB1  
                     l2344 0C9F                       l2168 002E                       l2176 0042  
                     l2192 0AC6                       l2184 0AAD                       l2520 016D  
                     l2512 013E                       l2504 0111                       l2600 04E2  
                     l2098 0B42                       l2338 0347                       l2290 028C  
                     l2282 0278                       l2274 024E                       l2266 0232  
                     l2258 0218                       l2442 0F4F                       l2434 0F3B  
                     l2426 0F17                       l2418 0E8C                       l2370 0CDD  
                     l2362 0CCD                       l2354 0CB6                       l2346 0CA6  
                     l2194 0ACC                       l2186 0AB4                       l2522 0171  
                     l2514 0148                       l2506 011F                       l2610 054D  
                     l2602 0501                       l2530 035E                       l1900 0929  
                     l1820 09EC                       l2292 0295                       l2268 0237  
                     l2276 0257                       l2284 027C                       l2460 0FA0  
                     l2452 0F70                       l2444 0F50                       l2436 0F3C  
                     l2428 0F20                       l2380 0CF9                       l2372 0CE2  
                     l2364 0CD2                       l2356 0CBB                       l2348 0CAC  
                     l2196 0AD3                       l2188 0AB8                       l2524 0172  
                     l2516 0152                       l2508 012F                       l2700 07E9  
                     l2620 058D                       l2612 0560                       l2604 0514  
                     l2540 036D                       l2532 0363                       l1902 092F  
                     l1830 09FB                       l1822 09F0                       l2294 0299  
                     l2286 0282                       l2278 0269                       l1910 09CF  
                     l2470 0FD7                       l2454 0F75                       l2462 0FA6  
                     l2446 0F54                       l2438 0F45                       l2390 0D1C  
                     l2382 0CFE                       l2374 0CE7                       l2366 0CD8  
                     l2358 0CC3                       l2198 0AD9                       l2518 0168  
                     l2630 05DE                       l2622 0599                       l2614 0567  
                     l2606 0527                       l2550 03A4                       l2542 036E  
                     l2534 0368                       l1840 0939                       l1832 0A04  
                     l1824 09F1                       l2296 029A                       l2288 028A  
                     l1912 09DE                       l1904 09C2                       l2480 0FF7  
                     l2472 0FD9                       l2464 0FB3                       l2456 0F83  
                     l2448 0F68                       l2392 0D29                       l2384 0D03  
                     l2376 0CEF                       l2368 0CDC                       l2640 0638  
                     l2632 05EB                       l2624 05A6                       l2616 0574  
                     l2608 053A                       l2560 03D0                       l2552 03AC  
                     l2544 037A                       l2536 036B                       l2528 0358  
                     l1842 0941                       l1834 0A05                       l1826 09F2  
                     l1818 09E8                       l2298 02A3                       l1914 09E3  
                     l1906 09C4                       l2474 0FE7                       l2466 0FBE  
                     l2458 0F87                       l2394 0D46                       l2378 0CF1  
                     l2490 00DB                       l1850 0BF2                       l1930 0973  
                     l1922 0BAE                       l2650 068E                       l2642 064B  
                     l2634 05F7                       l2626 05BE                       l2618 0580  
                     l2570 03F6                       l2562 03D6                       l2554 03B2  
                     l2546 038C                       l2538 036C                       l1836 0A0D  
                     l1828 09F3                       l1940 0A4C                       l1908 09CB  
                     l2476 0FEB                       l2468 0FCD                       l2396 0D62  
                     l2388 0D0C                       l2492 00EB                       l2484 00C2  
                     l1860 0C20                       l1852 0BF6                       l1844 0BD2  
                     l1932 0983                       l2660 06CD                       l2652 069B  
                     l2644 065E                       l2636 0604                       l2628 05D4  
                     l2580 0426                       l2572 0404                       l2564 03E2  
                     l2556 03BE                       l2548 0392                       l1838 0936  
                     l1942 0A51                       l1934 0A3F                       l2478 0FEC  
                     l2398 0D8E                       l2486 00C7                       l1862 0C29  
                     l1854 0BFF                       l1846 0BE2                       l1918 0B77  
                     l1870 095D                       l1950 09A3                       l2670 0702  
                     l2662 06DC                       l2654 06A7                       l2646 0671  
                     l2638 0625                       l2590 0456                       l2582 0434  
                     l2574 0409                       l2566 03E8                       l2558 03C4  
                     l1960 0912                       l1880 094B                       l1944 0A57  
                     l1936 0A45                       l2496 00F4                       l2488 00CB  
                     l1856 0C11                       l1848 0BE5                       l1864 0C2F  
                     l1928 0969                       l1872 0961                       l1952 09A4  
                     l2680 075B                       l2672 070E                       l2664 06E2  
                     l2656 06B4                       l2648 0684                       l2592 0464  
                     l2584 0439                       l2576 0418                       l2568 03ED  
                     l1970 0A1E                       l1962 091F                       l1882 094F  
                     l1946 0A5C                       l2498 00F9                       l1858 0C1F  
                     l1890 0A70                       l2746 0BB6                       l1874 0962  
                     l1954 09B0                       l2690 07A8                       l2682 076E  
                     l2674 0714                       l2666 06F4                       l2658 06C0  
                     l2594 0469                       l2586 0448                       l2578 041D  
                     l1972 0A27                       l1964 0924                       l1884 0950  
                     l1948 0A62                       l2748 0AFC                       l1892 0A73  
                     l1876 0963                       l1868 0958                       l1956 09B4  
                     l2692 07B4                       l2684 0781                       l2676 0735  
                     l2668 06FC                       l2596 0478                       l2588 044D  
                     l1974 0A2C                       l1966 0A11                       l1958 090D  
                     l1982 0916                       l1886 0951                       l1878 0946  
                     l1894 0AA0                       l2694 07C1                       l2686 0794  
                     l2678 0748                       l2598 04AE                       l1976 0A38  
                     l1968 0A16                       l1984 091B                       l1992 0AE2  
                     l1896 0AA1                       l1888 0A6C                       l2696 07CD  
                     l2688 079B                       l1978 0A39                       l1986 0ADF  
                     l1898 0AA2                       l2698 07DA                       l1996 0AE4  
                     l1988 0AE0                       STR_1 0806                       STR_2 0809  
                     STR_3 080C                       STR_4 080F                       u2010 002E  
                     u2011 002D                       u2100 018C                       u2101 018B  
                     u2005 001E                       u2110 0192                       u2030 0042  
                     u2111 0191                       u2031 0041                       u2015 002A  
                     u2120 0197                       u2040 0AAA                       u2121 0196  
                     u2025 0036                       u2041 0AA9                       u2210 024D  
                     u2130 01B9                       u2211 024C                       u2131 01B8  
                     u2300 02B2                       u2140 01BF                       u2060 0ABC  
                     u2301 02B1                       u2205 0242                       u2141 01BE  
                     u2061 0ABB                       u2310 02C6                       u2230 0269  
                     u2150 01C4                       u2070 0AC6                       u1510 0BF6  
                     u2311 02C5                       u2231 0268                       u2151 01C3  
                     u2071 0AC5                       u2055 0AAE                       u1511 0BF5  
                     u2320 02CD                       u2240 0282                       u2160 01DF  
                     u2400 0CB6                       u2321 02CC                       u2241 0281  
                     u2225 0250                       u2161 01DE                       u2401 0CB5  
                     u1505 0BE7                       u2330 02D3                       u2250 028A  
                     u2170 01FD                       u1610 09E3                       u2410 0CBB  
                     u2090 0AD9                       u1530 0C11                       u2331 02D2  
                     u2251 0289                       u2235 0265                       u2171 01FC  
                     u1611 09E2                       u2411 0CBA                       u2091 0AD8  
                     u2075 0AC2                       u1531 0C10                       u1620 0A45  
                     u1700 0C59                       u2340 02E5                       u2180 0237  
                     u2420 0CDC                       u1621 0A44                       u1701 0C58  
                     u2341 02E4                       u2181 0236                       u1605 09D6  
                     u2501 0DB8                       u2421 0CDB                       u2085 0ACD  
                     u1525 0BF8                       u1630 0A4B                       u2350 02F4  
                     u2270 0299                       u2502 0DBF                       u2430 0CE2  
                     u1550 0C2F                       u1631 0A4A                       u2271 0298  
                     u2503 0DC6                       u2431 0CE1                       u1551 0C2E  
                     u1535 0C0D                       u1480 0A04                       u1640 0A51  
                     u1720 0C6B                       u1800 0B38                       u2360 0311  
                     u2600 0EFD                       u2440 0CE7                       u1560 0A83  
                     u1481 0A03                       u1641 0A50                       u1721 0C6A  
                     u1801 0B37                       u2361 0310                       u2265 028E  
                     u2521 0DEE                       u2441 0CE6                       u1545 0C21  
                     u1570 092F                       u2370 032E                       u2290 02AD  
                     u2522 0DF5                       u2450 0CFE                       u1490 0BE2  
                     u1650 09C0                       u1571 092E                       u1715 0C5D  
                     u2371 032D                       u2355 02EF                       u2291 02AC  
                     u2195 0239                       u2611 0F09                       u2531 0E1B  
                     u2523 0DFC                       u2515 0DC8                       u2451 0CFD  
                     u1491 0BE1                       u1651 09BF                       u1580 0935  
                     u1660 0A35                       u1740 0C7C                       u1820 0B4A  
                     u2380 0345                       u2700 0F75                       u2612 0F10  
                     u2532 0E22                       u2460 0D03                       u1900 0086  
                     u1581 0934                       u1661 0A31                       u1741 0C7B  
                     u1821 0B49                       u2381 0344                       u2365 030D  
                     u2285 029C                       u2701 0F74                       u2613 0F17  
                     u2605 0EF8                       u2533 0E29                       u2461 0D02  
                     u1901 0085                       u1565 0A7E                       u1830 0B54  
                     u1590 09CF                       u2710 0F87                       u2390 0CB0  
                     u1735 0C6C                       u1831 0B53                       u1815 0B3C  
                     u2375 032A                       u1591 09CE                       u2711 0F86  
                     u2551 0E51                       u2471 0D54                       u2391 0CAF  
                     u1760 0C90                       u1680 0C3D                       u2720 0F96  
                     u2640 0F3B                       u2552 0E58                       u2472 0D5B  
                     u1920 0098                       u2800 010C                       u1761 0C8F  
                     u1745 0C78                       u1681 0C3C                       u2641 0F3A  
                     u2625 0F19                       u2561 0E7E                       u2553 0E5F  
                     u2545 0E2B                       u2481 0D70                       u2473 0D62  
                     u1921 0097                       u2801 010B                       u1674 0A38  
                     u1770 0C95                       u1690 0C48                       u1850 0B67  
                     u2730 0FB3                       u2562 0E85                       u2482 0D77  
                     u1930 009F                       u1771 0C94                       u1755 0C84  
                     u1691 0C47                       u1851 0B66                       u1835 0B50  
                     u2731 0FB2                       u2635 0F30                       u2571 0EAB  
                     u2563 0E8C                       u2491 0D9C                       u2483 0D7E  
                     u1931 009E                       u1915 0088                       u1860 0B6C  
                     u1780 0B22                       u2740 0FCD                       u2660 0F4F  
                     u2580 0ED5                       u2572 0EB2                       u2492 0DA3  
                     u2820 012E                       u1861 0B6B                       u1845 0B5B  
                     u1781 0B21                       u2741 0FCC                       u2725 0F91  
                     u2661 0F4E                       u2573 0EB9                       u2493 0DAA  
                     u2821 012D                       u1790 0B2D                       u2750 0FEB  
                     u2670 0F54                       u1950 00B0                       u1870 0052  
                     u1791 0B2C                       u2751 0FEA                       u2735 0FAF  
                     u2671 0F53                       u2655 0F3E                       u2591 0EE1  
                     u1951 00AF                       u1871 0051                       u2815 0120  
                     u2680 0F68                       u2592 0EE8                       u1960 00B5  
                     u1880 0069                       u2840 013E                       u2760 00C7  
                     u2745 0FC9                       u2681 0F67                       u2593 0EEF  
                     u2585 0ED0                       u1961 00B4                       u1945 00A2  
                     u2841 013D                       u2761 00C6                       u2690 0F6F  
                     u1890 007F                       u1970 000B                       u2850 0144  
                     u2770 00CB                       u2691 0F6E                       u1891 007E  
                     u1971 000A                       u2851 0143                       u2835 0133  
                     u2771 00CA                       u2907 0411                       _PEIE 005E  
                     u2860 0148                       u2780 00EB                       u1885 0064  
                     u2861 0147                       u2781 00EA                       u2917 0441  
                     u1990 001D                       u2870 015D                       u1991 001C  
                     u2927 0471                       u2880 016D                       u1985 000F  
                     u2881 016C                       u2937 06D5                       u2890 0171  
                     u2891 0170                       u2875 0158                       u2795 00FE  
                     u2947 07E2                       u2957 0A66                       u2967 09F7  
                     u2977 0A09                       u2987 093D               __CFG_WRT$OFF 0000  
       __size_of_LCD_POINT 002E                       _main 0358                       _init 0969  
                     btemp 007E                       start 0000              __CFG_IESO$OFF 0000  
          ___fldiv@new_exp 0057            __end_of_Val_STR 0B1D           ?_I2C_Master_Init 0045  
         ?_I2C_Master_Read 0070           ?_I2C_Master_Wait 0070           ?_I2C_Master_Stop 0070  
            ___fltol@sign1 0079                      ?_main 0070                      ?_init 0070  
          __end_of___fldiv 0358            __end_of___awdiv 0C9F              __CFG_WDTE$OFF 0000  
          __end_of___awmod 0B76            __end_of___flmul 1000            __end_of___fltol 00C1  
                    _ANSEL 0188            __end_of___lldiv 0C38            ___awdiv@divisor 0070  
          __end_of___lwdiv 0047            __end_of___lwmod 0ADE            ___awdiv@counter 0075  
                    _RCREG 001A                      _SPBRG 0099                      _PORTA 0005  
                    _PORTB 0006                      _PORTC 0007                      _PORTD 0008  
                    _TRISA 0085                      _TRISB 0086                      _TRISC 0087  
                    _TRISD 0088                      _SSPIE 0463                      _SSPIF 0063  
                    _TXREG 0019             __CFG_FCMEN$OFF 0000            __end_of_lcd_cmd 0957  
          __end_of_lcd_lat 0945            __end_of_lcd_dwr 0969            __end_of_lcd_msg 09C1  
          __end_of_initOsc 0BD2                 Val_STR@num 0072             __CFG_BOREN$OFF 0000  
                    pclath 000A                      status 0003                      wtemp0 007E  
           __CFG_MCLRE$OFF 0000            __initialization 07F3               __end_of_main 07F3  
             __end_of_init 0983          __end_of_LCD_POINT 0A6C                     ??_main 005F  
                   ??_init 007E          ?_I2C_Master_Start 0070          ?_I2C_Master_Write 0070  
       ??_I2C_Master_Start 0070         ??_I2C_Master_Write 0072           ___awdiv@dividend 0072  
                   _ANSELH 0189                     _CONT_C 0039                     _CONT_D 003A  
                   _CONT_U 003B                initOsc@frec 0072                     _RES_D1 003D  
                   _RES_D2 003C                     _RES_EN 0040                     _POT_D1 003F  
                   _POT_D2 003E                     _SSPADD 0093                     _POT_EN 0041  
                   _TRISC3 043B                     _TRISC4 043C                     _SSPCON 0014  
                   _SSPBUF 0013           __end_of___xxtofl 017B             __CFG_PWRTE$OFF 0000  
                ??_Val_STR 0070           __end_of_lcd_init 09A2                  ??___fldiv 004D  
                ??___awdiv 0074                  ??___awmod 0074                  ??___flmul 0079  
                ??___fltol 0074                  ??___lldiv 0078                  ??___lwdiv 0074  
                ??___lwmod 0074           ___awdiv@quotient 0077            ___awmod@divisor 0070  
          ___awmod@counter 0075                  ??_lcd_cmd 0072                  ??_lcd_lat 0070  
                ??_lcd_dwr 0072                  ??_lcd_msg 0073                  ??_initOsc 0070  
       __size_of__Umul8_16 0027               ___xxtofl@arg 007A               ___xxtofl@exp 0079  
             ___xxtofl@val 0070    __end_of__initialization 07FC                 ___fltol@f1 0070  
           __pcstackCOMMON 0070         __size_of_lcd_ready 0029                 __pbssBANK0 0020  
        __end_of__Umul8_16 09E8                 __pmaintext 0358                  ?___xxtofl 0070  
                  _SSPCON2 0091                  ?_lcd_init 0070                    _SSPSTAT 0094  
               __stringtab 0800                  _ADC_RES_V 0028                  _ADC_POT_V 002C  
                  _Val_RES 0042                    _Val_POT 0044                    _Val_STR 0ADE  
        __end_of_lcd_ready 0A11                    ___fldiv 017B                    ___awdiv 0C38  
                  ___awmod 0B1D                    ___flmul 0C9F                    ___fltol 0047  
                  ___lldiv 0BD2                    ___lwdiv 0003                    ___lwmod 0AA4  
                  __ptext1 09A2                    __ptext2 0957                    __ptext3 0983  
                  __ptext4 0B76                    __ptext5 0969                    __ptext6 0A6C  
                  __ptext7 0BD2                    __ptext8 00C1                    __ptext9 0AA4  
                  _lcd_cmd 0945                    _lcd_lat 0936                    _lcd_dwr 0957  
                  _lcd_msg 09A2                    _initOsc 0B76                 ??___xxtofl 0074  
         ___awmod@dividend 0072                  _LCD_POINT 0A3E   __size_of_I2C_Master_Init 0038  
 __size_of_I2C_Master_Read 002D   __size_of_I2C_Master_Wait 000D   __size_of_I2C_Master_Stop 0009  
                  clrloop0 0906                 ??_lcd_init 0073       end_of_initialization 07FC  
__size_of_I2C_Master_Start 0009  __size_of_I2C_Master_Write 000A            ___lldiv@divisor 0070  
          ___lldiv@counter 007D                  _RCSTAbits 0018           I2C_Master_Init@c 0045  
         I2C_Master_Read@a 0070              ___xxtofl@sign 0078                 ?_LCD_POINT 0073  
                _TRISCbits 0087                ___fldiv@grs 0059                ___fldiv@rem 0052  
              ___flmul@grs 004E                  _TXSTAbits 0098        start_initialization 07F3  
        ??_I2C_Master_Init 0049          ??_I2C_Master_Read 0072          ??_I2C_Master_Wait 0070  
        ??_I2C_Master_Stop 0070   __CFG_FOSC$INTRC_NOCLKOUT 0000                  __Umul8_16 09C1  
                ___fldiv@a 0045                  ___fldiv@b 0049                  ___flmul@a 0049  
                ___flmul@b 0045                  ___latbits 0002                ??_LCD_POINT 0074  
            __pcstackBANK0 0045          __size_of___xxtofl 00BA          __size_of_lcd_init 001F  
         _I2C_Master_Start 090D           _I2C_Master_Write 091F                   ?_Val_STR 0070  
         ___lwdiv@dividend 0072                   ?___fldiv 0045                   ?___awdiv 0070  
                 ?___awmod 0070                   ?___flmul 0045                   ?___fltol 0070  
                 ?___lldiv 0070                 ?__Umul8_16 0070                   ?___lwdiv 0070  
                 ?___lwmod 0070                  _lcd_ready 09E8                  __pstrings 0800  
                 ?_lcd_cmd 0070                   ?_lcd_lat 0070                   ?_lcd_dwr 0070  
                 ?_lcd_msg 0070                   ?_initOsc 0070           ___lwdiv@quotient 0075  
                clear_ram0 0905                   _PIR1bits 000C                   _RES_cien 0020  
               ?_lcd_ready 0070                   _POT_cien 0024                __stringbase 0805  
      I2C_Master_Read@temp 0074                 _DECI_1_RES 0032                 _DECI_1_POT 0036  
               _DECI_2_RES 0030                 _DECI_2_POT 0034                   _Val_CONT 0043  
         __size_of_Val_STR 003F                ??__Umul8_16 0072           __size_of___fldiv 01DD  
         __size_of___awdiv 0067           __size_of___awmod 0059           __size_of___flmul 0361  
         __size_of___fltol 007A           __size_of___lldiv 0066           __size_of___lwdiv 0044  
         __size_of___lwmod 003A         __end_of__stringtab 0806           __size_of_lcd_cmd 0012  
         __size_of_lcd_lat 000F           __size_of_lcd_dwr 0012           __size_of_lcd_msg 001F  
          _I2C_Master_Init 0A6C            _I2C_Master_Read 0A11                   ___xxtofl 00C1  
          _I2C_Master_Wait 0929            _I2C_Master_Stop 0916           __size_of_initOsc 005C  
          ___lwdiv@divisor 0070            ___lwdiv@counter 0077                   __ptext10 0003  
                 __ptext11 0047                   __ptext20 09E8                   __ptext12 0C9F  
                 __ptext21 0936                   __ptext13 09C1                   __ptext22 091F  
                 __ptext14 017B                   __ptext23 0916                   __ptext15 0B1D  
                 __ptext24 090D                   __ptext16 0C38                   __ptext25 0A11  
                 __ptext17 0ADE                   __ptext26 0929                   __ptext18 0A3E  
                 __ptext19 0945          __CFG_BOR4V$BOR40V 0000                   _lcd_init 0983  
            __size_of_main 049B              __size_of_init 001A                   lcd_cmd@x 0072  
                 lcd_dwr@x 0072                   lcd_msg@c 0074                ??_lcd_ready 0070  
 __end_of_I2C_Master_Start 0916              _LCD_POINT$242 0076   __end_of_I2C_Master_Write 0929  
         ___lwmod@dividend 0072           ___lldiv@dividend 0074                  stringcode 0800  
               _OSCCONbits 008F    __end_of_I2C_Master_Init 0AA4    __end_of_I2C_Master_Read 0A3E  
  __end_of_I2C_Master_Wait 0936    __end_of_I2C_Master_Stop 091F     __Umul8_16@multiplicand 0070  
         ___lldiv@quotient 0079          I2C_Master_Write@d 0070            ___lwmod@divisor 0070  
          ___lwmod@counter 0075                   stringdir 0800                   stringtab 0800  
              _SSPCON2bits 0091       __Umul8_16@multiplier 0078          __Umul8_16@product 0074  
