

Microchip MPLAB XC8 Assembler V2.10 build 88905656 
                                                                                               Sat Mar 14 00:34:23 2020

Microchip MPLAB XC8 C Compiler v2.10 (Free license) build 20190730164152 Og1 
     1                           	processor	16F887
     2                           	opt	pw 120
     3                           	opt	flic
     4                           	psect	idataBANK1,global,class=CODE,delta=2
     5                           	psect	strings,global,class=STRING,delta=2
     6                           	psect	cinit,global,class=CODE,merge=1,delta=2
     7                           	psect	bssBANK0,global,class=BANK0,space=1,delta=1
     8                           	psect	bssBANK1,global,class=BANK1,space=1,delta=1
     9                           	psect	dataBANK1,global,class=BANK1,space=1,delta=1
    10                           	psect	bssBANK3,global,class=BANK3,space=1,delta=1
    11                           	psect	clrtext,global,class=CODE,delta=2
    12                           	psect	cstackBANK1,global,class=BANK1,space=1,delta=1
    13                           	psect	cstackCOMMON,global,class=COMMON,space=1,delta=1
    14                           	psect	cstackBANK0,global,class=BANK0,space=1,delta=1
    15                           	psect	maintext,global,class=CODE,split=1,delta=2
    16                           	psect	text1,local,class=CODE,merge=1,delta=2,group=2
    17                           	psect	text2,local,class=CODE,merge=1,delta=2,group=2
    18                           	psect	text3,local,class=CODE,merge=1,delta=2,group=1
    19                           	psect	text4,local,class=CODE,merge=1,delta=2,group=2
    20                           	psect	text5,local,class=CODE,merge=1,delta=2,group=1
    21                           	psect	text6,local,class=CODE,merge=1,delta=2,group=1
    22                           	psect	text7,local,class=CODE,merge=1,delta=2,group=1
    23                           	psect	text8,local,class=CODE,merge=1,delta=2,group=1
    24                           	psect	text9,local,class=CODE,merge=1,delta=2,group=1
    25                           	psect	text10,local,class=CODE,merge=1,delta=2
    26                           	psect	text11,local,class=CODE,merge=1,delta=2
    27                           	psect	text12,local,class=CODE,merge=1,delta=2
    28                           	psect	text13,local,class=CODE,merge=1,delta=2
    29                           	psect	text14,local,class=CODE,merge=1,delta=2
    30                           	psect	text15,local,class=CODE,merge=1,delta=2
    31                           	psect	text16,local,class=CODE,merge=1,delta=2,group=1
    32                           	psect	text17,local,class=CODE,merge=1,delta=2,group=1
    33                           	psect	text18,local,class=CODE,merge=1,delta=2,group=1
    34                           	psect	text19,local,class=CODE,merge=1,delta=2,group=1
    35                           	psect	text20,local,class=CODE,merge=1,delta=2,group=1
    36                           	psect	text21,local,class=CODE,merge=1,delta=2,group=1
    37                           	psect	text22,local,class=CODE,merge=1,delta=2
    38                           	psect	text23,local,class=CODE,merge=1,delta=2
    39                           	psect	text24,local,class=CODE,merge=1,delta=2
    40                           	psect	text25,local,class=CODE,merge=1,delta=2,group=1
    41                           	psect	text26,local,class=CODE,merge=1,delta=2
    42                           	psect	text27,local,class=CODE,merge=1,delta=2
    43                           	psect	text28,local,class=CODE,merge=1,delta=2
    44                           	psect	text29,local,class=CODE,merge=1,delta=2
    45                           	psect	text30,local,class=CODE,merge=1,delta=2
    46                           	psect	text31,local,class=CODE,merge=1,delta=2
    47                           	psect	text32,local,class=CODE,merge=1,delta=2
    48                           	psect	text33,local,class=CODE,merge=1,delta=2
    49                           	psect	text34,local,class=CODE,merge=1,delta=2
    50                           	dabs	1,0x7E,2
    51  0000                     
    52                           ; Version 2.10
    53                           ; Generated 31/07/2019 GMT
    54                           ; 
    55                           ; Copyright © 2019, Microchip Technology Inc. and its subsidiaries ("Microchip")
    56                           ; All rights reserved.
    57                           ; 
    58                           ; This software is developed by Microchip Technology Inc. and its subsidiaries ("Microch
      +                          ip").
    59                           ; 
    60                           ; Redistribution and use in source and binary forms, with or without modification, are
    61                           ; permitted provided that the following conditions are met:
    62                           ; 
    63                           ;     1. Redistributions of source code must retain the above copyright notice, this lis
      +                          t of
    64                           ;        conditions and the following disclaimer.
    65                           ; 
    66                           ;     2. Redistributions in binary form must reproduce the above copyright notice, this 
      +                          list
    67                           ;        of conditions and the following disclaimer in the documentation and/or other
    68                           ;        materials provided with the distribution.
    69                           ; 
    70                           ;     3. Microchip's name may not be used to endorse or promote products derived from th
      +                          is
    71                           ;        software without specific prior written permission.
    72                           ; 
    73                           ; THIS SOFTWARE IS PROVIDED BY MICROCHIP "AS IS" AND ANY EXPRESS OR IMPLIED WARRANTIES,
    74                           ; INCLUDING, BUT NOT LIMITED TO, THE IMPLIED WARRANTIES OF MERCHANTABILITY AND FITNESS F
      +                          OR
    75                           ; PURPOSE ARE DISCLAIMED.  IN NO EVENT SHALL MICROCHIP BE LIABLE FOR ANY DIRECT, INDIREC
      +                          T,
    76                           ; INCIDENTAL, SPECIAL, EXEMPLARY, OR CONSEQUENTIAL DAMAGES (INCLUDING BUT NOT LIMITED TO
    77                           ; PROCUREMENT OF SUBSTITUTE GOODS OR SERVICES; LOSS OF USE, DATA OR PROFITS; OR BUSINESS
    78                           ; INTERRUPTION) HOWSOEVER CAUSED AND ON ANY THEORY OF LIABILITY, WHETHER IN CONTRACT, ST
      +                          RICT
    79                           ; LIABILITY, OR TORT (INCLUDING NEGLIGENCE OR OTHERWISE) ARISING IN ANY WAY OUT OF THE U
      +                          SE OF
    80                           ; THIS SOFTWARE, EVEN IF ADVISED OF THE POSSIBILITY OF SUCH DAMAGE.
    81                           ; 
    82                           ; 
    83                           ; Code-generator required, PIC16F887 Definitions
    84                           ; 
    85                           ; SFR Addresses
    86  0000                     	;# 
    87  0001                     	;# 
    88  0002                     	;# 
    89  0003                     	;# 
    90  0004                     	;# 
    91  0005                     	;# 
    92  0006                     	;# 
    93  0007                     	;# 
    94  0008                     	;# 
    95  0009                     	;# 
    96  000A                     	;# 
    97  000B                     	;# 
    98  000C                     	;# 
    99  000D                     	;# 
   100  000E                     	;# 
   101  000E                     	;# 
   102  000F                     	;# 
   103  0010                     	;# 
   104  0011                     	;# 
   105  0012                     	;# 
   106  0013                     	;# 
   107  0014                     	;# 
   108  0015                     	;# 
   109  0015                     	;# 
   110  0016                     	;# 
   111  0017                     	;# 
   112  0018                     	;# 
   113  0019                     	;# 
   114  001A                     	;# 
   115  001B                     	;# 
   116  001B                     	;# 
   117  001C                     	;# 
   118  001D                     	;# 
   119  001E                     	;# 
   120  001F                     	;# 
   121  0081                     	;# 
   122  0085                     	;# 
   123  0086                     	;# 
   124  0087                     	;# 
   125  0088                     	;# 
   126  0089                     	;# 
   127  008C                     	;# 
   128  008D                     	;# 
   129  008E                     	;# 
   130  008F                     	;# 
   131  0090                     	;# 
   132  0091                     	;# 
   133  0092                     	;# 
   134  0093                     	;# 
   135  0093                     	;# 
   136  0093                     	;# 
   137  0094                     	;# 
   138  0095                     	;# 
   139  0096                     	;# 
   140  0097                     	;# 
   141  0098                     	;# 
   142  0099                     	;# 
   143  009A                     	;# 
   144  009B                     	;# 
   145  009C                     	;# 
   146  009D                     	;# 
   147  009E                     	;# 
   148  009F                     	;# 
   149  0105                     	;# 
   150  0107                     	;# 
   151  0108                     	;# 
   152  0109                     	;# 
   153  010C                     	;# 
   154  010C                     	;# 
   155  010D                     	;# 
   156  010E                     	;# 
   157  010F                     	;# 
   158  0185                     	;# 
   159  0187                     	;# 
   160  0188                     	;# 
   161  0189                     	;# 
   162  018C                     	;# 
   163  018D                     	;# 
   164  0000                     	;# 
   165  0001                     	;# 
   166  0002                     	;# 
   167  0003                     	;# 
   168  0004                     	;# 
   169  0005                     	;# 
   170  0006                     	;# 
   171  0007                     	;# 
   172  0008                     	;# 
   173  0009                     	;# 
   174  000A                     	;# 
   175  000B                     	;# 
   176  000C                     	;# 
   177  000D                     	;# 
   178  000E                     	;# 
   179  000E                     	;# 
   180  000F                     	;# 
   181  0010                     	;# 
   182  0011                     	;# 
   183  0012                     	;# 
   184  0013                     	;# 
   185  0014                     	;# 
   186  0015                     	;# 
   187  0015                     	;# 
   188  0016                     	;# 
   189  0017                     	;# 
   190  0018                     	;# 
   191  0019                     	;# 
   192  001A                     	;# 
   193  001B                     	;# 
   194  001B                     	;# 
   195  001C                     	;# 
   196  001D                     	;# 
   197  001E                     	;# 
   198  001F                     	;# 
   199  0081                     	;# 
   200  0085                     	;# 
   201  0086                     	;# 
   202  0087                     	;# 
   203  0088                     	;# 
   204  0089                     	;# 
   205  008C                     	;# 
   206  008D                     	;# 
   207  008E                     	;# 
   208  008F                     	;# 
   209  0090                     	;# 
   210  0091                     	;# 
   211  0092                     	;# 
   212  0093                     	;# 
   213  0093                     	;# 
   214  0093                     	;# 
   215  0094                     	;# 
   216  0095                     	;# 
   217  0096                     	;# 
   218  0097                     	;# 
   219  0098                     	;# 
   220  0099                     	;# 
   221  009A                     	;# 
   222  009B                     	;# 
   223  009C                     	;# 
   224  009D                     	;# 
   225  009E                     	;# 
   226  009F                     	;# 
   227  0105                     	;# 
   228  0107                     	;# 
   229  0108                     	;# 
   230  0109                     	;# 
   231  010C                     	;# 
   232  010C                     	;# 
   233  010D                     	;# 
   234  010E                     	;# 
   235  010F                     	;# 
   236  0185                     	;# 
   237  0187                     	;# 
   238  0188                     	;# 
   239  0189                     	;# 
   240  018C                     	;# 
   241  018D                     	;# 
   242  0000                     	;# 
   243  0001                     	;# 
   244  0002                     	;# 
   245  0003                     	;# 
   246  0004                     	;# 
   247  0005                     	;# 
   248  0006                     	;# 
   249  0007                     	;# 
   250  0008                     	;# 
   251  0009                     	;# 
   252  000A                     	;# 
   253  000B                     	;# 
   254  000C                     	;# 
   255  000D                     	;# 
   256  000E                     	;# 
   257  000E                     	;# 
   258  000F                     	;# 
   259  0010                     	;# 
   260  0011                     	;# 
   261  0012                     	;# 
   262  0013                     	;# 
   263  0014                     	;# 
   264  0015                     	;# 
   265  0015                     	;# 
   266  0016                     	;# 
   267  0017                     	;# 
   268  0018                     	;# 
   269  0019                     	;# 
   270  001A                     	;# 
   271  001B                     	;# 
   272  001B                     	;# 
   273  001C                     	;# 
   274  001D                     	;# 
   275  001E                     	;# 
   276  001F                     	;# 
   277  0081                     	;# 
   278  0085                     	;# 
   279  0086                     	;# 
   280  0087                     	;# 
   281  0088                     	;# 
   282  0089                     	;# 
   283  008C                     	;# 
   284  008D                     	;# 
   285  008E                     	;# 
   286  008F                     	;# 
   287  0090                     	;# 
   288  0091                     	;# 
   289  0092                     	;# 
   290  0093                     	;# 
   291  0093                     	;# 
   292  0093                     	;# 
   293  0094                     	;# 
   294  0095                     	;# 
   295  0096                     	;# 
   296  0097                     	;# 
   297  0098                     	;# 
   298  0099                     	;# 
   299  009A                     	;# 
   300  009B                     	;# 
   301  009C                     	;# 
   302  009D                     	;# 
   303  009E                     	;# 
   304  009F                     	;# 
   305  0105                     	;# 
   306  0107                     	;# 
   307  0108                     	;# 
   308  0109                     	;# 
   309  010C                     	;# 
   310  010C                     	;# 
   311  010D                     	;# 
   312  010E                     	;# 
   313  010F                     	;# 
   314  0185                     	;# 
   315  0187                     	;# 
   316  0188                     	;# 
   317  0189                     	;# 
   318  018C                     	;# 
   319  018D                     	;# 
   320  0000                     	;# 
   321  0001                     	;# 
   322  0002                     	;# 
   323  0003                     	;# 
   324  0004                     	;# 
   325  0005                     	;# 
   326  0006                     	;# 
   327  0007                     	;# 
   328  0008                     	;# 
   329  0009                     	;# 
   330  000A                     	;# 
   331  000B                     	;# 
   332  000C                     	;# 
   333  000D                     	;# 
   334  000E                     	;# 
   335  000E                     	;# 
   336  000F                     	;# 
   337  0010                     	;# 
   338  0011                     	;# 
   339  0012                     	;# 
   340  0013                     	;# 
   341  0014                     	;# 
   342  0015                     	;# 
   343  0015                     	;# 
   344  0016                     	;# 
   345  0017                     	;# 
   346  0018                     	;# 
   347  0019                     	;# 
   348  001A                     	;# 
   349  001B                     	;# 
   350  001B                     	;# 
   351  001C                     	;# 
   352  001D                     	;# 
   353  001E                     	;# 
   354  001F                     	;# 
   355  0081                     	;# 
   356  0085                     	;# 
   357  0086                     	;# 
   358  0087                     	;# 
   359  0088                     	;# 
   360  0089                     	;# 
   361  008C                     	;# 
   362  008D                     	;# 
   363  008E                     	;# 
   364  008F                     	;# 
   365  0090                     	;# 
   366  0091                     	;# 
   367  0092                     	;# 
   368  0093                     	;# 
   369  0093                     	;# 
   370  0093                     	;# 
   371  0094                     	;# 
   372  0095                     	;# 
   373  0096                     	;# 
   374  0097                     	;# 
   375  0098                     	;# 
   376  0099                     	;# 
   377  009A                     	;# 
   378  009B                     	;# 
   379  009C                     	;# 
   380  009D                     	;# 
   381  009E                     	;# 
   382  009F                     	;# 
   383  0105                     	;# 
   384  0107                     	;# 
   385  0108                     	;# 
   386  0109                     	;# 
   387  010C                     	;# 
   388  010C                     	;# 
   389  010D                     	;# 
   390  010E                     	;# 
   391  010F                     	;# 
   392  0185                     	;# 
   393  0187                     	;# 
   394  0188                     	;# 
   395  0189                     	;# 
   396  018C                     	;# 
   397  018D                     	;# 
   398  0000                     	;# 
   399  0001                     	;# 
   400  0002                     	;# 
   401  0003                     	;# 
   402  0004                     	;# 
   403  0005                     	;# 
   404  0006                     	;# 
   405  0007                     	;# 
   406  0008                     	;# 
   407  0009                     	;# 
   408  000A                     	;# 
   409  000B                     	;# 
   410  000C                     	;# 
   411  000D                     	;# 
   412  000E                     	;# 
   413  000E                     	;# 
   414  000F                     	;# 
   415  0010                     	;# 
   416  0011                     	;# 
   417  0012                     	;# 
   418  0013                     	;# 
   419  0014                     	;# 
   420  0015                     	;# 
   421  0015                     	;# 
   422  0016                     	;# 
   423  0017                     	;# 
   424  0018                     	;# 
   425  0019                     	;# 
   426  001A                     	;# 
   427  001B                     	;# 
   428  001B                     	;# 
   429  001C                     	;# 
   430  001D                     	;# 
   431  001E                     	;# 
   432  001F                     	;# 
   433  0081                     	;# 
   434  0085                     	;# 
   435  0086                     	;# 
   436  0087                     	;# 
   437  0088                     	;# 
   438  0089                     	;# 
   439  008C                     	;# 
   440  008D                     	;# 
   441  008E                     	;# 
   442  008F                     	;# 
   443  0090                     	;# 
   444  0091                     	;# 
   445  0092                     	;# 
   446  0093                     	;# 
   447  0093                     	;# 
   448  0093                     	;# 
   449  0094                     	;# 
   450  0095                     	;# 
   451  0096                     	;# 
   452  0097                     	;# 
   453  0098                     	;# 
   454  0099                     	;# 
   455  009A                     	;# 
   456  009B                     	;# 
   457  009C                     	;# 
   458  009D                     	;# 
   459  009E                     	;# 
   460  009F                     	;# 
   461  0105                     	;# 
   462  0107                     	;# 
   463  0108                     	;# 
   464  0109                     	;# 
   465  010C                     	;# 
   466  010C                     	;# 
   467  010D                     	;# 
   468  010E                     	;# 
   469  010F                     	;# 
   470  0185                     	;# 
   471  0187                     	;# 
   472  0188                     	;# 
   473  0189                     	;# 
   474  018C                     	;# 
   475  018D                     	;# 
   476  0000                     	;# 
   477  0001                     	;# 
   478  0002                     	;# 
   479  0003                     	;# 
   480  0004                     	;# 
   481  0005                     	;# 
   482  0006                     	;# 
   483  0007                     	;# 
   484  0008                     	;# 
   485  0009                     	;# 
   486  000A                     	;# 
   487  000B                     	;# 
   488  000C                     	;# 
   489  000D                     	;# 
   490  000E                     	;# 
   491  000E                     	;# 
   492  000F                     	;# 
   493  0010                     	;# 
   494  0011                     	;# 
   495  0012                     	;# 
   496  0013                     	;# 
   497  0014                     	;# 
   498  0015                     	;# 
   499  0015                     	;# 
   500  0016                     	;# 
   501  0017                     	;# 
   502  0018                     	;# 
   503  0019                     	;# 
   504  001A                     	;# 
   505  001B                     	;# 
   506  001B                     	;# 
   507  001C                     	;# 
   508  001D                     	;# 
   509  001E                     	;# 
   510  001F                     	;# 
   511  0081                     	;# 
   512  0085                     	;# 
   513  0086                     	;# 
   514  0087                     	;# 
   515  0088                     	;# 
   516  0089                     	;# 
   517  008C                     	;# 
   518  008D                     	;# 
   519  008E                     	;# 
   520  008F                     	;# 
   521  0090                     	;# 
   522  0091                     	;# 
   523  0092                     	;# 
   524  0093                     	;# 
   525  0093                     	;# 
   526  0093                     	;# 
   527  0094                     	;# 
   528  0095                     	;# 
   529  0096                     	;# 
   530  0097                     	;# 
   531  0098                     	;# 
   532  0099                     	;# 
   533  009A                     	;# 
   534  009B                     	;# 
   535  009C                     	;# 
   536  009D                     	;# 
   537  009E                     	;# 
   538  009F                     	;# 
   539  0105                     	;# 
   540  0107                     	;# 
   541  0108                     	;# 
   542  0109                     	;# 
   543  010C                     	;# 
   544  010C                     	;# 
   545  010D                     	;# 
   546  010E                     	;# 
   547  010F                     	;# 
   548  0185                     	;# 
   549  0187                     	;# 
   550  0188                     	;# 
   551  0189                     	;# 
   552  018C                     	;# 
   553  018D                     	;# 
   554                           
   555                           	psect	idataBANK1
   556  0003                     __pidataBANK1:	
   557                           
   558                           ;initializer for _estado
   559  0003  3401               	retlw	1
   560                           
   561                           	psect	strings
   562  1000                     __pstrings:	
   563  1000                     stringtab:	
   564  1000                     __stringtab:	
   565  1000                     stringcode:	
   566                           ;	String table - string pointers are 1 byte each
   567                           
   568  1000                     stringdir:	
   569  1000  3010               	movlw	high stringdir
   570  1001  008A               	movwf	10
   571  1002  0804               	movf	4,w
   572  1003  0A84               	incf	4,f
   573  1004  0782               	addwf	2,f
   574  1005                     __stringbase:	
   575  1005  3400               	retlw	0
   576  1006                     __end_of__stringtab:	
   577  1006                     _adcMax:	
   578  1006  3400               	retlw	0
   579  1007  34C0               	retlw	192
   580  1008  347F               	retlw	127
   581  1009  3444               	retlw	68
   582  100A                     __end_of_adcMax:	
   583  100A                     log@coeff:	
   584  100A  3400               	retlw	0
   585  100B  3400               	retlw	0
   586  100C  3400               	retlw	0
   587  100D  3400               	retlw	0
   588  100E  34C4               	retlw	196
   589  100F  34FF               	retlw	255
   590  1010  347F               	retlw	127
   591  1011  343F               	retlw	63
   592  1012  3480               	retlw	128
   593  1013  34EF               	retlw	239
   594  1014  34FF               	retlw	255
   595  1015  34BE               	retlw	190
   596  1016  3490               	retlw	144
   597  1017  34E1               	retlw	225
   598  1018  34A9               	retlw	169
   599  1019  343E               	retlw	62
   600  101A  34EC               	retlw	236
   601  101B  3482               	retlw	130
   602  101C  3476               	retlw	118
   603  101D  34BE               	retlw	190
   604  101E  3482               	retlw	130
   605  101F  34AD               	retlw	173
   606  1020  342B               	retlw	43
   607  1021  343E               	retlw	62
   608  1022  340E               	retlw	14
   609  1023  343C               	retlw	60
   610  1024  34C3               	retlw	195
   611  1025  34BD               	retlw	189
   612  1026  3487               	retlw	135
   613  1027  34D1               	retlw	209
   614  1028  3413               	retlw	19
   615  1029  343D               	retlw	61
   616  102A  3441               	retlw	65
   617  102B  3478               	retlw	120
   618  102C  34D3               	retlw	211
   619  102D  34BB               	retlw	187
   620  102E                     __end_oflog@coeff:	
   621  102E                     _invT0:	
   622  102E  340F               	retlw	15
   623  102F  34CF               	retlw	207
   624  1030  345B               	retlw	91
   625  1031  343B               	retlw	59
   626  1032                     __end_of_invT0:	
   627  1032                     _invBeta:	
   628  1032  3463               	retlw	99
   629  1033  341D               	retlw	29
   630  1034  349B               	retlw	155
   631  1035  3439               	retlw	57
   632  1036                     __end_of_invBeta:	
   633  0019                     _TXREG	set	25
   634  001A                     _RCREG	set	26
   635  000C                     _PIR1bits	set	12
   636  0018                     _RCSTAbits	set	24
   637  0013                     _SSPBUF	set	19
   638  0014                     _SSPCON	set	20
   639  0009                     _PORTE	set	9
   640  0008                     _PORTD	set	8
   641  0007                     _PORTC	set	7
   642  0006                     _PORTB	set	6
   643  0005                     _PORTA	set	5
   644  0043                     _RD3	set	67
   645  0042                     _RD2	set	66
   646  0047                     _RD7	set	71
   647  0063                     _SSPIF	set	99
   648  005E                     _PEIE	set	94
   649  005F                     _GIE	set	95
   650  0098                     _TXSTAbits	set	152
   651  0099                     _SPBRG	set	153
   652  008F                     _OSCCONbits	set	143
   653  0091                     _SSPCON2bits	set	145
   654  0087                     _TRISCbits	set	135
   655  0094                     _SSPSTAT	set	148
   656  0093                     _SSPADD	set	147
   657  0091                     _SSPCON2	set	145
   658  0089                     _TRISE	set	137
   659  0088                     _TRISD	set	136
   660  0087                     _TRISC	set	135
   661  0086                     _TRISB	set	134
   662  0085                     _TRISA	set	133
   663  0463                     _SSPIE	set	1123
   664  043C                     _TRISC4	set	1084
   665  043B                     _TRISC3	set	1083
   666  0189                     _ANSELH	set	393
   667  0188                     _ANSEL	set	392
   668  1036                     STR_11:	
   669  1036  3450               	retlw	80	;'P'
   670  1037  3445               	retlw	69	;'E'
   671  1038  3453               	retlw	83	;'S'
   672  1039  344F               	retlw	79	;'O'
   673  103A  3400               	retlw	0
   674  103B                     STR_10:	
   675  103B  3454               	retlw	84	;'T'
   676  103C  3445               	retlw	69	;'E'
   677  103D  344D               	retlw	77	;'M'
   678  103E  3450               	retlw	80	;'P'
   679  103F  3400               	retlw	0
   680  1040                     STR_3:	
   681  1040  3456               	retlw	86	;'V'
   682  1041  3449               	retlw	73	;'I'
   683  1042  3442               	retlw	66	;'B'
   684  1043  3400               	retlw	0
   685  1044                     STR_4:	
   686  1044  344F               	retlw	79	;'O'
   687  1045  3446               	retlw	70	;'F'
   688  1046  3446               	retlw	70	;'F'
   689  1047  3400               	retlw	0
   690  1048                     STR_1:	
   691  1048  3449               	retlw	73	;'I'
   692  1049  344E               	retlw	78	;'N'
   693  104A  3454               	retlw	84	;'T'
   694  104B  3400               	retlw	0
   695  104C                     STR_2:	
   696  104C  344D               	retlw	77	;'M'
   697  104D  344F               	retlw	79	;'O'
   698  104E  3456               	retlw	86	;'V'
   699  104F  3400               	retlw	0
   700  1050                     STR_5:	
   701  1050  344F               	retlw	79	;'O'
   702  1051  344E               	retlw	78	;'N'
   703  1052  3400               	retlw	0
   704  1044                     
   705                           ; #config settings
   706  0000                     
   707                           	psect	cinit
   708  07DF                     start_initialization:	
   709  07DF                     __initialization:	
   710                           
   711                           ; Initialize objects allocated to BANK1
   712  07DF  1683               	bsf	3,5	;RP0=1, select bank1
   713  07E0  1303               	bcf	3,6	;RP1=0, select bank1
   714  07E1  120A  118A  2003  120A  118A  	fcall	__pidataBANK1	;fetch initializer
   715  07E6  00EE               	movwf	__pdataBANK1& (0+127)
   716                           
   717                           ; Clear objects allocated to BANK3
   718  07E7  1783               	bsf	3,7	;select IRP bank2
   719  07E8  3090               	movlw	low __pbssBANK3
   720  07E9  0084               	movwf	4
   721  07EA  3098               	movlw	low (__pbssBANK3+8)
   722  07EB  160A  118A  2125  120A  118A  	fcall	clear_ram0
   723                           
   724                           ; Clear objects allocated to BANK1
   725  07F0  1383               	bcf	3,7	;select IRP bank0
   726  07F1  30A0               	movlw	low __pbssBANK1
   727  07F2  0084               	movwf	4
   728  07F3  30CC               	movlw	low (__pbssBANK1+44)
   729  07F4  160A  118A  2125  120A  118A  	fcall	clear_ram0
   730                           
   731                           ; Clear objects allocated to BANK0
   732  07F9  1283               	bcf	3,5	;RP0=0, select bank0
   733  07FA  1303               	bcf	3,6	;RP1=0, select bank0
   734  07FB  01EE               	clrf	__pbssBANK0& (0+127)
   735  07FC                     end_of_initialization:	
   736                           ;End of C runtime variable initialization code
   737                           
   738  07FC                     __end_of__initialization:	
   739  07FC  0183               	clrf	3
   740  07FD  120A  118A  2A20   	ljmp	_main	;jump to C main() function
   741                           
   742                           	psect	bssBANK0
   743  006E                     __pbssBANK0:	
   744  006E                     _PESO_EN:	
   745  006E                     	ds	1
   746                           
   747                           	psect	bssBANK1
   748  00A0                     __pbssBANK1:	
   749  00A0                     _K:	
   750  00A0                     	ds	4
   751  00A4                     _RES_cien:	
   752  00A4                     	ds	4
   753  00A8                     _POT_cien:	
   754  00A8                     	ds	4
   755  00AC                     _ADC_PESO_V:	
   756  00AC                     	ds	4
   757  00B0                     _errno:	
   758  00B0                     	ds	2
   759  00B2                     _DECI_2_RES:	
   760  00B2                     	ds	2
   761  00B4                     _DECI_1_RES:	
   762  00B4                     	ds	2
   763  00B6                     _DECI_2_POT:	
   764  00B6                     	ds	2
   765  00B8                     _DECI_1_POT:	
   766  00B8                     	ds	2
   767  00BA                     _i:	
   768  00BA                     	ds	1
   769  00BB                     _CONT_C:	
   770  00BB                     	ds	1
   771  00BC                     _CONT_D:	
   772  00BC                     	ds	1
   773  00BD                     _CONT_U:	
   774  00BD                     	ds	1
   775  00BE                     _RES_D2:	
   776  00BE                     	ds	1
   777  00BF                     _RES_D1:	
   778  00BF                     	ds	1
   779  00C0                     _POT_D2:	
   780  00C0                     	ds	1
   781  00C1                     _POT_D1:	
   782  00C1                     	ds	1
   783  00C2                     _RES_EN:	
   784  00C2                     	ds	1
   785  00C3                     _POT_EN:	
   786  00C3                     	ds	1
   787  00C4                     _PESO_EN_1:	
   788  00C4                     	ds	1
   789  00C5                     _TEMP_EN_1:	
   790  00C5                     	ds	1
   791  00C6                     _TEMP_EN:	
   792  00C6                     	ds	1
   793  00C7                     _Val_PESO:	
   794  00C7                     	ds	1
   795  00C8                     _Val_VIB:	
   796  00C8                     	ds	1
   797  00C9                     _Val_MOV:	
   798  00C9                     	ds	1
   799  00CA                     _Val_INT:	
   800  00CA                     	ds	1
   801  00CB                     _Val_TEMP:	
   802  00CB                     	ds	1
   803                           
   804                           	psect	dataBANK1
   805  00EE                     __pdataBANK1:	
   806  00EE                     _estado:	
   807  00EE                     	ds	1
   808                           
   809                           	psect	bssBANK3
   810  0190                     __pbssBANK3:	
   811  0190                     _C:	
   812  0190                     	ds	4
   813  0194                     _ADC_TEMP_V:	
   814  0194                     	ds	4
   815                           
   816                           	psect	clrtext
   817  1125                     clear_ram0:	
   818                           ;	Called with FSR containing the base address, and
   819                           ;	W with the last address+1
   820                           
   821  1125  0064               	clrwdt	;clear the watchdog before getting into this loop
   822  1126                     clrloop0:	
   823  1126  0180               	clrf	0	;clear RAM location pointed to by FSR
   824  1127  0A84               	incf	4,f	;increment pointer
   825  1128  0604               	xorwf	4,w	;XOR with final address
   826  1129  1903               	btfsc	3,2	;have we reached the end yet?
   827  112A  3400               	retlw	0	;all done for this memory range, return
   828  112B  0604               	xorwf	4,w	;XOR again to restore value
   829  112C  2926               	goto	clrloop0	;do the next byte
   830                           
   831                           	psect	cstackBANK1
   832  00CC                     __pcstackBANK1:	
   833  00CC                     ?_eval_poly:	
   834  00CC                     eval_poly@x:	
   835                           ; 4 bytes @ 0x0
   836                           
   837                           
   838                           ; 4 bytes @ 0x0
   839  00CC                     	ds	4
   840  00D0                     eval_poly@d:	
   841                           
   842                           ; 1 bytes @ 0x4
   843  00D0                     	ds	1
   844  00D1                     eval_poly@n:	
   845                           
   846                           ; 2 bytes @ 0x5
   847  00D1                     	ds	2
   848  00D3                     ??_eval_poly:	
   849                           
   850                           ; 1 bytes @ 0x7
   851  00D3                     	ds	5
   852  00D8                     eval_poly@res:	
   853                           
   854                           ; 4 bytes @ 0xC
   855  00D8                     	ds	4
   856  00DC                     ?_log:	
   857  00DC                     log@x:	
   858                           ; 4 bytes @ 0x10
   859                           
   860                           
   861                           ; 4 bytes @ 0x10
   862  00DC                     	ds	4
   863  00E0                     log@exponent:	
   864                           
   865                           ; 2 bytes @ 0x14
   866  00E0                     	ds	2
   867  00E2                     ??_main:	
   868                           
   869                           ; 1 bytes @ 0x16
   870  00E2                     	ds	4
   871  00E6                     _main$1116:	
   872                           
   873                           ; 4 bytes @ 0x1A
   874  00E6                     	ds	4
   875  00EA                     _main$1117:	
   876                           
   877                           ; 4 bytes @ 0x1E
   878  00EA                     	ds	4
   879                           
   880                           	psect	cstackCOMMON
   881  0070                     __pcstackCOMMON:	
   882  0070                     ?___fleq:	
   883  0070                     ?___flge:	
   884                           ; 1 bit 
   885                           
   886  0070                     ?_initOsc:	
   887                           ; 1 bit 
   888                           
   889  0070                     ??_initOsc:	
   890                           ; 1 bytes @ 0x0
   891                           
   892  0070                     ?_init:	
   893                           ; 1 bytes @ 0x0
   894                           
   895  0070                     ?_lcd_init:	
   896                           ; 1 bytes @ 0x0
   897                           
   898  0070                     ?_lcd_msg:	
   899                           ; 1 bytes @ 0x0
   900                           
   901  0070                     ?_I2C_Master_Start:	
   902                           ; 1 bytes @ 0x0
   903                           
   904  0070                     ??_I2C_Master_Start:	
   905                           ; 1 bytes @ 0x0
   906                           
   907  0070                     ?_I2C_Master_Write:	
   908                           ; 1 bytes @ 0x0
   909                           
   910  0070                     ?_I2C_Master_Stop:	
   911                           ; 1 bytes @ 0x0
   912                           
   913  0070                     ??_I2C_Master_Stop:	
   914                           ; 1 bytes @ 0x0
   915                           
   916  0070                     ?_lcd_cmd:	
   917                           ; 1 bytes @ 0x0
   918                           
   919  0070                     ?_lcd_dwr:	
   920                           ; 1 bytes @ 0x0
   921                           
   922  0070                     ?_Val_STR:	
   923                           ; 1 bytes @ 0x0
   924                           
   925  0070                     ??_Val_STR:	
   926                           ; 1 bytes @ 0x0
   927                           
   928  0070                     ?_UART_Write:	
   929                           ; 1 bytes @ 0x0
   930                           
   931  0070                     ??_UART_Write:	
   932                           ; 1 bytes @ 0x0
   933                           
   934  0070                     ?_lcd_ready:	
   935                           ; 1 bytes @ 0x0
   936                           
   937  0070                     ??_lcd_ready:	
   938                           ; 1 bytes @ 0x0
   939                           
   940  0070                     ?_lcd_lat:	
   941                           ; 1 bytes @ 0x0
   942                           
   943  0070                     ??_lcd_lat:	
   944                           ; 1 bytes @ 0x0
   945                           
   946  0070                     ?_main:	
   947                           ; 1 bytes @ 0x0
   948                           
   949  0070                     ?_I2C_Master_Wait:	
   950                           ; 1 bytes @ 0x0
   951                           
   952  0070                     ??_I2C_Master_Wait:	
   953                           ; 1 bytes @ 0x0
   954                           
   955  0070                     ?_I2C_Master_Read:	
   956                           ; 1 bytes @ 0x0
   957                           
   958  0070                     ?__Umul8_16:	
   959                           ; 2 bytes @ 0x0
   960                           
   961  0070                     ?___awmod:	
   962                           ; 2 bytes @ 0x0
   963                           
   964  0070                     ?___lwdiv:	
   965                           ; 2 bytes @ 0x0
   966                           
   967  0070                     ?___lwmod:	
   968                           ; 2 bytes @ 0x0
   969                           
   970  0070                     ?___lldiv:	
   971                           ; 2 bytes @ 0x0
   972                           
   973  0070                     ?___aldiv:	
   974                           ; 4 bytes @ 0x0
   975                           
   976  0070                     ?___fltol:	
   977                           ; 4 bytes @ 0x0
   978                           
   979  0070                     ?___xxtofl:	
   980                           ; 4 bytes @ 0x0
   981                           
   982  0070                     UART_Write@data:	
   983                           ; 4 bytes @ 0x0
   984                           
   985  0070                     __Umul8_16@multiplicand:	
   986                           ; 1 bytes @ 0x0
   987                           
   988  0070                     I2C_Master_Write@d:	
   989                           ; 1 bytes @ 0x0
   990                           
   991  0070                     I2C_Master_Read@a:	
   992                           ; 2 bytes @ 0x0
   993                           
   994  0070                     ___awmod@divisor:	
   995                           ; 2 bytes @ 0x0
   996                           
   997  0070                     ___lwdiv@divisor:	
   998                           ; 2 bytes @ 0x0
   999                           
  1000  0070                     ___lwmod@divisor:	
  1001                           ; 2 bytes @ 0x0
  1002                           
  1003  0070                     ___lldiv@divisor:	
  1004                           ; 2 bytes @ 0x0
  1005                           
  1006  0070                     ___aldiv@divisor:	
  1007                           ; 4 bytes @ 0x0
  1008                           
  1009  0070                     ___fleq@ff1:	
  1010                           ; 4 bytes @ 0x0
  1011                           
  1012  0070                     ___flge@ff1:	
  1013                           ; 4 bytes @ 0x0
  1014                           
  1015  0070                     ___fltol@f1:	
  1016                           ; 4 bytes @ 0x0
  1017                           
  1018  0070                     ___xxtofl@val:	
  1019                           ; 4 bytes @ 0x0
  1020                           
  1021                           
  1022                           ; 4 bytes @ 0x0
  1023  0070                     	ds	2
  1024  0072                     ??_I2C_Master_Write:	
  1025  0072                     ??_I2C_Master_Read:	
  1026                           ; 1 bytes @ 0x2
  1027                           
  1028  0072                     ??_lcd_cmd:	
  1029                           ; 1 bytes @ 0x2
  1030                           
  1031  0072                     ??_lcd_dwr:	
  1032                           ; 1 bytes @ 0x2
  1033                           
  1034  0072                     ??__Umul8_16:	
  1035                           ; 1 bytes @ 0x2
  1036                           
  1037  0072                     Val_STR@num:	
  1038                           ; 1 bytes @ 0x2
  1039                           
  1040  0072                     lcd_cmd@x:	
  1041                           ; 1 bytes @ 0x2
  1042                           
  1043  0072                     lcd_dwr@x:	
  1044                           ; 1 bytes @ 0x2
  1045                           
  1046  0072                     initOsc@frec:	
  1047                           ; 1 bytes @ 0x2
  1048                           
  1049  0072                     ___awmod@dividend:	
  1050                           ; 1 bytes @ 0x2
  1051                           
  1052  0072                     ___lwdiv@dividend:	
  1053                           ; 2 bytes @ 0x2
  1054                           
  1055  0072                     ___lwmod@dividend:	
  1056                           ; 2 bytes @ 0x2
  1057                           
  1058                           
  1059                           ; 2 bytes @ 0x2
  1060  0072                     	ds	1
  1061  0073                     ??_lcd_init:	
  1062  0073                     ?_LCD_POINT:	
  1063                           ; 1 bytes @ 0x3
  1064                           
  1065  0073                     ??_lcd_msg:	
  1066                           ; 1 bytes @ 0x3
  1067                           
  1068  0073                     LCD_POINT@col:	
  1069                           ; 1 bytes @ 0x3
  1070                           
  1071                           
  1072                           ; 1 bytes @ 0x3
  1073  0073                     	ds	1
  1074  0074                     ??_LCD_POINT:	
  1075  0074                     ??___awmod:	
  1076                           ; 1 bytes @ 0x4
  1077                           
  1078  0074                     ??___fltol:	
  1079                           ; 1 bytes @ 0x4
  1080                           
  1081  0074                     ??___lwdiv:	
  1082                           ; 1 bytes @ 0x4
  1083                           
  1084  0074                     ??___lwmod:	
  1085                           ; 1 bytes @ 0x4
  1086                           
  1087  0074                     ??___xxtofl:	
  1088                           ; 1 bytes @ 0x4
  1089                           
  1090  0074                     lcd_msg@c:	
  1091                           ; 1 bytes @ 0x4
  1092                           
  1093  0074                     I2C_Master_Read@temp:	
  1094                           ; 1 bytes @ 0x4
  1095                           
  1096  0074                     __Umul8_16@product:	
  1097                           ; 2 bytes @ 0x4
  1098                           
  1099  0074                     ___lldiv@dividend:	
  1100                           ; 2 bytes @ 0x4
  1101                           
  1102  0074                     ___aldiv@dividend:	
  1103                           ; 4 bytes @ 0x4
  1104                           
  1105  0074                     ___fleq@ff2:	
  1106                           ; 4 bytes @ 0x4
  1107                           
  1108  0074                     ___flge@ff2:	
  1109                           ; 4 bytes @ 0x4
  1110                           
  1111                           
  1112                           ; 4 bytes @ 0x4
  1113  0074                     	ds	1
  1114  0075                     ___awmod@counter:	
  1115  0075                     ___lwmod@counter:	
  1116                           ; 1 bytes @ 0x5
  1117                           
  1118  0075                     ___lwdiv@quotient:	
  1119                           ; 1 bytes @ 0x5
  1120                           
  1121                           
  1122                           ; 2 bytes @ 0x5
  1123  0075                     	ds	1
  1124  0076                     ___awmod@sign:	
  1125  0076                     _LCD_POINT$278:	
  1126                           ; 1 bytes @ 0x6
  1127                           
  1128  0076                     __Umul8_16@word_mpld:	
  1129                           ; 2 bytes @ 0x6
  1130                           
  1131                           
  1132                           ; 2 bytes @ 0x6
  1133  0076                     	ds	1
  1134  0077                     ___lwdiv@counter:	
  1135                           
  1136                           ; 1 bytes @ 0x7
  1137  0077                     	ds	1
  1138  0078                     ??___lldiv:	
  1139  0078                     ??___aldiv:	
  1140                           ; 1 bytes @ 0x8
  1141                           
  1142  0078                     ??___fleq:	
  1143                           ; 1 bytes @ 0x8
  1144                           
  1145  0078                     ??___flge:	
  1146                           ; 1 bytes @ 0x8
  1147                           
  1148  0078                     LCD_POINT@lin:	
  1149                           ; 1 bytes @ 0x8
  1150                           
  1151  0078                     ___xxtofl@sign:	
  1152                           ; 1 bytes @ 0x8
  1153                           
  1154  0078                     __Umul8_16@multiplier:	
  1155                           ; 1 bytes @ 0x8
  1156                           
  1157                           
  1158                           ; 1 bytes @ 0x8
  1159  0078                     	ds	1
  1160  0079                     ___fltol@sign1:	
  1161  0079                     ___xxtofl@exp:	
  1162                           ; 1 bytes @ 0x9
  1163                           
  1164  0079                     ___lldiv@quotient:	
  1165                           ; 1 bytes @ 0x9
  1166                           
  1167                           
  1168                           ; 4 bytes @ 0x9
  1169  0079                     	ds	1
  1170  007A                     ___fltol@exp1:	
  1171  007A                     ___xxtofl@arg:	
  1172                           ; 1 bytes @ 0xA
  1173                           
  1174                           
  1175                           ; 4 bytes @ 0xA
  1176  007A                     	ds	2
  1177  007C                     ??_frexp:	
  1178                           
  1179                           ; 1 bytes @ 0xC
  1180  007C                     	ds	1
  1181  007D                     ___lldiv@counter:	
  1182                           
  1183                           ; 1 bytes @ 0xD
  1184  007D                     	ds	1
  1185  007E                     ??_init:	
  1186                           
  1187                           	psect	cstackBANK0
  1188  0020                     __pcstackBANK0:	
  1189                           ; 1 bytes @ 0xE
  1190                           
  1191  0020                     ?_I2C_Master_Init:	
  1192  0020                     ?_frexp:	
  1193                           ; 1 bytes @ 0x0
  1194                           
  1195  0020                     ___aldiv@counter:	
  1196                           ; 4 bytes @ 0x0
  1197                           
  1198  0020                     I2C_Master_Init@c:	
  1199                           ; 1 bytes @ 0x0
  1200                           
  1201  0020                     frexp@value:	
  1202                           ; 4 bytes @ 0x0
  1203                           
  1204                           
  1205                           ; 4 bytes @ 0x0
  1206  0020                     	ds	1
  1207  0021                     ___aldiv@sign:	
  1208                           
  1209                           ; 1 bytes @ 0x1
  1210  0021                     	ds	1
  1211  0022                     ___aldiv@quotient:	
  1212                           
  1213                           ; 4 bytes @ 0x2
  1214  0022                     	ds	2
  1215  0024                     ??_I2C_Master_Init:	
  1216  0024                     frexp@eptr:	
  1217                           ; 1 bytes @ 0x4
  1218                           
  1219                           
  1220                           ; 1 bytes @ 0x4
  1221  0024                     	ds	1
  1222  0025                     ?___fldiv:	
  1223  0025                     ___fldiv@a:	
  1224                           ; 4 bytes @ 0x5
  1225                           
  1226                           
  1227                           ; 4 bytes @ 0x5
  1228  0025                     	ds	1
  1229  0026                     ?_UART_Init:	
  1230  0026                     UART_Init@baudrate:	
  1231                           ; 1 bytes @ 0x6
  1232                           
  1233                           
  1234                           ; 4 bytes @ 0x6
  1235  0026                     	ds	3
  1236  0029                     ___fldiv@b:	
  1237                           
  1238                           ; 4 bytes @ 0x9
  1239  0029                     	ds	1
  1240  002A                     ??_UART_Init:	
  1241                           
  1242                           ; 1 bytes @ 0xA
  1243  002A                     	ds	3
  1244  002D                     ??___fldiv:	
  1245                           
  1246                           ; 1 bytes @ 0xD
  1247  002D                     	ds	5
  1248  0032                     ___fldiv@rem:	
  1249                           
  1250                           ; 4 bytes @ 0x12
  1251  0032                     	ds	4
  1252  0036                     ___fldiv@sign:	
  1253                           
  1254                           ; 1 bytes @ 0x16
  1255  0036                     	ds	1
  1256  0037                     ___fldiv@new_exp:	
  1257                           
  1258                           ; 2 bytes @ 0x17
  1259  0037                     	ds	2
  1260  0039                     ___fldiv@grs:	
  1261                           
  1262                           ; 4 bytes @ 0x19
  1263  0039                     	ds	4
  1264  003D                     ___fldiv@bexp:	
  1265                           
  1266                           ; 1 bytes @ 0x1D
  1267  003D                     	ds	1
  1268  003E                     ___fldiv@aexp:	
  1269                           
  1270                           ; 1 bytes @ 0x1E
  1271  003E                     	ds	1
  1272  003F                     ?___fladd:	
  1273  003F                     ___fladd@b:	
  1274                           ; 4 bytes @ 0x1F
  1275                           
  1276                           
  1277                           ; 4 bytes @ 0x1F
  1278  003F                     	ds	4
  1279  0043                     ___fladd@a:	
  1280                           
  1281                           ; 4 bytes @ 0x23
  1282  0043                     	ds	4
  1283  0047                     ??___fladd:	
  1284                           
  1285                           ; 1 bytes @ 0x27
  1286  0047                     	ds	8
  1287  004F                     ___fladd@signs:	
  1288                           
  1289                           ; 1 bytes @ 0x2F
  1290  004F                     	ds	1
  1291  0050                     ___fladd@aexp:	
  1292                           
  1293                           ; 1 bytes @ 0x30
  1294  0050                     	ds	1
  1295  0051                     ___fladd@bexp:	
  1296                           
  1297                           ; 1 bytes @ 0x31
  1298  0051                     	ds	1
  1299  0052                     ___fladd@grs:	
  1300                           
  1301                           ; 1 bytes @ 0x32
  1302  0052                     	ds	1
  1303  0053                     ?___flmul:	
  1304  0053                     ___flmul@b:	
  1305                           ; 4 bytes @ 0x33
  1306                           
  1307                           
  1308                           ; 4 bytes @ 0x33
  1309  0053                     	ds	4
  1310  0057                     ___flmul@a:	
  1311                           
  1312                           ; 4 bytes @ 0x37
  1313  0057                     	ds	4
  1314  005B                     ??___flmul:	
  1315                           
  1316                           ; 1 bytes @ 0x3B
  1317  005B                     	ds	5
  1318  0060                     ___flmul@sign:	
  1319                           
  1320                           ; 1 bytes @ 0x40
  1321  0060                     	ds	1
  1322  0061                     ___flmul@grs:	
  1323                           
  1324                           ; 4 bytes @ 0x41
  1325  0061                     	ds	4
  1326  0065                     ___flmul@aexp:	
  1327                           
  1328                           ; 1 bytes @ 0x45
  1329  0065                     	ds	1
  1330  0066                     ___flmul@bexp:	
  1331                           
  1332                           ; 1 bytes @ 0x46
  1333  0066                     	ds	1
  1334  0067                     ___flmul@prod:	
  1335                           
  1336                           ; 4 bytes @ 0x47
  1337  0067                     	ds	4
  1338  006B                     ___flmul@temp:	
  1339                           
  1340                           ; 2 bytes @ 0x4B
  1341  006B                     	ds	2
  1342  006D                     ??_log:	
  1343                           
  1344                           ; 1 bytes @ 0x4D
  1345  006D                     	ds	1
  1346                           
  1347                           	psect	maintext
  1348  0220                     __pmaintext:	
  1349 ;;
  1350 ;;Main: autosize = 0, tempsize = 4, incstack = 0, save=0
  1351 ;;
  1352 ;; *************** function _main *****************
  1353 ;; Defined at:
  1354 ;;		line 90 in file "MASTER_Proyecto.c"
  1355 ;; Parameters:    Size  Location     Type
  1356 ;;		None
  1357 ;; Auto vars:     Size  Location     Type
  1358 ;;		None
  1359 ;; Return value:  Size  Location     Type
  1360 ;;                  1    wreg      void 
  1361 ;; Registers used:
  1362 ;;		wreg, fsr0l, fsr0h, status,2, status,0, btemp+1, pclath, cstack
  1363 ;; Tracked objects:
  1364 ;;		On entry : B00/0
  1365 ;;		On exit  : 0/0
  1366 ;;		Unchanged: 0/0
  1367 ;; Data sizes:     COMMON   BANK0   BANK1   BANK3   BANK2
  1368 ;;      Params:         0       0       0       0       0
  1369 ;;      Locals:         0       0       8       0       0
  1370 ;;      Temps:          0       0       4       0       0
  1371 ;;      Totals:         0       0      12       0       0
  1372 ;;Total ram usage:       12 bytes
  1373 ;; Hardware stack levels required when called:    4
  1374 ;; This function calls:
  1375 ;;		_I2C_Master_Read
  1376 ;;		_I2C_Master_Start
  1377 ;;		_I2C_Master_Stop
  1378 ;;		_I2C_Master_Write
  1379 ;;		_LCD_POINT
  1380 ;;		_UART_Init
  1381 ;;		_UART_Write
  1382 ;;		_Val_STR
  1383 ;;		___awmod
  1384 ;;		___fladd
  1385 ;;		___fldiv
  1386 ;;		___flmul
  1387 ;;		___fltol
  1388 ;;		___lwdiv
  1389 ;;		___lwmod
  1390 ;;		___xxtofl
  1391 ;;		_init
  1392 ;;		_initOsc
  1393 ;;		_lcd_cmd
  1394 ;;		_lcd_dwr
  1395 ;;		_lcd_init
  1396 ;;		_lcd_msg
  1397 ;;		_log
  1398 ;; This function is called by:
  1399 ;;		Startup code after reset
  1400 ;; This function uses a non-reentrant model
  1401 ;;
  1402                           
  1403                           
  1404                           ;psect for function _main
  1405  0220                     _main:	
  1406  0220                     l3276:	
  1407                           ;incstack = 0
  1408                           ; Regs used in _main: [wreg-fsr0h+status,2+status,0+btemp+1+pclath+cstack]
  1409                           
  1410                           
  1411                           ;MASTER_Proyecto.c: 91:     initOsc(7);
  1412  0220  3007               	movlw	7
  1413  0221  160A  118A  23E8  120A  118A  	fcall	_initOsc
  1414  0226                     l3278:	
  1415                           
  1416                           ;MASTER_Proyecto.c: 92:     init();
  1417  0226  160A  118A  2186  120A  118A  	fcall	_init
  1418  022B                     l3280:	
  1419                           
  1420                           ;MASTER_Proyecto.c: 93:     lcd_init();
  1421  022B  160A  118A  21A2  120A  118A  	fcall	_lcd_init
  1422  0230                     l3282:	
  1423                           
  1424                           ;MASTER_Proyecto.c: 94:     UART_Init(9600);
  1425  0230  3000               	movlw	0
  1426  0231  1283               	bcf	3,5	;RP0=0, select bank0
  1427  0232  1303               	bcf	3,6	;RP1=0, select bank0
  1428  0233  00A9               	movwf	UART_Init@baudrate+3
  1429  0234  3000               	movlw	0
  1430  0235  00A8               	movwf	UART_Init@baudrate+2
  1431  0236  3025               	movlw	37
  1432  0237  00A7               	movwf	UART_Init@baudrate+1
  1433  0238  3080               	movlw	128
  1434  0239  00A6               	movwf	UART_Init@baudrate
  1435  023A  160A  118A  2506  120A  118A  	fcall	_UART_Init
  1436  023F                     l3284:	
  1437                           
  1438                           ;MASTER_Proyecto.c: 96:     PORTA = 0;
  1439  023F  1283               	bcf	3,5	;RP0=0, select bank0
  1440  0240  1303               	bcf	3,6	;RP1=0, select bank0
  1441  0241  0185               	clrf	5	;volatile
  1442  0242                     l3286:	
  1443                           
  1444                           ;MASTER_Proyecto.c: 97:     PORTB = 0;
  1445  0242  0186               	clrf	6	;volatile
  1446  0243                     l3288:	
  1447                           
  1448                           ;MASTER_Proyecto.c: 98:     PORTC = 0;
  1449  0243  0187               	clrf	7	;volatile
  1450  0244                     l3290:	
  1451                           
  1452                           ;MASTER_Proyecto.c: 99:     PORTD = 0;
  1453  0244  0188               	clrf	8	;volatile
  1454  0245                     l3292:	
  1455                           
  1456                           ;MASTER_Proyecto.c: 100:     PORTE = 0;
  1457  0245  0189               	clrf	9	;volatile
  1458  0246                     l3294:	
  1459                           
  1460                           ;MASTER_Proyecto.c: 104:         LCD_POINT(1,2);
  1461  0246  3002               	movlw	2
  1462  0247  1683               	bsf	3,5	;RP0=1, select bank1
  1463  0248  1303               	bcf	3,6	;RP1=0, select bank1
  1464  0249  00E2               	movwf	??_main^(0+128)
  1465  024A  0862               	movf	??_main^(0+128),w
  1466  024B  00F3               	movwf	LCD_POINT@col
  1467  024C  3001               	movlw	1
  1468  024D  160A  118A  225D  120A  118A  	fcall	_LCD_POINT
  1469  0252                     l3296:	
  1470                           
  1471                           ;MASTER_Proyecto.c: 105:         lcd_msg("INT");
  1472  0252  3043               	movlw	(low ((STR_1-__stringbase)| (0+32768)))& (0+255)
  1473  0253  160A  118A  21C1  120A  118A  	fcall	_lcd_msg
  1474  0258                     l3298:	
  1475                           
  1476                           ;MASTER_Proyecto.c: 106:         LCD_POINT(1,6);
  1477  0258  3006               	movlw	6
  1478  0259  1683               	bsf	3,5	;RP0=1, select bank1
  1479  025A  1303               	bcf	3,6	;RP1=0, select bank1
  1480  025B  00E2               	movwf	??_main^(0+128)
  1481  025C  0862               	movf	??_main^(0+128),w
  1482  025D  00F3               	movwf	LCD_POINT@col
  1483  025E  3001               	movlw	1
  1484  025F  160A  118A  225D  120A  118A  	fcall	_LCD_POINT
  1485  0264                     l3300:	
  1486                           
  1487                           ;MASTER_Proyecto.c: 107:         lcd_msg("MOV");
  1488  0264  3047               	movlw	(low ((STR_2-__stringbase)| (0+32768)))& (0+255)
  1489  0265  160A  118A  21C1  120A  118A  	fcall	_lcd_msg
  1490  026A                     l3302:	
  1491                           
  1492                           ;MASTER_Proyecto.c: 108:         LCD_POINT(1,10);
  1493  026A  300A               	movlw	10
  1494  026B  1683               	bsf	3,5	;RP0=1, select bank1
  1495  026C  1303               	bcf	3,6	;RP1=0, select bank1
  1496  026D  00E2               	movwf	??_main^(0+128)
  1497  026E  0862               	movf	??_main^(0+128),w
  1498  026F  00F3               	movwf	LCD_POINT@col
  1499  0270  3001               	movlw	1
  1500  0271  160A  118A  225D  120A  118A  	fcall	_LCD_POINT
  1501  0276                     l3304:	
  1502                           
  1503                           ;MASTER_Proyecto.c: 109:         lcd_msg("VIB");
  1504  0276  303B               	movlw	(low ((STR_3-__stringbase)| (0+32768)))& (0+255)
  1505  0277  160A  118A  21C1  120A  118A  	fcall	_lcd_msg
  1506  027C                     l3306:	
  1507                           
  1508                           ;MASTER_Proyecto.c: 116:         I2C_Master_Start();
  1509  027C  160A  118A  212D  120A  118A  	fcall	_I2C_Master_Start
  1510  0281                     l3308:	
  1511                           
  1512                           ;MASTER_Proyecto.c: 117:         I2C_Master_Write(0x31);
  1513  0281  3031               	movlw	49
  1514  0282  00F0               	movwf	I2C_Master_Write@d
  1515  0283  3000               	movlw	0
  1516  0284  00F1               	movwf	I2C_Master_Write@d+1
  1517  0285  160A  118A  213F  120A  118A  	fcall	_I2C_Master_Write
  1518  028A                     l3310:	
  1519                           
  1520                           ;MASTER_Proyecto.c: 118:         Val_INT = I2C_Master_Read(0);
  1521  028A  3000               	movlw	0
  1522  028B  00F0               	movwf	I2C_Master_Read@a
  1523  028C  00F1               	movwf	I2C_Master_Read@a+1
  1524  028D  160A  118A  2230  120A  118A  	fcall	_I2C_Master_Read
  1525  0292  0870               	movf	?_I2C_Master_Read,w
  1526  0293  1683               	bsf	3,5	;RP0=1, select bank1
  1527  0294  1303               	bcf	3,6	;RP1=0, select bank1
  1528  0295  00E2               	movwf	??_main^(0+128)
  1529  0296  0862               	movf	??_main^(0+128),w
  1530  0297  00CA               	movwf	_Val_INT^(0+128)
  1531  0298                     l3312:	
  1532                           
  1533                           ;MASTER_Proyecto.c: 119:         I2C_Master_Stop();
  1534  0298  160A  118A  2136  120A  118A  	fcall	_I2C_Master_Stop
  1535  029D                     l3314:	
  1536                           
  1537                           ;MASTER_Proyecto.c: 120:         _delay((unsigned long)((200)*(8000000/4000.0)));
  1538  029D  3003               	movlw	3
  1539  029E  1683               	bsf	3,5	;RP0=1, select bank1
  1540  029F  1303               	bcf	3,6	;RP1=0, select bank1
  1541  02A0  00E4               	movwf	(??_main^(0+128)+2)
  1542  02A1  3008               	movlw	8
  1543  02A2  00E3               	movwf	(??_main^(0+128)+1)
  1544  02A3  3076               	movlw	118
  1545  02A4  00E2               	movwf	??_main^(0+128)
  1546  02A5                     u4307:	
  1547  02A5  0BE2               	decfsz	??_main^(0+128),f
  1548  02A6  2AA5               	goto	u4307
  1549  02A7  0BE3               	decfsz	(??_main^(0+128)+1),f
  1550  02A8  2AA5               	goto	u4307
  1551  02A9  0BE4               	decfsz	(??_main^(0+128)+2),f
  1552  02AA  2AA5               	goto	u4307
  1553  02AB  0000               	nop
  1554  02AC                     l3316:	
  1555                           
  1556                           ;MASTER_Proyecto.c: 124:         I2C_Master_Start();
  1557  02AC  160A  118A  212D  120A  118A  	fcall	_I2C_Master_Start
  1558  02B1                     l3318:	
  1559                           
  1560                           ;MASTER_Proyecto.c: 125:         I2C_Master_Write(0x61);
  1561  02B1  3061               	movlw	97
  1562  02B2  00F0               	movwf	I2C_Master_Write@d
  1563  02B3  3000               	movlw	0
  1564  02B4  00F1               	movwf	I2C_Master_Write@d+1
  1565  02B5  160A  118A  213F  120A  118A  	fcall	_I2C_Master_Write
  1566  02BA                     l3320:	
  1567                           
  1568                           ;MASTER_Proyecto.c: 126:         Val_MOV = I2C_Master_Read(0);
  1569  02BA  3000               	movlw	0
  1570  02BB  00F0               	movwf	I2C_Master_Read@a
  1571  02BC  00F1               	movwf	I2C_Master_Read@a+1
  1572  02BD  160A  118A  2230  120A  118A  	fcall	_I2C_Master_Read
  1573  02C2  0870               	movf	?_I2C_Master_Read,w
  1574  02C3  1683               	bsf	3,5	;RP0=1, select bank1
  1575  02C4  1303               	bcf	3,6	;RP1=0, select bank1
  1576  02C5  00E2               	movwf	??_main^(0+128)
  1577  02C6  0862               	movf	??_main^(0+128),w
  1578  02C7  00C9               	movwf	_Val_MOV^(0+128)
  1579  02C8                     l3322:	
  1580                           
  1581                           ;MASTER_Proyecto.c: 127:         I2C_Master_Stop();
  1582  02C8  160A  118A  2136  120A  118A  	fcall	_I2C_Master_Stop
  1583  02CD                     l3324:	
  1584                           
  1585                           ;MASTER_Proyecto.c: 128:         _delay((unsigned long)((200)*(8000000/4000.0)));
  1586  02CD  3003               	movlw	3
  1587  02CE  1683               	bsf	3,5	;RP0=1, select bank1
  1588  02CF  1303               	bcf	3,6	;RP1=0, select bank1
  1589  02D0  00E4               	movwf	(??_main^(0+128)+2)
  1590  02D1  3008               	movlw	8
  1591  02D2  00E3               	movwf	(??_main^(0+128)+1)
  1592  02D3  3076               	movlw	118
  1593  02D4  00E2               	movwf	??_main^(0+128)
  1594  02D5                     u4317:	
  1595  02D5  0BE2               	decfsz	??_main^(0+128),f
  1596  02D6  2AD5               	goto	u4317
  1597  02D7  0BE3               	decfsz	(??_main^(0+128)+1),f
  1598  02D8  2AD5               	goto	u4317
  1599  02D9  0BE4               	decfsz	(??_main^(0+128)+2),f
  1600  02DA  2AD5               	goto	u4317
  1601  02DB  0000               	nop
  1602  02DC                     l3326:	
  1603                           
  1604                           ;MASTER_Proyecto.c: 132:         I2C_Master_Start();
  1605  02DC  160A  118A  212D  120A  118A  	fcall	_I2C_Master_Start
  1606  02E1                     l3328:	
  1607                           
  1608                           ;MASTER_Proyecto.c: 133:         I2C_Master_Write(0x91);
  1609  02E1  3091               	movlw	145
  1610  02E2  00F0               	movwf	I2C_Master_Write@d
  1611  02E3  3000               	movlw	0
  1612  02E4  00F1               	movwf	I2C_Master_Write@d+1
  1613  02E5  160A  118A  213F  120A  118A  	fcall	_I2C_Master_Write
  1614  02EA                     l3330:	
  1615                           
  1616                           ;MASTER_Proyecto.c: 134:         Val_VIB = I2C_Master_Read(0);
  1617  02EA  3000               	movlw	0
  1618  02EB  00F0               	movwf	I2C_Master_Read@a
  1619  02EC  00F1               	movwf	I2C_Master_Read@a+1
  1620  02ED  160A  118A  2230  120A  118A  	fcall	_I2C_Master_Read
  1621  02F2  0870               	movf	?_I2C_Master_Read,w
  1622  02F3  1683               	bsf	3,5	;RP0=1, select bank1
  1623  02F4  1303               	bcf	3,6	;RP1=0, select bank1
  1624  02F5  00E2               	movwf	??_main^(0+128)
  1625  02F6  0862               	movf	??_main^(0+128),w
  1626  02F7  00C8               	movwf	_Val_VIB^(0+128)
  1627  02F8                     l3332:	
  1628                           
  1629                           ;MASTER_Proyecto.c: 135:         I2C_Master_Stop();
  1630  02F8  160A  118A  2136  120A  118A  	fcall	_I2C_Master_Stop
  1631  02FD                     l3334:	
  1632                           
  1633                           ;MASTER_Proyecto.c: 136:         _delay((unsigned long)((200)*(8000000/4000.0)));
  1634  02FD  3003               	movlw	3
  1635  02FE  1683               	bsf	3,5	;RP0=1, select bank1
  1636  02FF  1303               	bcf	3,6	;RP1=0, select bank1
  1637  0300  00E4               	movwf	(??_main^(0+128)+2)
  1638  0301  3008               	movlw	8
  1639  0302  00E3               	movwf	(??_main^(0+128)+1)
  1640  0303  3076               	movlw	118
  1641  0304  00E2               	movwf	??_main^(0+128)
  1642  0305                     u4327:	
  1643  0305  0BE2               	decfsz	??_main^(0+128),f
  1644  0306  2B05               	goto	u4327
  1645  0307  0BE3               	decfsz	(??_main^(0+128)+1),f
  1646  0308  2B05               	goto	u4327
  1647  0309  0BE4               	decfsz	(??_main^(0+128)+2),f
  1648  030A  2B05               	goto	u4327
  1649  030B  0000               	nop
  1650  030C                     l3336:	
  1651                           
  1652                           ;MASTER_Proyecto.c: 140:         I2C_Master_Start();
  1653  030C  160A  118A  212D  120A  118A  	fcall	_I2C_Master_Start
  1654  0311                     l3338:	
  1655                           
  1656                           ;MASTER_Proyecto.c: 141:         I2C_Master_Write(0xC1);
  1657  0311  30C1               	movlw	193
  1658  0312  00F0               	movwf	I2C_Master_Write@d
  1659  0313  3000               	movlw	0
  1660  0314  00F1               	movwf	I2C_Master_Write@d+1
  1661  0315  160A  118A  213F  120A  118A  	fcall	_I2C_Master_Write
  1662  031A                     l3340:	
  1663                           
  1664                           ;MASTER_Proyecto.c: 142:         Val_TEMP = I2C_Master_Read(0);
  1665  031A  3000               	movlw	0
  1666  031B  00F0               	movwf	I2C_Master_Read@a
  1667  031C  00F1               	movwf	I2C_Master_Read@a+1
  1668  031D  160A  118A  2230  120A  118A  	fcall	_I2C_Master_Read
  1669  0322  0870               	movf	?_I2C_Master_Read,w
  1670  0323  1683               	bsf	3,5	;RP0=1, select bank1
  1671  0324  1303               	bcf	3,6	;RP1=0, select bank1
  1672  0325  00E2               	movwf	??_main^(0+128)
  1673  0326  0862               	movf	??_main^(0+128),w
  1674  0327  00CB               	movwf	_Val_TEMP^(0+128)
  1675  0328                     l3342:	
  1676                           
  1677                           ;MASTER_Proyecto.c: 143:         I2C_Master_Stop();
  1678  0328  160A  118A  2136  120A  118A  	fcall	_I2C_Master_Stop
  1679  032D                     l3344:	
  1680                           
  1681                           ;MASTER_Proyecto.c: 144:         _delay((unsigned long)((200)*(8000000/4000.0)));
  1682  032D  3003               	movlw	3
  1683  032E  1683               	bsf	3,5	;RP0=1, select bank1
  1684  032F  1303               	bcf	3,6	;RP1=0, select bank1
  1685  0330  00E4               	movwf	(??_main^(0+128)+2)
  1686  0331  3008               	movlw	8
  1687  0332  00E3               	movwf	(??_main^(0+128)+1)
  1688  0333  3076               	movlw	118
  1689  0334  00E2               	movwf	??_main^(0+128)
  1690  0335                     u4337:	
  1691  0335  0BE2               	decfsz	??_main^(0+128),f
  1692  0336  2B35               	goto	u4337
  1693  0337  0BE3               	decfsz	(??_main^(0+128)+1),f
  1694  0338  2B35               	goto	u4337
  1695  0339  0BE4               	decfsz	(??_main^(0+128)+2),f
  1696  033A  2B35               	goto	u4337
  1697  033B  0000               	nop
  1698  033C                     l3346:	
  1699                           
  1700                           ;MASTER_Proyecto.c: 159:         if (Val_INT == 1){
  1701  033C  1683               	bsf	3,5	;RP0=1, select bank1
  1702  033D  1303               	bcf	3,6	;RP1=0, select bank1
  1703  033E  034A               	decf	_Val_INT^(0+128),w
  1704  033F  1D03               	btfss	3,2
  1705  0340  2B42               	goto	u4241
  1706  0341  2B43               	goto	u4240
  1707  0342                     u4241:	
  1708  0342  2B54               	goto	l3352
  1709  0343                     u4240:	
  1710  0343                     l3348:	
  1711                           
  1712                           ;MASTER_Proyecto.c: 160:             LCD_POINT(2,2);
  1713  0343  3002               	movlw	2
  1714  0344  00E2               	movwf	??_main^(0+128)
  1715  0345  0862               	movf	??_main^(0+128),w
  1716  0346  00F3               	movwf	LCD_POINT@col
  1717  0347  3002               	movlw	2
  1718  0348  160A  118A  225D  120A  118A  	fcall	_LCD_POINT
  1719  034D                     l3350:	
  1720                           
  1721                           ;MASTER_Proyecto.c: 161:             lcd_msg("OFF");
  1722  034D  303F               	movlw	(low ((STR_4-__stringbase)| (0+32768)))& (0+255)
  1723  034E  160A  118A  21C1  120A  118A  	fcall	_lcd_msg
  1724                           
  1725                           ;MASTER_Proyecto.c: 162:         }else{
  1726  0353  2B64               	goto	l3356
  1727  0354                     l3352:	
  1728                           
  1729                           ;MASTER_Proyecto.c: 163:             LCD_POINT(2,2);
  1730  0354  3002               	movlw	2
  1731  0355  00E2               	movwf	??_main^(0+128)
  1732  0356  0862               	movf	??_main^(0+128),w
  1733  0357  00F3               	movwf	LCD_POINT@col
  1734  0358  3002               	movlw	2
  1735  0359  160A  118A  225D  120A  118A  	fcall	_LCD_POINT
  1736  035E                     l3354:	
  1737                           
  1738                           ;MASTER_Proyecto.c: 164:             lcd_msg("ON");
  1739  035E  304B               	movlw	(low ((STR_5-__stringbase)| (0+32768)))& (0+255)
  1740  035F  160A  118A  21C1  120A  118A  	fcall	_lcd_msg
  1741  0364                     l3356:	
  1742                           
  1743                           ;MASTER_Proyecto.c: 169:         if (Val_MOV == 0){
  1744  0364  1683               	bsf	3,5	;RP0=1, select bank1
  1745  0365  1303               	bcf	3,6	;RP1=0, select bank1
  1746  0366  0849               	movf	_Val_MOV^(0+128),w
  1747  0367  1D03               	btfss	3,2
  1748  0368  2B6A               	goto	u4251
  1749  0369  2B6B               	goto	u4250
  1750  036A                     u4251:	
  1751  036A  2B7C               	goto	l3362
  1752  036B                     u4250:	
  1753  036B                     l3358:	
  1754                           
  1755                           ;MASTER_Proyecto.c: 170:             LCD_POINT(2,6);
  1756  036B  3006               	movlw	6
  1757  036C  00E2               	movwf	??_main^(0+128)
  1758  036D  0862               	movf	??_main^(0+128),w
  1759  036E  00F3               	movwf	LCD_POINT@col
  1760  036F  3002               	movlw	2
  1761  0370  160A  118A  225D  120A  118A  	fcall	_LCD_POINT
  1762  0375                     l3360:	
  1763                           
  1764                           ;MASTER_Proyecto.c: 171:             lcd_msg("OFF");
  1765  0375  303F               	movlw	(low ((STR_4-__stringbase)| (0+32768)))& (0+255)
  1766  0376  160A  118A  21C1  120A  118A  	fcall	_lcd_msg
  1767                           
  1768                           ;MASTER_Proyecto.c: 172:         }else{
  1769  037B  2B8C               	goto	l3366
  1770  037C                     l3362:	
  1771                           
  1772                           ;MASTER_Proyecto.c: 173:             LCD_POINT(2,6);
  1773  037C  3006               	movlw	6
  1774  037D  00E2               	movwf	??_main^(0+128)
  1775  037E  0862               	movf	??_main^(0+128),w
  1776  037F  00F3               	movwf	LCD_POINT@col
  1777  0380  3002               	movlw	2
  1778  0381  160A  118A  225D  120A  118A  	fcall	_LCD_POINT
  1779  0386                     l3364:	
  1780                           
  1781                           ;MASTER_Proyecto.c: 174:             lcd_msg("ON");
  1782  0386  304B               	movlw	(low ((STR_5-__stringbase)| (0+32768)))& (0+255)
  1783  0387  160A  118A  21C1  120A  118A  	fcall	_lcd_msg
  1784  038C                     l3366:	
  1785                           
  1786                           ;MASTER_Proyecto.c: 179:         if (Val_VIB == 1){
  1787  038C  1683               	bsf	3,5	;RP0=1, select bank1
  1788  038D  1303               	bcf	3,6	;RP1=0, select bank1
  1789  038E  0348               	decf	_Val_VIB^(0+128),w
  1790  038F  1D03               	btfss	3,2
  1791  0390  2B92               	goto	u4261
  1792  0391  2B93               	goto	u4260
  1793  0392                     u4261:	
  1794  0392  2BA4               	goto	l3372
  1795  0393                     u4260:	
  1796  0393                     l3368:	
  1797                           
  1798                           ;MASTER_Proyecto.c: 180:             LCD_POINT(2,10);
  1799  0393  300A               	movlw	10
  1800  0394  00E2               	movwf	??_main^(0+128)
  1801  0395  0862               	movf	??_main^(0+128),w
  1802  0396  00F3               	movwf	LCD_POINT@col
  1803  0397  3002               	movlw	2
  1804  0398  160A  118A  225D  120A  118A  	fcall	_LCD_POINT
  1805  039D                     l3370:	
  1806                           
  1807                           ;MASTER_Proyecto.c: 181:             lcd_msg("ON");
  1808  039D  304B               	movlw	(low ((STR_5-__stringbase)| (0+32768)))& (0+255)
  1809  039E  160A  118A  21C1  120A  118A  	fcall	_lcd_msg
  1810                           
  1811                           ;MASTER_Proyecto.c: 182:         }else{
  1812  03A3  2BB4               	goto	l3376
  1813  03A4                     l3372:	
  1814                           
  1815                           ;MASTER_Proyecto.c: 183:             LCD_POINT(2,10);
  1816  03A4  300A               	movlw	10
  1817  03A5  00E2               	movwf	??_main^(0+128)
  1818  03A6  0862               	movf	??_main^(0+128),w
  1819  03A7  00F3               	movwf	LCD_POINT@col
  1820  03A8  3002               	movlw	2
  1821  03A9  160A  118A  225D  120A  118A  	fcall	_LCD_POINT
  1822  03AE                     l3374:	
  1823                           
  1824                           ;MASTER_Proyecto.c: 184:             lcd_msg("OFF");
  1825  03AE  303F               	movlw	(low ((STR_4-__stringbase)| (0+32768)))& (0+255)
  1826  03AF  160A  118A  21C1  120A  118A  	fcall	_lcd_msg
  1827  03B4                     l3376:	
  1828                           
  1829                           ;MASTER_Proyecto.c: 186:         _delay((unsigned long)((2000)*(8000000/4000.0)));
  1830  03B4  3015               	movlw	21
  1831  03B5  1683               	bsf	3,5	;RP0=1, select bank1
  1832  03B6  1303               	bcf	3,6	;RP1=0, select bank1
  1833  03B7  00E4               	movwf	(??_main^(0+128)+2)
  1834  03B8  304B               	movlw	75
  1835  03B9  00E3               	movwf	(??_main^(0+128)+1)
  1836  03BA  30BD               	movlw	189
  1837  03BB  00E2               	movwf	??_main^(0+128)
  1838  03BC                     u4347:	
  1839  03BC  0BE2               	decfsz	??_main^(0+128),f
  1840  03BD  2BBC               	goto	u4347
  1841  03BE  0BE3               	decfsz	(??_main^(0+128)+1),f
  1842  03BF  2BBC               	goto	u4347
  1843  03C0  0BE4               	decfsz	(??_main^(0+128)+2),f
  1844  03C1  2BBC               	goto	u4347
  1845  03C2  2BC3               	nop2
  1846  03C3                     l3378:	
  1847                           
  1848                           ;MASTER_Proyecto.c: 191:         lcd_cmd(0x01);
  1849  03C3  3001               	movlw	1
  1850  03C4  160A  118A  2162  120A  118A  	fcall	_lcd_cmd
  1851  03C9                     l3380:	
  1852                           
  1853                           ;MASTER_Proyecto.c: 193:         LCD_POINT(1,2);
  1854  03C9  3002               	movlw	2
  1855  03CA  1683               	bsf	3,5	;RP0=1, select bank1
  1856  03CB  1303               	bcf	3,6	;RP1=0, select bank1
  1857  03CC  00E2               	movwf	??_main^(0+128)
  1858  03CD  0862               	movf	??_main^(0+128),w
  1859  03CE  00F3               	movwf	LCD_POINT@col
  1860  03CF  3001               	movlw	1
  1861  03D0  160A  118A  225D  120A  118A  	fcall	_LCD_POINT
  1862  03D5                     l3382:	
  1863                           
  1864                           ;MASTER_Proyecto.c: 194:         lcd_msg("TEMP");
  1865  03D5  3036               	movlw	(low ((STR_10-__stringbase)| (0+32768)))& (0+255)
  1866  03D6  160A  118A  21C1  120A  118A  	fcall	_lcd_msg
  1867  03DB                     l3384:	
  1868                           
  1869                           ;MASTER_Proyecto.c: 195:         LCD_POINT(1,8);
  1870  03DB  3008               	movlw	8
  1871  03DC  1683               	bsf	3,5	;RP0=1, select bank1
  1872  03DD  1303               	bcf	3,6	;RP1=0, select bank1
  1873  03DE  00E2               	movwf	??_main^(0+128)
  1874  03DF  0862               	movf	??_main^(0+128),w
  1875  03E0  00F3               	movwf	LCD_POINT@col
  1876  03E1  3001               	movlw	1
  1877  03E2  160A  118A  225D  120A  118A  	fcall	_LCD_POINT
  1878  03E7                     l3386:	
  1879                           
  1880                           ;MASTER_Proyecto.c: 196:         lcd_msg("PESO");
  1881  03E7  3031               	movlw	(low ((STR_11-__stringbase)| (0+32768)))& (0+255)
  1882  03E8  160A  118A  21C1  120A  118A  	fcall	_lcd_msg
  1883  03ED                     l3388:	
  1884                           
  1885                           ;MASTER_Proyecto.c: 199:         LCD_POINT(2,2);
  1886  03ED  3002               	movlw	2
  1887  03EE  1683               	bsf	3,5	;RP0=1, select bank1
  1888  03EF  1303               	bcf	3,6	;RP1=0, select bank1
  1889  03F0  00E2               	movwf	??_main^(0+128)
  1890  03F1  0862               	movf	??_main^(0+128),w
  1891  03F2  00F3               	movwf	LCD_POINT@col
  1892  03F3  3002               	movlw	2
  1893  03F4  160A  118A  225D  120A  118A  	fcall	_LCD_POINT
  1894  03F9                     l3390:	
  1895                           
  1896                           ;MASTER_Proyecto.c: 200:         lcd_dwr('.');
  1897  03F9  302E               	movlw	46
  1898  03FA  160A  118A  2174  120A  118A  	fcall	_lcd_dwr
  1899  03FF                     l3392:	
  1900                           
  1901                           ;MASTER_Proyecto.c: 202:         LCD_POINT(2,4);
  1902  03FF  3004               	movlw	4
  1903  0400  1683               	bsf	3,5	;RP0=1, select bank1
  1904  0401  1303               	bcf	3,6	;RP1=0, select bank1
  1905  0402  00E2               	movwf	??_main^(0+128)
  1906  0403  0862               	movf	??_main^(0+128),w
  1907  0404  00F3               	movwf	LCD_POINT@col
  1908  0405  3002               	movlw	2
  1909  0406  160A  118A  225D  120A  118A  	fcall	_LCD_POINT
  1910  040B                     l3394:	
  1911                           
  1912                           ;MASTER_Proyecto.c: 203:         lcd_dwr(0b11011111);
  1913  040B  30DF               	movlw	223
  1914  040C  160A  118A  2174  120A  118A  	fcall	_lcd_dwr
  1915  0411                     l3396:	
  1916                           
  1917                           ;MASTER_Proyecto.c: 204:         LCD_POINT(2,5);
  1918  0411  3005               	movlw	5
  1919  0412  1683               	bsf	3,5	;RP0=1, select bank1
  1920  0413  1303               	bcf	3,6	;RP1=0, select bank1
  1921  0414  00E2               	movwf	??_main^(0+128)
  1922  0415  0862               	movf	??_main^(0+128),w
  1923  0416  00F3               	movwf	LCD_POINT@col
  1924  0417  3002               	movlw	2
  1925  0418  160A  118A  225D  120A  118A  	fcall	_LCD_POINT
  1926  041D                     l3398:	
  1927                           
  1928                           ;MASTER_Proyecto.c: 205:         lcd_dwr('C');
  1929  041D  3043               	movlw	67
  1930  041E  160A  118A  2174  120A  118A  	fcall	_lcd_dwr
  1931  0423                     l3400:	
  1932                           
  1933                           ;MASTER_Proyecto.c: 206:         LCD_POINT(2,11);
  1934  0423  300B               	movlw	11
  1935  0424  1683               	bsf	3,5	;RP0=1, select bank1
  1936  0425  1303               	bcf	3,6	;RP1=0, select bank1
  1937  0426  00E2               	movwf	??_main^(0+128)
  1938  0427  0862               	movf	??_main^(0+128),w
  1939  0428  00F3               	movwf	LCD_POINT@col
  1940  0429  3002               	movlw	2
  1941  042A  160A  118A  225D  120A  118A  	fcall	_LCD_POINT
  1942  042F                     l3402:	
  1943                           
  1944                           ;MASTER_Proyecto.c: 207:         lcd_dwr('g');
  1945  042F  3067               	movlw	103
  1946  0430  160A  118A  2174  120A  118A  	fcall	_lcd_dwr
  1947  0435                     l3404:	
  1948                           
  1949                           ;MASTER_Proyecto.c: 215:         K = 1.00/(invT0 + invBeta*(log(adcMax/(float)Val_TEMP -
      +                           1.00)));
  1950  0435  30BF               	movlw	191
  1951  0436  1283               	bcf	3,5	;RP0=0, select bank0
  1952  0437  1303               	bcf	3,6	;RP1=0, select bank0
  1953  0438  00C2               	movwf	___fladd@b+3
  1954  0439  3080               	movlw	128
  1955  043A  00C1               	movwf	___fladd@b+2
  1956  043B  3000               	movlw	0
  1957  043C  00C0               	movwf	___fladd@b+1
  1958  043D  3000               	movlw	0
  1959  043E  00BF               	movwf	___fladd@b
  1960  043F  1683               	bsf	3,5	;RP0=1, select bank1
  1961  0440  1303               	bcf	3,6	;RP1=0, select bank1
  1962  0441  084B               	movf	_Val_TEMP^(0+128),w
  1963  0442  00E2               	movwf	??_main^(0+128)
  1964  0443  01E3               	clrf	(??_main^(0+128)+1)
  1965  0444  01E4               	clrf	(??_main^(0+128)+2)
  1966  0445  01E5               	clrf	(??_main^(0+128)+3)
  1967  0446  0865               	movf	(??_main+3)^(0+128),w
  1968  0447  00F3               	movwf	___xxtofl@val+3
  1969  0448  0864               	movf	(??_main+2)^(0+128),w
  1970  0449  00F2               	movwf	___xxtofl@val+2
  1971  044A  0863               	movf	(??_main+1)^(0+128),w
  1972  044B  00F1               	movwf	___xxtofl@val+1
  1973  044C  0862               	movf	??_main^(0+128),w
  1974  044D  00F0               	movwf	___xxtofl@val
  1975  044E  3000               	movlw	0
  1976  044F  120A  158A  2011  120A  118A  	fcall	___xxtofl
  1977  0454  0873               	movf	?___xxtofl+3,w
  1978  0455  1283               	bcf	3,5	;RP0=0, select bank0
  1979  0456  1303               	bcf	3,6	;RP1=0, select bank0
  1980  0457  00A8               	movwf	___fldiv@a+3
  1981  0458  0872               	movf	?___xxtofl+2,w
  1982  0459  00A7               	movwf	___fldiv@a+2
  1983  045A  0871               	movf	?___xxtofl+1,w
  1984  045B  00A6               	movwf	___fldiv@a+1
  1985  045C  0870               	movf	?___xxtofl,w
  1986  045D  00A5               	movwf	___fldiv@a
  1987  045E  3044               	movlw	68
  1988  045F  00AC               	movwf	___fldiv@b+3
  1989  0460  307F               	movlw	127
  1990  0461  00AB               	movwf	___fldiv@b+2
  1991  0462  30C0               	movlw	192
  1992  0463  00AA               	movwf	___fldiv@b+1
  1993  0464  3000               	movlw	0
  1994  0465  00A9               	movwf	___fldiv@b
  1995  0466  120A  118A  2043  120A  118A  	fcall	___fldiv
  1996  046B  1283               	bcf	3,5	;RP0=0, select bank0
  1997  046C  1303               	bcf	3,6	;RP1=0, select bank0
  1998  046D  0828               	movf	?___fldiv+3,w
  1999  046E  00C6               	movwf	___fladd@a+3
  2000  046F  0827               	movf	?___fldiv+2,w
  2001  0470  00C5               	movwf	___fladd@a+2
  2002  0471  0826               	movf	?___fldiv+1,w
  2003  0472  00C4               	movwf	___fladd@a+1
  2004  0473  0825               	movf	?___fldiv,w
  2005  0474  00C3               	movwf	___fladd@a
  2006  0475  120A  158A  2217  120A  118A  	fcall	___fladd
  2007  047A  1283               	bcf	3,5	;RP0=0, select bank0
  2008  047B  1303               	bcf	3,6	;RP1=0, select bank0
  2009  047C  0842               	movf	?___fladd+3,w
  2010  047D  1683               	bsf	3,5	;RP0=1, select bank1
  2011  047E  1303               	bcf	3,6	;RP1=0, select bank1
  2012  047F  00E9               	movwf	(_main$1116+3)^(0+128)
  2013  0480  1283               	bcf	3,5	;RP0=0, select bank0
  2014  0481  1303               	bcf	3,6	;RP1=0, select bank0
  2015  0482  0841               	movf	?___fladd+2,w
  2016  0483  1683               	bsf	3,5	;RP0=1, select bank1
  2017  0484  1303               	bcf	3,6	;RP1=0, select bank1
  2018  0485  00E8               	movwf	(_main$1116+2)^(0+128)
  2019  0486  1283               	bcf	3,5	;RP0=0, select bank0
  2020  0487  1303               	bcf	3,6	;RP1=0, select bank0
  2021  0488  0840               	movf	?___fladd+1,w
  2022  0489  1683               	bsf	3,5	;RP0=1, select bank1
  2023  048A  1303               	bcf	3,6	;RP1=0, select bank1
  2024  048B  00E7               	movwf	(_main$1116+1)^(0+128)
  2025  048C  1283               	bcf	3,5	;RP0=0, select bank0
  2026  048D  1303               	bcf	3,6	;RP1=0, select bank0
  2027  048E  083F               	movf	?___fladd,w
  2028  048F  1683               	bsf	3,5	;RP0=1, select bank1
  2029  0490  1303               	bcf	3,6	;RP1=0, select bank1
  2030  0491  00E6               	movwf	_main$1116^(0+128)
  2031  0492                     l3406:	
  2032                           
  2033                           ;MASTER_Proyecto.c: 215:         K = 1.00/(invT0 + invBeta*(log(adcMax/(float)Val_TEMP -
      +                           1.00)));
  2034  0492  0869               	movf	(_main$1116+3)^(0+128),w
  2035  0493  00DF               	movwf	(log@x+3)^(0+128)
  2036  0494  0868               	movf	(_main$1116+2)^(0+128),w
  2037  0495  00DE               	movwf	(log@x+2)^(0+128)
  2038  0496  0867               	movf	(_main$1116+1)^(0+128),w
  2039  0497  00DD               	movwf	(log@x+1)^(0+128)
  2040  0498  0866               	movf	_main$1116^(0+128),w
  2041  0499  00DC               	movwf	log@x^(0+128)
  2042  049A  120A  158A  20CB  120A  118A  	fcall	_log
  2043  049F  1683               	bsf	3,5	;RP0=1, select bank1
  2044  04A0  1303               	bcf	3,6	;RP1=0, select bank1
  2045  04A1  085F               	movf	(?_log+3)^(0+128),w
  2046  04A2  00ED               	movwf	(_main$1117+3)^(0+128)
  2047  04A3  085E               	movf	(?_log+2)^(0+128),w
  2048  04A4  00EC               	movwf	(_main$1117+2)^(0+128)
  2049  04A5  085D               	movf	(?_log+1)^(0+128),w
  2050  04A6  00EB               	movwf	(_main$1117+1)^(0+128)
  2051  04A7  085C               	movf	?_log^(0+128),w
  2052  04A8  00EA               	movwf	_main$1117^(0+128)
  2053  04A9                     l3408:	
  2054                           
  2055                           ;MASTER_Proyecto.c: 215:         K = 1.00/(invT0 + invBeta*(log(adcMax/(float)Val_TEMP -
      +                           1.00)));
  2056  04A9  303B               	movlw	59
  2057  04AA  1283               	bcf	3,5	;RP0=0, select bank0
  2058  04AB  1303               	bcf	3,6	;RP1=0, select bank0
  2059  04AC  00C2               	movwf	___fladd@b+3
  2060  04AD  305B               	movlw	91
  2061  04AE  00C1               	movwf	___fladd@b+2
  2062  04AF  30CF               	movlw	207
  2063  04B0  00C0               	movwf	___fladd@b+1
  2064  04B1  300F               	movlw	15
  2065  04B2  00BF               	movwf	___fladd@b
  2066  04B3  3039               	movlw	57
  2067  04B4  00D6               	movwf	___flmul@b+3
  2068  04B5  309B               	movlw	155
  2069  04B6  00D5               	movwf	___flmul@b+2
  2070  04B7  301D               	movlw	29
  2071  04B8  00D4               	movwf	___flmul@b+1
  2072  04B9  3063               	movlw	99
  2073  04BA  00D3               	movwf	___flmul@b
  2074  04BB  1683               	bsf	3,5	;RP0=1, select bank1
  2075  04BC  1303               	bcf	3,6	;RP1=0, select bank1
  2076  04BD  086D               	movf	(_main$1117+3)^(0+128),w
  2077  04BE  1283               	bcf	3,5	;RP0=0, select bank0
  2078  04BF  1303               	bcf	3,6	;RP1=0, select bank0
  2079  04C0  00DA               	movwf	___flmul@a+3
  2080  04C1  1683               	bsf	3,5	;RP0=1, select bank1
  2081  04C2  1303               	bcf	3,6	;RP1=0, select bank1
  2082  04C3  086C               	movf	(_main$1117+2)^(0+128),w
  2083  04C4  1283               	bcf	3,5	;RP0=0, select bank0
  2084  04C5  1303               	bcf	3,6	;RP1=0, select bank0
  2085  04C6  00D9               	movwf	___flmul@a+2
  2086  04C7  1683               	bsf	3,5	;RP0=1, select bank1
  2087  04C8  1303               	bcf	3,6	;RP1=0, select bank1
  2088  04C9  086B               	movf	(_main$1117+1)^(0+128),w
  2089  04CA  1283               	bcf	3,5	;RP0=0, select bank0
  2090  04CB  1303               	bcf	3,6	;RP1=0, select bank0
  2091  04CC  00D8               	movwf	___flmul@a+1
  2092  04CD  1683               	bsf	3,5	;RP0=1, select bank1
  2093  04CE  1303               	bcf	3,6	;RP1=0, select bank1
  2094  04CF  086A               	movf	_main$1117^(0+128),w
  2095  04D0  1283               	bcf	3,5	;RP0=0, select bank0
  2096  04D1  1303               	bcf	3,6	;RP1=0, select bank0
  2097  04D2  00D7               	movwf	___flmul@a
  2098  04D3  120A  158A  249F  120A  118A  	fcall	___flmul
  2099  04D8  1283               	bcf	3,5	;RP0=0, select bank0
  2100  04D9  1303               	bcf	3,6	;RP1=0, select bank0
  2101  04DA  0856               	movf	?___flmul+3,w
  2102  04DB  00C6               	movwf	___fladd@a+3
  2103  04DC  0855               	movf	?___flmul+2,w
  2104  04DD  00C5               	movwf	___fladd@a+2
  2105  04DE  0854               	movf	?___flmul+1,w
  2106  04DF  00C4               	movwf	___fladd@a+1
  2107  04E0  0853               	movf	?___flmul,w
  2108  04E1  00C3               	movwf	___fladd@a
  2109  04E2  120A  158A  2217  120A  118A  	fcall	___fladd
  2110  04E7  1283               	bcf	3,5	;RP0=0, select bank0
  2111  04E8  1303               	bcf	3,6	;RP1=0, select bank0
  2112  04E9  0842               	movf	?___fladd+3,w
  2113  04EA  00A8               	movwf	___fldiv@a+3
  2114  04EB  0841               	movf	?___fladd+2,w
  2115  04EC  00A7               	movwf	___fldiv@a+2
  2116  04ED  0840               	movf	?___fladd+1,w
  2117  04EE  00A6               	movwf	___fldiv@a+1
  2118  04EF  083F               	movf	?___fladd,w
  2119  04F0  00A5               	movwf	___fldiv@a
  2120  04F1  303F               	movlw	63
  2121  04F2  00AC               	movwf	___fldiv@b+3
  2122  04F3  3080               	movlw	128
  2123  04F4  00AB               	movwf	___fldiv@b+2
  2124  04F5  3000               	movlw	0
  2125  04F6  00AA               	movwf	___fldiv@b+1
  2126  04F7  3000               	movlw	0
  2127  04F8  00A9               	movwf	___fldiv@b
  2128  04F9  120A  118A  2043  120A  118A  	fcall	___fldiv
  2129  04FE  1283               	bcf	3,5	;RP0=0, select bank0
  2130  04FF  1303               	bcf	3,6	;RP1=0, select bank0
  2131  0500  0828               	movf	?___fldiv+3,w
  2132  0501  1683               	bsf	3,5	;RP0=1, select bank1
  2133  0502  1303               	bcf	3,6	;RP1=0, select bank1
  2134  0503  00A3               	movwf	(_K+3)^(0+128)
  2135  0504  1283               	bcf	3,5	;RP0=0, select bank0
  2136  0505  1303               	bcf	3,6	;RP1=0, select bank0
  2137  0506  0827               	movf	?___fldiv+2,w
  2138  0507  1683               	bsf	3,5	;RP0=1, select bank1
  2139  0508  1303               	bcf	3,6	;RP1=0, select bank1
  2140  0509  00A2               	movwf	(_K+2)^(0+128)
  2141  050A  1283               	bcf	3,5	;RP0=0, select bank0
  2142  050B  1303               	bcf	3,6	;RP1=0, select bank0
  2143  050C  0826               	movf	?___fldiv+1,w
  2144  050D  1683               	bsf	3,5	;RP0=1, select bank1
  2145  050E  1303               	bcf	3,6	;RP1=0, select bank1
  2146  050F  00A1               	movwf	(_K+1)^(0+128)
  2147  0510  1283               	bcf	3,5	;RP0=0, select bank0
  2148  0511  1303               	bcf	3,6	;RP1=0, select bank0
  2149  0512  0825               	movf	?___fldiv,w
  2150  0513  1683               	bsf	3,5	;RP0=1, select bank1
  2151  0514  1303               	bcf	3,6	;RP1=0, select bank1
  2152  0515  00A0               	movwf	_K^(0+128)
  2153  0516                     l3410:	
  2154                           
  2155                           ;MASTER_Proyecto.c: 216:         C = K - 273.15;
  2156  0516  30C3               	movlw	195
  2157  0517  1283               	bcf	3,5	;RP0=0, select bank0
  2158  0518  1303               	bcf	3,6	;RP1=0, select bank0
  2159  0519  00C2               	movwf	___fladd@b+3
  2160  051A  3088               	movlw	136
  2161  051B  00C1               	movwf	___fladd@b+2
  2162  051C  3093               	movlw	147
  2163  051D  00C0               	movwf	___fladd@b+1
  2164  051E  3033               	movlw	51
  2165  051F  00BF               	movwf	___fladd@b
  2166  0520  1683               	bsf	3,5	;RP0=1, select bank1
  2167  0521  1303               	bcf	3,6	;RP1=0, select bank1
  2168  0522  0823               	movf	(_K+3)^(0+128),w
  2169  0523  1283               	bcf	3,5	;RP0=0, select bank0
  2170  0524  1303               	bcf	3,6	;RP1=0, select bank0
  2171  0525  00C6               	movwf	___fladd@a+3
  2172  0526  1683               	bsf	3,5	;RP0=1, select bank1
  2173  0527  1303               	bcf	3,6	;RP1=0, select bank1
  2174  0528  0822               	movf	(_K+2)^(0+128),w
  2175  0529  1283               	bcf	3,5	;RP0=0, select bank0
  2176  052A  1303               	bcf	3,6	;RP1=0, select bank0
  2177  052B  00C5               	movwf	___fladd@a+2
  2178  052C  1683               	bsf	3,5	;RP0=1, select bank1
  2179  052D  1303               	bcf	3,6	;RP1=0, select bank1
  2180  052E  0821               	movf	(_K+1)^(0+128),w
  2181  052F  1283               	bcf	3,5	;RP0=0, select bank0
  2182  0530  1303               	bcf	3,6	;RP1=0, select bank0
  2183  0531  00C4               	movwf	___fladd@a+1
  2184  0532  1683               	bsf	3,5	;RP0=1, select bank1
  2185  0533  1303               	bcf	3,6	;RP1=0, select bank1
  2186  0534  0820               	movf	_K^(0+128),w
  2187  0535  1283               	bcf	3,5	;RP0=0, select bank0
  2188  0536  1303               	bcf	3,6	;RP1=0, select bank0
  2189  0537  00C3               	movwf	___fladd@a
  2190  0538  120A  158A  2217  120A  118A  	fcall	___fladd
  2191  053D  1283               	bcf	3,5	;RP0=0, select bank0
  2192  053E  1303               	bcf	3,6	;RP1=0, select bank0
  2193  053F  0842               	movf	?___fladd+3,w
  2194  0540  1683               	bsf	3,5	;RP0=1, select bank3
  2195  0541  1703               	bsf	3,6	;RP1=1, select bank3
  2196  0542  0093               	movwf	(_C+3)^(0+384)
  2197  0543  1283               	bcf	3,5	;RP0=0, select bank0
  2198  0544  1303               	bcf	3,6	;RP1=0, select bank0
  2199  0545  0841               	movf	?___fladd+2,w
  2200  0546  1683               	bsf	3,5	;RP0=1, select bank3
  2201  0547  1703               	bsf	3,6	;RP1=1, select bank3
  2202  0548  0092               	movwf	(_C+2)^(0+384)
  2203  0549  1283               	bcf	3,5	;RP0=0, select bank0
  2204  054A  1303               	bcf	3,6	;RP1=0, select bank0
  2205  054B  0840               	movf	?___fladd+1,w
  2206  054C  1683               	bsf	3,5	;RP0=1, select bank3
  2207  054D  1703               	bsf	3,6	;RP1=1, select bank3
  2208  054E  0091               	movwf	(_C+1)^(0+384)
  2209  054F  1283               	bcf	3,5	;RP0=0, select bank0
  2210  0550  1303               	bcf	3,6	;RP1=0, select bank0
  2211  0551  083F               	movf	?___fladd,w
  2212  0552  1683               	bsf	3,5	;RP0=1, select bank3
  2213  0553  1703               	bsf	3,6	;RP1=1, select bank3
  2214  0554  0090               	movwf	_C^(0+384)
  2215  0555                     l3412:	
  2216                           
  2217                           ;MASTER_Proyecto.c: 218:         ADC_PESO_V = (float)((Val_PESO)/((float)300));
  2218  0555  3000               	movlw	0
  2219  0556  1683               	bsf	3,5	;RP0=1, select bank1
  2220  0557  1303               	bcf	3,6	;RP1=0, select bank1
  2221  0558  00AF               	movwf	(_ADC_PESO_V+3)^(0+128)
  2222  0559  3000               	movlw	0
  2223  055A  00AE               	movwf	(_ADC_PESO_V+2)^(0+128)
  2224  055B  3000               	movlw	0
  2225  055C  00AD               	movwf	(_ADC_PESO_V+1)^(0+128)
  2226  055D  3000               	movlw	0
  2227  055E  00AC               	movwf	_ADC_PESO_V^(0+128)
  2228  055F                     l3414:	
  2229                           
  2230                           ;MASTER_Proyecto.c: 222:         POT_cien = (float)((C)*((float)10));
  2231  055F  3041               	movlw	65
  2232  0560  1283               	bcf	3,5	;RP0=0, select bank0
  2233  0561  1303               	bcf	3,6	;RP1=0, select bank0
  2234  0562  00D6               	movwf	___flmul@b+3
  2235  0563  3020               	movlw	32
  2236  0564  00D5               	movwf	___flmul@b+2
  2237  0565  3000               	movlw	0
  2238  0566  00D4               	movwf	___flmul@b+1
  2239  0567  3000               	movlw	0
  2240  0568  00D3               	movwf	___flmul@b
  2241  0569  1683               	bsf	3,5	;RP0=1, select bank3
  2242  056A  1703               	bsf	3,6	;RP1=1, select bank3
  2243  056B  0813               	movf	(_C+3)^(0+384),w
  2244  056C  1283               	bcf	3,5	;RP0=0, select bank0
  2245  056D  1303               	bcf	3,6	;RP1=0, select bank0
  2246  056E  00DA               	movwf	___flmul@a+3
  2247  056F  1683               	bsf	3,5	;RP0=1, select bank3
  2248  0570  1703               	bsf	3,6	;RP1=1, select bank3
  2249  0571  0812               	movf	(_C+2)^(0+384),w
  2250  0572  1283               	bcf	3,5	;RP0=0, select bank0
  2251  0573  1303               	bcf	3,6	;RP1=0, select bank0
  2252  0574  00D9               	movwf	___flmul@a+2
  2253  0575  1683               	bsf	3,5	;RP0=1, select bank3
  2254  0576  1703               	bsf	3,6	;RP1=1, select bank3
  2255  0577  0811               	movf	(_C+1)^(0+384),w
  2256  0578  1283               	bcf	3,5	;RP0=0, select bank0
  2257  0579  1303               	bcf	3,6	;RP1=0, select bank0
  2258  057A  00D8               	movwf	___flmul@a+1
  2259  057B  1683               	bsf	3,5	;RP0=1, select bank3
  2260  057C  1703               	bsf	3,6	;RP1=1, select bank3
  2261  057D  0810               	movf	_C^(0+384),w
  2262  057E  1283               	bcf	3,5	;RP0=0, select bank0
  2263  057F  1303               	bcf	3,6	;RP1=0, select bank0
  2264  0580  00D7               	movwf	___flmul@a
  2265  0581  120A  158A  249F  120A  118A  	fcall	___flmul
  2266  0586  1283               	bcf	3,5	;RP0=0, select bank0
  2267  0587  1303               	bcf	3,6	;RP1=0, select bank0
  2268  0588  0856               	movf	?___flmul+3,w
  2269  0589  1683               	bsf	3,5	;RP0=1, select bank1
  2270  058A  1303               	bcf	3,6	;RP1=0, select bank1
  2271  058B  00AB               	movwf	(_POT_cien+3)^(0+128)
  2272  058C  1283               	bcf	3,5	;RP0=0, select bank0
  2273  058D  1303               	bcf	3,6	;RP1=0, select bank0
  2274  058E  0855               	movf	?___flmul+2,w
  2275  058F  1683               	bsf	3,5	;RP0=1, select bank1
  2276  0590  1303               	bcf	3,6	;RP1=0, select bank1
  2277  0591  00AA               	movwf	(_POT_cien+2)^(0+128)
  2278  0592  1283               	bcf	3,5	;RP0=0, select bank0
  2279  0593  1303               	bcf	3,6	;RP1=0, select bank0
  2280  0594  0854               	movf	?___flmul+1,w
  2281  0595  1683               	bsf	3,5	;RP0=1, select bank1
  2282  0596  1303               	bcf	3,6	;RP1=0, select bank1
  2283  0597  00A9               	movwf	(_POT_cien+1)^(0+128)
  2284  0598  1283               	bcf	3,5	;RP0=0, select bank0
  2285  0599  1303               	bcf	3,6	;RP1=0, select bank0
  2286  059A  0853               	movf	?___flmul,w
  2287  059B  1683               	bsf	3,5	;RP0=1, select bank1
  2288  059C  1303               	bcf	3,6	;RP1=0, select bank1
  2289  059D  00A8               	movwf	_POT_cien^(0+128)
  2290  059E                     l3416:	
  2291                           
  2292                           ;MASTER_Proyecto.c: 223:         DECI_1_POT = (uint16_t)(POT_cien);
  2293  059E  082B               	movf	(_POT_cien+3)^(0+128),w
  2294  059F  00F3               	movwf	___fltol@f1+3
  2295  05A0  082A               	movf	(_POT_cien+2)^(0+128),w
  2296  05A1  00F2               	movwf	___fltol@f1+2
  2297  05A2  0829               	movf	(_POT_cien+1)^(0+128),w
  2298  05A3  00F1               	movwf	___fltol@f1+1
  2299  05A4  0828               	movf	_POT_cien^(0+128),w
  2300  05A5  00F0               	movwf	___fltol@f1
  2301  05A6  160A  118A  256D  120A  118A  	fcall	___fltol
  2302  05AB  0871               	movf	?___fltol+1,w
  2303  05AC  1683               	bsf	3,5	;RP0=1, select bank1
  2304  05AD  1303               	bcf	3,6	;RP1=0, select bank1
  2305  05AE  00B9               	movwf	(_DECI_1_POT+1)^(0+128)
  2306  05AF  0870               	movf	?___fltol,w
  2307  05B0  00B8               	movwf	_DECI_1_POT^(0+128)
  2308  05B1                     l3418:	
  2309                           
  2310                           ;MASTER_Proyecto.c: 224:         POT_D2 = (uint8_t)((DECI_1_POT)%((uint8_t)10));
  2311  05B1  300A               	movlw	10
  2312  05B2  00F0               	movwf	___lwmod@divisor
  2313  05B3  3000               	movlw	0
  2314  05B4  00F1               	movwf	___lwmod@divisor+1
  2315  05B5  0839               	movf	(_DECI_1_POT+1)^(0+128),w
  2316  05B6  00F3               	movwf	___lwmod@dividend+1
  2317  05B7  0838               	movf	_DECI_1_POT^(0+128),w
  2318  05B8  00F2               	movwf	___lwmod@dividend
  2319  05B9  160A  118A  22C3  120A  118A  	fcall	___lwmod
  2320  05BE  0870               	movf	?___lwmod,w
  2321  05BF  1683               	bsf	3,5	;RP0=1, select bank1
  2322  05C0  1303               	bcf	3,6	;RP1=0, select bank1
  2323  05C1  00E2               	movwf	??_main^(0+128)
  2324  05C2  0862               	movf	??_main^(0+128),w
  2325  05C3  00C0               	movwf	_POT_D2^(0+128)
  2326  05C4                     l3420:	
  2327                           
  2328                           ;MASTER_Proyecto.c: 226:         DECI_2_POT = (uint16_t)((DECI_1_POT)/((uint16_t)10));
  2329  05C4  300A               	movlw	10
  2330  05C5  00F0               	movwf	___lwdiv@divisor
  2331  05C6  3000               	movlw	0
  2332  05C7  00F1               	movwf	___lwdiv@divisor+1
  2333  05C8  0839               	movf	(_DECI_1_POT+1)^(0+128),w
  2334  05C9  00F3               	movwf	___lwdiv@dividend+1
  2335  05CA  0838               	movf	_DECI_1_POT^(0+128),w
  2336  05CB  00F2               	movwf	___lwdiv@dividend
  2337  05CC  160A  118A  22FD  120A  118A  	fcall	___lwdiv
  2338  05D1  0871               	movf	?___lwdiv+1,w
  2339  05D2  1683               	bsf	3,5	;RP0=1, select bank1
  2340  05D3  1303               	bcf	3,6	;RP1=0, select bank1
  2341  05D4  00B7               	movwf	(_DECI_2_POT+1)^(0+128)
  2342  05D5  0870               	movf	?___lwdiv,w
  2343  05D6  00B6               	movwf	_DECI_2_POT^(0+128)
  2344  05D7                     l3422:	
  2345                           
  2346                           ;MASTER_Proyecto.c: 227:         POT_D1 = (uint8_t)((DECI_2_POT)%((uint8_t)10));
  2347  05D7  300A               	movlw	10
  2348  05D8  00F0               	movwf	___lwmod@divisor
  2349  05D9  3000               	movlw	0
  2350  05DA  00F1               	movwf	___lwmod@divisor+1
  2351  05DB  0837               	movf	(_DECI_2_POT+1)^(0+128),w
  2352  05DC  00F3               	movwf	___lwmod@dividend+1
  2353  05DD  0836               	movf	_DECI_2_POT^(0+128),w
  2354  05DE  00F2               	movwf	___lwmod@dividend
  2355  05DF  160A  118A  22C3  120A  118A  	fcall	___lwmod
  2356  05E4  0870               	movf	?___lwmod,w
  2357  05E5  1683               	bsf	3,5	;RP0=1, select bank1
  2358  05E6  1303               	bcf	3,6	;RP1=0, select bank1
  2359  05E7  00E2               	movwf	??_main^(0+128)
  2360  05E8  0862               	movf	??_main^(0+128),w
  2361  05E9  00C1               	movwf	_POT_D1^(0+128)
  2362  05EA                     l3424:	
  2363                           
  2364                           ;MASTER_Proyecto.c: 229:         TEMP_EN_1 = (uint16_t)((DECI_2_POT)/((uint16_t)10));
  2365  05EA  300A               	movlw	10
  2366  05EB  00F0               	movwf	___lwdiv@divisor
  2367  05EC  3000               	movlw	0
  2368  05ED  00F1               	movwf	___lwdiv@divisor+1
  2369  05EE  0837               	movf	(_DECI_2_POT+1)^(0+128),w
  2370  05EF  00F3               	movwf	___lwdiv@dividend+1
  2371  05F0  0836               	movf	_DECI_2_POT^(0+128),w
  2372  05F1  00F2               	movwf	___lwdiv@dividend
  2373  05F2  160A  118A  22FD  120A  118A  	fcall	___lwdiv
  2374  05F7  0870               	movf	?___lwdiv,w
  2375  05F8  1683               	bsf	3,5	;RP0=1, select bank1
  2376  05F9  1303               	bcf	3,6	;RP1=0, select bank1
  2377  05FA  00E2               	movwf	??_main^(0+128)
  2378  05FB  0862               	movf	??_main^(0+128),w
  2379  05FC  00C5               	movwf	_TEMP_EN_1^(0+128)
  2380  05FD                     l3426:	
  2381                           
  2382                           ;MASTER_Proyecto.c: 230:         TEMP_EN = (uint8_t)((TEMP_EN_1)%((uint8_t)10));
  2383  05FD  300A               	movlw	10
  2384  05FE  00F0               	movwf	___awmod@divisor
  2385  05FF  3000               	movlw	0
  2386  0600  00F1               	movwf	___awmod@divisor+1
  2387  0601  0845               	movf	_TEMP_EN_1^(0+128),w
  2388  0602  00E2               	movwf	??_main^(0+128)
  2389  0603  01E3               	clrf	(??_main^(0+128)+1)
  2390  0604  0862               	movf	??_main^(0+128),w
  2391  0605  00F2               	movwf	___awmod@dividend
  2392  0606  0863               	movf	(??_main+1)^(0+128),w
  2393  0607  00F3               	movwf	___awmod@dividend+1
  2394  0608  160A  118A  238F  120A  118A  	fcall	___awmod
  2395  060D  0870               	movf	?___awmod,w
  2396  060E  1683               	bsf	3,5	;RP0=1, select bank1
  2397  060F  1303               	bcf	3,6	;RP1=0, select bank1
  2398  0610  00E4               	movwf	(??_main+2)^(0+128)
  2399  0611  0864               	movf	(??_main+2)^(0+128),w
  2400  0612  00C6               	movwf	_TEMP_EN^(0+128)
  2401  0613                     l3428:	
  2402                           
  2403                           ;MASTER_Proyecto.c: 234:         LCD_POINT(2,0);
  2404  0613  01F3               	clrf	LCD_POINT@col
  2405  0614  3002               	movlw	2
  2406  0615  160A  118A  225D  120A  118A  	fcall	_LCD_POINT
  2407  061A                     l3430:	
  2408                           
  2409                           ;MASTER_Proyecto.c: 235:         lcd_dwr(Val_STR(TEMP_EN));
  2410  061A  1683               	bsf	3,5	;RP0=1, select bank1
  2411  061B  1303               	bcf	3,6	;RP1=0, select bank1
  2412  061C  0846               	movf	_TEMP_EN^(0+128),w
  2413  061D  120A  118A  2004  120A  118A  	fcall	_Val_STR
  2414  0622  160A  118A  2174  120A  118A  	fcall	_lcd_dwr
  2415  0627                     l3432:	
  2416                           
  2417                           ;MASTER_Proyecto.c: 237:         LCD_POINT(2,1);
  2418  0627  01F3               	clrf	LCD_POINT@col
  2419  0628  0AF3               	incf	LCD_POINT@col,f
  2420  0629  3002               	movlw	2
  2421  062A  160A  118A  225D  120A  118A  	fcall	_LCD_POINT
  2422  062F                     l3434:	
  2423                           
  2424                           ;MASTER_Proyecto.c: 238:         lcd_dwr(Val_STR(POT_D1));
  2425  062F  1683               	bsf	3,5	;RP0=1, select bank1
  2426  0630  1303               	bcf	3,6	;RP1=0, select bank1
  2427  0631  0841               	movf	_POT_D1^(0+128),w
  2428  0632  120A  118A  2004  120A  118A  	fcall	_Val_STR
  2429  0637  160A  118A  2174  120A  118A  	fcall	_lcd_dwr
  2430  063C                     l3436:	
  2431                           
  2432                           ;MASTER_Proyecto.c: 240:         LCD_POINT(2,3);
  2433  063C  3003               	movlw	3
  2434  063D  1683               	bsf	3,5	;RP0=1, select bank1
  2435  063E  1303               	bcf	3,6	;RP1=0, select bank1
  2436  063F  00E2               	movwf	??_main^(0+128)
  2437  0640  0862               	movf	??_main^(0+128),w
  2438  0641  00F3               	movwf	LCD_POINT@col
  2439  0642  3002               	movlw	2
  2440  0643  160A  118A  225D  120A  118A  	fcall	_LCD_POINT
  2441  0648                     l3438:	
  2442                           
  2443                           ;MASTER_Proyecto.c: 241:         lcd_dwr(Val_STR(POT_D2));
  2444  0648  1683               	bsf	3,5	;RP0=1, select bank1
  2445  0649  1303               	bcf	3,6	;RP1=0, select bank1
  2446  064A  0840               	movf	_POT_D2^(0+128),w
  2447  064B  120A  118A  2004  120A  118A  	fcall	_Val_STR
  2448  0650  160A  118A  2174  120A  118A  	fcall	_lcd_dwr
  2449  0655                     l3440:	
  2450                           
  2451                           ;MASTER_Proyecto.c: 246:         RES_cien = (float)((ADC_PESO_V)*((float)100));
  2452  0655  3042               	movlw	66
  2453  0656  1283               	bcf	3,5	;RP0=0, select bank0
  2454  0657  1303               	bcf	3,6	;RP1=0, select bank0
  2455  0658  00D6               	movwf	___flmul@b+3
  2456  0659  30C8               	movlw	200
  2457  065A  00D5               	movwf	___flmul@b+2
  2458  065B  3000               	movlw	0
  2459  065C  00D4               	movwf	___flmul@b+1
  2460  065D  3000               	movlw	0
  2461  065E  00D3               	movwf	___flmul@b
  2462  065F  1683               	bsf	3,5	;RP0=1, select bank1
  2463  0660  1303               	bcf	3,6	;RP1=0, select bank1
  2464  0661  082F               	movf	(_ADC_PESO_V+3)^(0+128),w
  2465  0662  1283               	bcf	3,5	;RP0=0, select bank0
  2466  0663  1303               	bcf	3,6	;RP1=0, select bank0
  2467  0664  00DA               	movwf	___flmul@a+3
  2468  0665  1683               	bsf	3,5	;RP0=1, select bank1
  2469  0666  1303               	bcf	3,6	;RP1=0, select bank1
  2470  0667  082E               	movf	(_ADC_PESO_V+2)^(0+128),w
  2471  0668  1283               	bcf	3,5	;RP0=0, select bank0
  2472  0669  1303               	bcf	3,6	;RP1=0, select bank0
  2473  066A  00D9               	movwf	___flmul@a+2
  2474  066B  1683               	bsf	3,5	;RP0=1, select bank1
  2475  066C  1303               	bcf	3,6	;RP1=0, select bank1
  2476  066D  082D               	movf	(_ADC_PESO_V+1)^(0+128),w
  2477  066E  1283               	bcf	3,5	;RP0=0, select bank0
  2478  066F  1303               	bcf	3,6	;RP1=0, select bank0
  2479  0670  00D8               	movwf	___flmul@a+1
  2480  0671  1683               	bsf	3,5	;RP0=1, select bank1
  2481  0672  1303               	bcf	3,6	;RP1=0, select bank1
  2482  0673  082C               	movf	_ADC_PESO_V^(0+128),w
  2483  0674  1283               	bcf	3,5	;RP0=0, select bank0
  2484  0675  1303               	bcf	3,6	;RP1=0, select bank0
  2485  0676  00D7               	movwf	___flmul@a
  2486  0677  120A  158A  249F  120A  118A  	fcall	___flmul
  2487  067C  1283               	bcf	3,5	;RP0=0, select bank0
  2488  067D  1303               	bcf	3,6	;RP1=0, select bank0
  2489  067E  0856               	movf	?___flmul+3,w
  2490  067F  1683               	bsf	3,5	;RP0=1, select bank1
  2491  0680  1303               	bcf	3,6	;RP1=0, select bank1
  2492  0681  00A7               	movwf	(_RES_cien+3)^(0+128)
  2493  0682  1283               	bcf	3,5	;RP0=0, select bank0
  2494  0683  1303               	bcf	3,6	;RP1=0, select bank0
  2495  0684  0855               	movf	?___flmul+2,w
  2496  0685  1683               	bsf	3,5	;RP0=1, select bank1
  2497  0686  1303               	bcf	3,6	;RP1=0, select bank1
  2498  0687  00A6               	movwf	(_RES_cien+2)^(0+128)
  2499  0688  1283               	bcf	3,5	;RP0=0, select bank0
  2500  0689  1303               	bcf	3,6	;RP1=0, select bank0
  2501  068A  0854               	movf	?___flmul+1,w
  2502  068B  1683               	bsf	3,5	;RP0=1, select bank1
  2503  068C  1303               	bcf	3,6	;RP1=0, select bank1
  2504  068D  00A5               	movwf	(_RES_cien+1)^(0+128)
  2505  068E  1283               	bcf	3,5	;RP0=0, select bank0
  2506  068F  1303               	bcf	3,6	;RP1=0, select bank0
  2507  0690  0853               	movf	?___flmul,w
  2508  0691  1683               	bsf	3,5	;RP0=1, select bank1
  2509  0692  1303               	bcf	3,6	;RP1=0, select bank1
  2510  0693  00A4               	movwf	_RES_cien^(0+128)
  2511  0694                     l3442:	
  2512                           
  2513                           ;MASTER_Proyecto.c: 247:         DECI_1_RES = (uint16_t)(RES_cien);
  2514  0694  0827               	movf	(_RES_cien+3)^(0+128),w
  2515  0695  00F3               	movwf	___fltol@f1+3
  2516  0696  0826               	movf	(_RES_cien+2)^(0+128),w
  2517  0697  00F2               	movwf	___fltol@f1+2
  2518  0698  0825               	movf	(_RES_cien+1)^(0+128),w
  2519  0699  00F1               	movwf	___fltol@f1+1
  2520  069A  0824               	movf	_RES_cien^(0+128),w
  2521  069B  00F0               	movwf	___fltol@f1
  2522  069C  160A  118A  256D  120A  118A  	fcall	___fltol
  2523  06A1  0871               	movf	?___fltol+1,w
  2524  06A2  1683               	bsf	3,5	;RP0=1, select bank1
  2525  06A3  1303               	bcf	3,6	;RP1=0, select bank1
  2526  06A4  00B5               	movwf	(_DECI_1_RES+1)^(0+128)
  2527  06A5  0870               	movf	?___fltol,w
  2528  06A6  00B4               	movwf	_DECI_1_RES^(0+128)
  2529  06A7                     l3444:	
  2530                           
  2531                           ;MASTER_Proyecto.c: 248:         RES_D2 = (uint8_t)((DECI_1_RES)%((uint8_t)10));
  2532  06A7  300A               	movlw	10
  2533  06A8  00F0               	movwf	___lwmod@divisor
  2534  06A9  3000               	movlw	0
  2535  06AA  00F1               	movwf	___lwmod@divisor+1
  2536  06AB  0835               	movf	(_DECI_1_RES+1)^(0+128),w
  2537  06AC  00F3               	movwf	___lwmod@dividend+1
  2538  06AD  0834               	movf	_DECI_1_RES^(0+128),w
  2539  06AE  00F2               	movwf	___lwmod@dividend
  2540  06AF  160A  118A  22C3  120A  118A  	fcall	___lwmod
  2541  06B4  0870               	movf	?___lwmod,w
  2542  06B5  1683               	bsf	3,5	;RP0=1, select bank1
  2543  06B6  1303               	bcf	3,6	;RP1=0, select bank1
  2544  06B7  00E2               	movwf	??_main^(0+128)
  2545  06B8  0862               	movf	??_main^(0+128),w
  2546  06B9  00BE               	movwf	_RES_D2^(0+128)
  2547  06BA                     l3446:	
  2548                           
  2549                           ;MASTER_Proyecto.c: 250:         DECI_2_RES = (uint16_t)((DECI_1_RES)/((uint16_t)10));
  2550  06BA  300A               	movlw	10
  2551  06BB  00F0               	movwf	___lwdiv@divisor
  2552  06BC  3000               	movlw	0
  2553  06BD  00F1               	movwf	___lwdiv@divisor+1
  2554  06BE  0835               	movf	(_DECI_1_RES+1)^(0+128),w
  2555  06BF  00F3               	movwf	___lwdiv@dividend+1
  2556  06C0  0834               	movf	_DECI_1_RES^(0+128),w
  2557  06C1  00F2               	movwf	___lwdiv@dividend
  2558  06C2  160A  118A  22FD  120A  118A  	fcall	___lwdiv
  2559  06C7  0871               	movf	?___lwdiv+1,w
  2560  06C8  1683               	bsf	3,5	;RP0=1, select bank1
  2561  06C9  1303               	bcf	3,6	;RP1=0, select bank1
  2562  06CA  00B3               	movwf	(_DECI_2_RES+1)^(0+128)
  2563  06CB  0870               	movf	?___lwdiv,w
  2564  06CC  00B2               	movwf	_DECI_2_RES^(0+128)
  2565  06CD                     l3448:	
  2566                           
  2567                           ;MASTER_Proyecto.c: 251:         RES_D1 = (uint8_t)((DECI_2_RES)%((uint8_t)10));
  2568  06CD  300A               	movlw	10
  2569  06CE  00F0               	movwf	___lwmod@divisor
  2570  06CF  3000               	movlw	0
  2571  06D0  00F1               	movwf	___lwmod@divisor+1
  2572  06D1  0833               	movf	(_DECI_2_RES+1)^(0+128),w
  2573  06D2  00F3               	movwf	___lwmod@dividend+1
  2574  06D3  0832               	movf	_DECI_2_RES^(0+128),w
  2575  06D4  00F2               	movwf	___lwmod@dividend
  2576  06D5  160A  118A  22C3  120A  118A  	fcall	___lwmod
  2577  06DA  0870               	movf	?___lwmod,w
  2578  06DB  1683               	bsf	3,5	;RP0=1, select bank1
  2579  06DC  1303               	bcf	3,6	;RP1=0, select bank1
  2580  06DD  00E2               	movwf	??_main^(0+128)
  2581  06DE  0862               	movf	??_main^(0+128),w
  2582  06DF  00BF               	movwf	_RES_D1^(0+128)
  2583  06E0                     l3450:	
  2584                           
  2585                           ;MASTER_Proyecto.c: 257:         LCD_POINT(2,9);
  2586  06E0  3009               	movlw	9
  2587  06E1  00E2               	movwf	??_main^(0+128)
  2588  06E2  0862               	movf	??_main^(0+128),w
  2589  06E3  00F3               	movwf	LCD_POINT@col
  2590  06E4  3002               	movlw	2
  2591  06E5  160A  118A  225D  120A  118A  	fcall	_LCD_POINT
  2592  06EA                     l3452:	
  2593                           
  2594                           ;MASTER_Proyecto.c: 258:         lcd_dwr(Val_STR(RES_D1));
  2595  06EA  1683               	bsf	3,5	;RP0=1, select bank1
  2596  06EB  1303               	bcf	3,6	;RP1=0, select bank1
  2597  06EC  083F               	movf	_RES_D1^(0+128),w
  2598  06ED  120A  118A  2004  120A  118A  	fcall	_Val_STR
  2599  06F2  160A  118A  2174  120A  118A  	fcall	_lcd_dwr
  2600                           
  2601                           ;MASTER_Proyecto.c: 260:         LCD_POINT(2,10);
  2602  06F7  300A               	movlw	10
  2603  06F8  1683               	bsf	3,5	;RP0=1, select bank1
  2604  06F9  1303               	bcf	3,6	;RP1=0, select bank1
  2605  06FA  00E2               	movwf	??_main^(0+128)
  2606  06FB  0862               	movf	??_main^(0+128),w
  2607  06FC  00F3               	movwf	LCD_POINT@col
  2608  06FD  3002               	movlw	2
  2609  06FE  160A  118A  225D  120A  118A  	fcall	_LCD_POINT
  2610  0703                     l3454:	
  2611                           
  2612                           ;MASTER_Proyecto.c: 261:         lcd_dwr(Val_STR(RES_D2));
  2613  0703  1683               	bsf	3,5	;RP0=1, select bank1
  2614  0704  1303               	bcf	3,6	;RP1=0, select bank1
  2615  0705  083E               	movf	_RES_D2^(0+128),w
  2616  0706  120A  118A  2004  120A  118A  	fcall	_Val_STR
  2617  070B  160A  118A  2174  120A  118A  	fcall	_lcd_dwr
  2618  0710                     l3456:	
  2619                           
  2620                           ;MASTER_Proyecto.c: 263:         _delay((unsigned long)((2000)*(8000000/4000.0)));
  2621  0710  3015               	movlw	21
  2622  0711  1683               	bsf	3,5	;RP0=1, select bank1
  2623  0712  1303               	bcf	3,6	;RP1=0, select bank1
  2624  0713  00E4               	movwf	(??_main^(0+128)+2)
  2625  0714  304B               	movlw	75
  2626  0715  00E3               	movwf	(??_main^(0+128)+1)
  2627  0716  30BD               	movlw	189
  2628  0717  00E2               	movwf	??_main^(0+128)
  2629  0718                     u4357:	
  2630  0718  0BE2               	decfsz	??_main^(0+128),f
  2631  0719  2F18               	goto	u4357
  2632  071A  0BE3               	decfsz	(??_main^(0+128)+1),f
  2633  071B  2F18               	goto	u4357
  2634  071C  0BE4               	decfsz	(??_main^(0+128)+2),f
  2635  071D  2F18               	goto	u4357
  2636  071E  2F1F               	nop2
  2637  071F                     l3458:	
  2638                           
  2639                           ;MASTER_Proyecto.c: 265:         lcd_cmd(0x01);
  2640  071F  3001               	movlw	1
  2641  0720  160A  118A  2162  120A  118A  	fcall	_lcd_cmd
  2642  0725                     l3460:	
  2643                           
  2644                           ;MASTER_Proyecto.c: 270:         if (Val_INT == 0 || Val_MOV == 1 || Val_VIB == 1 ){
  2645  0725  1683               	bsf	3,5	;RP0=1, select bank1
  2646  0726  1303               	bcf	3,6	;RP1=0, select bank1
  2647  0727  084A               	movf	_Val_INT^(0+128),w
  2648  0728  1903               	btfsc	3,2
  2649  0729  2F2B               	goto	u4271
  2650  072A  2F2C               	goto	u4270
  2651  072B                     u4271:	
  2652  072B  2F36               	goto	l138
  2653  072C                     u4270:	
  2654  072C                     l3462:	
  2655  072C  0349               	decf	_Val_MOV^(0+128),w
  2656  072D  1903               	btfsc	3,2
  2657  072E  2F30               	goto	u4281
  2658  072F  2F31               	goto	u4280
  2659  0730                     u4281:	
  2660  0730  2F36               	goto	l138
  2661  0731                     u4280:	
  2662  0731                     l3464:	
  2663  0731  0348               	decf	_Val_VIB^(0+128),w
  2664  0732  1D03               	btfss	3,2
  2665  0733  2F35               	goto	u4291
  2666  0734  2F36               	goto	u4290
  2667  0735                     u4291:	
  2668  0735  2F39               	goto	l3466
  2669  0736                     u4290:	
  2670  0736                     l138:	
  2671                           
  2672                           ;MASTER_Proyecto.c: 271:             estado = 1;
  2673  0736  01EE               	clrf	_estado^(0+128)
  2674  0737  0AEE               	incf	_estado^(0+128),f
  2675                           
  2676                           ;MASTER_Proyecto.c: 272:         }else{
  2677  0738  2F3A               	goto	l3468
  2678  0739                     l3466:	
  2679                           
  2680                           ;MASTER_Proyecto.c: 273:             estado = 0;
  2681  0739  01EE               	clrf	_estado^(0+128)
  2682  073A                     l3468:	
  2683                           
  2684                           ;MASTER_Proyecto.c: 276:         I2C_Master_Start();
  2685  073A  160A  118A  212D  120A  118A  	fcall	_I2C_Master_Start
  2686  073F                     l3470:	
  2687                           
  2688                           ;MASTER_Proyecto.c: 277:         I2C_Master_Write(0x80);
  2689  073F  3080               	movlw	128
  2690  0740  00F0               	movwf	I2C_Master_Write@d
  2691  0741  3000               	movlw	0
  2692  0742  00F1               	movwf	I2C_Master_Write@d+1
  2693  0743  160A  118A  213F  120A  118A  	fcall	_I2C_Master_Write
  2694  0748                     l3472:	
  2695                           
  2696                           ;MASTER_Proyecto.c: 278:         I2C_Master_Write(estado);
  2697  0748  1683               	bsf	3,5	;RP0=1, select bank1
  2698  0749  1303               	bcf	3,6	;RP1=0, select bank1
  2699  074A  086E               	movf	_estado^(0+128),w
  2700  074B  00E2               	movwf	??_main^(0+128)
  2701  074C  01E3               	clrf	(??_main^(0+128)+1)
  2702  074D  0862               	movf	??_main^(0+128),w
  2703  074E  00F0               	movwf	I2C_Master_Write@d
  2704  074F  0863               	movf	(??_main+1)^(0+128),w
  2705  0750  00F1               	movwf	I2C_Master_Write@d+1
  2706  0751  160A  118A  213F  120A  118A  	fcall	_I2C_Master_Write
  2707  0756                     l3474:	
  2708                           
  2709                           ;MASTER_Proyecto.c: 279:         I2C_Master_Stop();
  2710  0756  160A  118A  2136  120A  118A  	fcall	_I2C_Master_Stop
  2711  075B                     l3476:	
  2712                           
  2713                           ;MASTER_Proyecto.c: 280:         _delay((unsigned long)((200)*(8000000/4000.0)));
  2714  075B  3003               	movlw	3
  2715  075C  1683               	bsf	3,5	;RP0=1, select bank1
  2716  075D  1303               	bcf	3,6	;RP1=0, select bank1
  2717  075E  00E4               	movwf	(??_main^(0+128)+2)
  2718  075F  3008               	movlw	8
  2719  0760  00E3               	movwf	(??_main^(0+128)+1)
  2720  0761  3076               	movlw	118
  2721  0762  00E2               	movwf	??_main^(0+128)
  2722  0763                     u4367:	
  2723  0763  0BE2               	decfsz	??_main^(0+128),f
  2724  0764  2F63               	goto	u4367
  2725  0765  0BE3               	decfsz	(??_main^(0+128)+1),f
  2726  0766  2F63               	goto	u4367
  2727  0767  0BE4               	decfsz	(??_main^(0+128)+2),f
  2728  0768  2F63               	goto	u4367
  2729  0769  0000               	nop
  2730  076A                     l3478:	
  2731                           
  2732                           ;MASTER_Proyecto.c: 287:         UART_Write(Val_INT);
  2733  076A  1683               	bsf	3,5	;RP0=1, select bank1
  2734  076B  1303               	bcf	3,6	;RP1=0, select bank1
  2735  076C  084A               	movf	_Val_INT^(0+128),w
  2736  076D  160A  118A  2149  120A  118A  	fcall	_UART_Write
  2737  0772                     l3480:	
  2738                           
  2739                           ;MASTER_Proyecto.c: 288:         _delay((unsigned long)((100)*(8000000/4000.0)));
  2740  0772  3002               	movlw	2
  2741  0773  1683               	bsf	3,5	;RP0=1, select bank1
  2742  0774  1303               	bcf	3,6	;RP1=0, select bank1
  2743  0775  00E4               	movwf	(??_main^(0+128)+2)
  2744  0776  3004               	movlw	4
  2745  0777  00E3               	movwf	(??_main^(0+128)+1)
  2746  0778  30B9               	movlw	185
  2747  0779  00E2               	movwf	??_main^(0+128)
  2748  077A                     u4377:	
  2749  077A  0BE2               	decfsz	??_main^(0+128),f
  2750  077B  2F7A               	goto	u4377
  2751  077C  0BE3               	decfsz	(??_main^(0+128)+1),f
  2752  077D  2F7A               	goto	u4377
  2753  077E  0BE4               	decfsz	(??_main^(0+128)+2),f
  2754  077F  2F7A               	goto	u4377
  2755  0780  2F81               	nop2
  2756  0781                     l3482:	
  2757                           
  2758                           ;MASTER_Proyecto.c: 292:         UART_Write(Val_MOV);
  2759  0781  1683               	bsf	3,5	;RP0=1, select bank1
  2760  0782  1303               	bcf	3,6	;RP1=0, select bank1
  2761  0783  0849               	movf	_Val_MOV^(0+128),w
  2762  0784  160A  118A  2149  120A  118A  	fcall	_UART_Write
  2763  0789                     l3484:	
  2764                           
  2765                           ;MASTER_Proyecto.c: 293:         _delay((unsigned long)((100)*(8000000/4000.0)));
  2766  0789  3002               	movlw	2
  2767  078A  1683               	bsf	3,5	;RP0=1, select bank1
  2768  078B  1303               	bcf	3,6	;RP1=0, select bank1
  2769  078C  00E4               	movwf	(??_main^(0+128)+2)
  2770  078D  3004               	movlw	4
  2771  078E  00E3               	movwf	(??_main^(0+128)+1)
  2772  078F  30B9               	movlw	185
  2773  0790  00E2               	movwf	??_main^(0+128)
  2774  0791                     u4387:	
  2775  0791  0BE2               	decfsz	??_main^(0+128),f
  2776  0792  2F91               	goto	u4387
  2777  0793  0BE3               	decfsz	(??_main^(0+128)+1),f
  2778  0794  2F91               	goto	u4387
  2779  0795  0BE4               	decfsz	(??_main^(0+128)+2),f
  2780  0796  2F91               	goto	u4387
  2781  0797  2F98               	nop2
  2782  0798                     l3486:	
  2783                           
  2784                           ;MASTER_Proyecto.c: 297:         UART_Write(Val_VIB);
  2785  0798  1683               	bsf	3,5	;RP0=1, select bank1
  2786  0799  1303               	bcf	3,6	;RP1=0, select bank1
  2787  079A  0848               	movf	_Val_VIB^(0+128),w
  2788  079B  160A  118A  2149  120A  118A  	fcall	_UART_Write
  2789  07A0                     l3488:	
  2790                           
  2791                           ;MASTER_Proyecto.c: 298:         _delay((unsigned long)((100)*(8000000/4000.0)));
  2792  07A0  3002               	movlw	2
  2793  07A1  1683               	bsf	3,5	;RP0=1, select bank1
  2794  07A2  1303               	bcf	3,6	;RP1=0, select bank1
  2795  07A3  00E4               	movwf	(??_main^(0+128)+2)
  2796  07A4  3004               	movlw	4
  2797  07A5  00E3               	movwf	(??_main^(0+128)+1)
  2798  07A6  30B9               	movlw	185
  2799  07A7  00E2               	movwf	??_main^(0+128)
  2800  07A8                     u4397:	
  2801  07A8  0BE2               	decfsz	??_main^(0+128),f
  2802  07A9  2FA8               	goto	u4397
  2803  07AA  0BE3               	decfsz	(??_main^(0+128)+1),f
  2804  07AB  2FA8               	goto	u4397
  2805  07AC  0BE4               	decfsz	(??_main^(0+128)+2),f
  2806  07AD  2FA8               	goto	u4397
  2807  07AE  2FAF               	nop2
  2808  07AF                     l3490:	
  2809                           
  2810                           ;MASTER_Proyecto.c: 302:         UART_Write(Val_TEMP);
  2811  07AF  1683               	bsf	3,5	;RP0=1, select bank1
  2812  07B0  1303               	bcf	3,6	;RP1=0, select bank1
  2813  07B1  084B               	movf	_Val_TEMP^(0+128),w
  2814  07B2  160A  118A  2149  120A  118A  	fcall	_UART_Write
  2815  07B7                     l3492:	
  2816                           
  2817                           ;MASTER_Proyecto.c: 303:         _delay((unsigned long)((100)*(8000000/4000.0)));
  2818  07B7  3002               	movlw	2
  2819  07B8  1683               	bsf	3,5	;RP0=1, select bank1
  2820  07B9  1303               	bcf	3,6	;RP1=0, select bank1
  2821  07BA  00E4               	movwf	(??_main^(0+128)+2)
  2822  07BB  3004               	movlw	4
  2823  07BC  00E3               	movwf	(??_main^(0+128)+1)
  2824  07BD  30B9               	movlw	185
  2825  07BE  00E2               	movwf	??_main^(0+128)
  2826  07BF                     u4407:	
  2827  07BF  0BE2               	decfsz	??_main^(0+128),f
  2828  07C0  2FBF               	goto	u4407
  2829  07C1  0BE3               	decfsz	(??_main^(0+128)+1),f
  2830  07C2  2FBF               	goto	u4407
  2831  07C3  0BE4               	decfsz	(??_main^(0+128)+2),f
  2832  07C4  2FBF               	goto	u4407
  2833  07C5  2FC6               	nop2
  2834  07C6                     l3494:	
  2835                           
  2836                           ;MASTER_Proyecto.c: 307:         UART_Write(Val_PESO);
  2837  07C6  3000               	movlw	0
  2838  07C7  160A  118A  2149  120A  118A  	fcall	_UART_Write
  2839  07CC                     l3496:	
  2840                           
  2841                           ;MASTER_Proyecto.c: 308:         _delay((unsigned long)((100)*(8000000/4000.0)));
  2842  07CC  3002               	movlw	2
  2843  07CD  1683               	bsf	3,5	;RP0=1, select bank1
  2844  07CE  1303               	bcf	3,6	;RP1=0, select bank1
  2845  07CF  00E4               	movwf	(??_main^(0+128)+2)
  2846  07D0  3004               	movlw	4
  2847  07D1  00E3               	movwf	(??_main^(0+128)+1)
  2848  07D2  30B9               	movlw	185
  2849  07D3  00E2               	movwf	??_main^(0+128)
  2850  07D4                     u4417:	
  2851  07D4  0BE2               	decfsz	??_main^(0+128),f
  2852  07D5  2FD4               	goto	u4417
  2853  07D6  0BE3               	decfsz	(??_main^(0+128)+1),f
  2854  07D7  2FD4               	goto	u4417
  2855  07D8  0BE4               	decfsz	(??_main^(0+128)+2),f
  2856  07D9  2FD4               	goto	u4417
  2857  07DA  2FDB               	nop2
  2858  07DB  2A46               	goto	l3294
  2859  07DC  120A  118A  2800   	ljmp	start
  2860  07DF                     __end_of_main:	
  2861                           
  2862                           	psect	text1
  2863  08CB                     __ptext1:	
  2864 ;; *************** function _log *****************
  2865 ;; Defined at:
  2866 ;;		line 5 in file "C:\Program Files (x86)\Microchip\xc8\v2.10\pic\sources\c90\common\log.c"
  2867 ;; Parameters:    Size  Location     Type
  2868 ;;  x               4   16[BANK1 ] void 
  2869 ;; Auto vars:     Size  Location     Type
  2870 ;;  exponent        2   20[BANK1 ] int 
  2871 ;; Return value:  Size  Location     Type
  2872 ;;                  4   16[BANK1 ] int 
  2873 ;; Registers used:
  2874 ;;		wreg, fsr0l, fsr0h, status,2, status,0, btemp+1, pclath, cstack
  2875 ;; Tracked objects:
  2876 ;;		On entry : 0/0
  2877 ;;		On exit  : 0/0
  2878 ;;		Unchanged: 0/0
  2879 ;; Data sizes:     COMMON   BANK0   BANK1   BANK3   BANK2
  2880 ;;      Params:         0       0       4       0       0
  2881 ;;      Locals:         0       0       2       0       0
  2882 ;;      Temps:          0       1       0       0       0
  2883 ;;      Totals:         0       1       6       0       0
  2884 ;;Total ram usage:        7 bytes
  2885 ;; Hardware stack levels used:    1
  2886 ;; Hardware stack levels required when called:    3
  2887 ;; This function calls:
  2888 ;;		___fladd
  2889 ;;		___fleq
  2890 ;;		___flge
  2891 ;;		___flmul
  2892 ;;		___xxtofl
  2893 ;;		_eval_poly
  2894 ;;		_frexp
  2895 ;; This function is called by:
  2896 ;;		_main
  2897 ;; This function uses a non-reentrant model
  2898 ;;
  2899                           
  2900                           
  2901                           ;psect for function _log
  2902  08CB                     _log:	
  2903  08CB                     l2936:	
  2904                           ;incstack = 0
  2905                           ; Regs used in _log: [wreg-fsr0h+status,2+status,0+btemp+1+pclath+cstack]
  2906                           
  2907  08CB  1683               	bsf	3,5	;RP0=1, select bank1
  2908  08CC  1303               	bcf	3,6	;RP1=0, select bank1
  2909  08CD  085F               	movf	(log@x+3)^(0+128),w
  2910  08CE  00F3               	movwf	___flge@ff1+3
  2911  08CF  085E               	movf	(log@x+2)^(0+128),w
  2912  08D0  00F2               	movwf	___flge@ff1+2
  2913  08D1  085D               	movf	(log@x+1)^(0+128),w
  2914  08D2  00F1               	movwf	___flge@ff1+1
  2915  08D3  085C               	movf	log@x^(0+128),w
  2916  08D4  00F0               	movwf	___flge@ff1
  2917  08D5  3000               	movlw	0
  2918  08D6  00F7               	movwf	___flge@ff2+3
  2919  08D7  3000               	movlw	0
  2920  08D8  00F6               	movwf	___flge@ff2+2
  2921  08D9  3000               	movlw	0
  2922  08DA  00F5               	movwf	___flge@ff2+1
  2923  08DB  3000               	movlw	0
  2924  08DC  00F4               	movwf	___flge@ff2
  2925  08DD  160A  118A  2684  120A  158A  	fcall	___flge
  2926  08E2  1803               	btfsc	3,0
  2927  08E3  28E5               	goto	u3601
  2928  08E4  28E6               	goto	u3600
  2929  08E5                     u3601:	
  2930  08E5  28F5               	goto	l2942
  2931  08E6                     u3600:	
  2932  08E6                     l2938:	
  2933  08E6  3021               	movlw	33
  2934  08E7  1683               	bsf	3,5	;RP0=1, select bank1
  2935  08E8  1303               	bcf	3,6	;RP1=0, select bank1
  2936  08E9  00B0               	movwf	_errno^(0+128)
  2937  08EA  3000               	movlw	0
  2938  08EB  00B1               	movwf	(_errno^(0+128)+1)
  2939  08EC  3000               	movlw	0
  2940  08ED  00DF               	movwf	(?_log+3)^(0+128)
  2941  08EE  3000               	movlw	0
  2942  08EF  00DE               	movwf	(?_log+2)^(0+128)
  2943  08F0  3000               	movlw	0
  2944  08F1  00DD               	movwf	(?_log+1)^(0+128)
  2945  08F2  3000               	movlw	0
  2946  08F3  00DC               	movwf	?_log^(0+128)
  2947  08F4  2A16               	goto	l842
  2948  08F5                     l2942:	
  2949  08F5  1683               	bsf	3,5	;RP0=1, select bank1
  2950  08F6  1303               	bcf	3,6	;RP1=0, select bank1
  2951  08F7  085F               	movf	(log@x+3)^(0+128),w
  2952  08F8  00F3               	movwf	___fleq@ff1+3
  2953  08F9  085E               	movf	(log@x+2)^(0+128),w
  2954  08FA  00F2               	movwf	___fleq@ff1+2
  2955  08FB  085D               	movf	(log@x+1)^(0+128),w
  2956  08FC  00F1               	movwf	___fleq@ff1+1
  2957  08FD  085C               	movf	log@x^(0+128),w
  2958  08FE  00F0               	movwf	___fleq@ff1
  2959  08FF  3000               	movlw	0
  2960  0900  00F7               	movwf	___fleq@ff2+3
  2961  0901  3000               	movlw	0
  2962  0902  00F6               	movwf	___fleq@ff2+2
  2963  0903  3000               	movlw	0
  2964  0904  00F5               	movwf	___fleq@ff2+1
  2965  0905  3000               	movlw	0
  2966  0906  00F4               	movwf	___fleq@ff2
  2967  0907  160A  118A  2341  120A  158A  	fcall	___fleq
  2968  090C  1C03               	btfss	3,0
  2969  090D  290F               	goto	u3611
  2970  090E  2910               	goto	u3610
  2971  090F                     u3611:	
  2972  090F  291F               	goto	l2948
  2973  0910                     u3610:	
  2974  0910                     l2944:	
  2975  0910  3022               	movlw	34
  2976  0911  1683               	bsf	3,5	;RP0=1, select bank1
  2977  0912  1303               	bcf	3,6	;RP1=0, select bank1
  2978  0913  00B0               	movwf	_errno^(0+128)
  2979  0914  3000               	movlw	0
  2980  0915  00B1               	movwf	(_errno^(0+128)+1)
  2981  0916  3000               	movlw	0
  2982  0917  00DF               	movwf	(?_log+3)^(0+128)
  2983  0918  3000               	movlw	0
  2984  0919  00DE               	movwf	(?_log+2)^(0+128)
  2985  091A  3000               	movlw	0
  2986  091B  00DD               	movwf	(?_log+1)^(0+128)
  2987  091C  3000               	movlw	0
  2988  091D  00DC               	movwf	?_log^(0+128)
  2989  091E  2A16               	goto	l842
  2990  091F                     l2948:	
  2991  091F  30BF               	movlw	191
  2992  0920  1283               	bcf	3,5	;RP0=0, select bank0
  2993  0921  1303               	bcf	3,6	;RP1=0, select bank0
  2994  0922  00C2               	movwf	___fladd@b+3
  2995  0923  3080               	movlw	128
  2996  0924  00C1               	movwf	___fladd@b+2
  2997  0925  3000               	movlw	0
  2998  0926  00C0               	movwf	___fladd@b+1
  2999  0927  3000               	movlw	0
  3000  0928  00BF               	movwf	___fladd@b
  3001  0929  3040               	movlw	64
  3002  092A  00D6               	movwf	___flmul@b+3
  3003  092B  3000               	movlw	0
  3004  092C  00D5               	movwf	___flmul@b+2
  3005  092D  3000               	movlw	0
  3006  092E  00D4               	movwf	___flmul@b+1
  3007  092F  3000               	movlw	0
  3008  0930  00D3               	movwf	___flmul@b
  3009  0931  30E0               	movlw	(low (log@exponent| 0))& (0+255)
  3010  0932  00ED               	movwf	??_log
  3011  0933  086D               	movf	??_log,w
  3012  0934  00A4               	movwf	frexp@eptr
  3013  0935  1683               	bsf	3,5	;RP0=1, select bank1
  3014  0936  1303               	bcf	3,6	;RP1=0, select bank1
  3015  0937  085F               	movf	(log@x+3)^(0+128),w
  3016  0938  1283               	bcf	3,5	;RP0=0, select bank0
  3017  0939  1303               	bcf	3,6	;RP1=0, select bank0
  3018  093A  00A3               	movwf	frexp@value+3
  3019  093B  1683               	bsf	3,5	;RP0=1, select bank1
  3020  093C  1303               	bcf	3,6	;RP1=0, select bank1
  3021  093D  085E               	movf	(log@x+2)^(0+128),w
  3022  093E  1283               	bcf	3,5	;RP0=0, select bank0
  3023  093F  1303               	bcf	3,6	;RP1=0, select bank0
  3024  0940  00A2               	movwf	frexp@value+2
  3025  0941  1683               	bsf	3,5	;RP0=1, select bank1
  3026  0942  1303               	bcf	3,6	;RP1=0, select bank1
  3027  0943  085D               	movf	(log@x+1)^(0+128),w
  3028  0944  1283               	bcf	3,5	;RP0=0, select bank0
  3029  0945  1303               	bcf	3,6	;RP1=0, select bank0
  3030  0946  00A1               	movwf	frexp@value+1
  3031  0947  1683               	bsf	3,5	;RP0=1, select bank1
  3032  0948  1303               	bcf	3,6	;RP1=0, select bank1
  3033  0949  085C               	movf	log@x^(0+128),w
  3034  094A  1283               	bcf	3,5	;RP0=0, select bank0
  3035  094B  1303               	bcf	3,6	;RP1=0, select bank0
  3036  094C  00A0               	movwf	frexp@value
  3037  094D  160A  118A  2444  120A  158A  	fcall	_frexp
  3038  0952  1283               	bcf	3,5	;RP0=0, select bank0
  3039  0953  1303               	bcf	3,6	;RP1=0, select bank0
  3040  0954  0823               	movf	?_frexp+3,w
  3041  0955  00DA               	movwf	___flmul@a+3
  3042  0956  0822               	movf	?_frexp+2,w
  3043  0957  00D9               	movwf	___flmul@a+2
  3044  0958  0821               	movf	?_frexp+1,w
  3045  0959  00D8               	movwf	___flmul@a+1
  3046  095A  0820               	movf	?_frexp,w
  3047  095B  00D7               	movwf	___flmul@a
  3048  095C  120A  158A  249F  120A  158A  	fcall	___flmul
  3049  0961  1283               	bcf	3,5	;RP0=0, select bank0
  3050  0962  1303               	bcf	3,6	;RP1=0, select bank0
  3051  0963  0856               	movf	?___flmul+3,w
  3052  0964  00C6               	movwf	___fladd@a+3
  3053  0965  0855               	movf	?___flmul+2,w
  3054  0966  00C5               	movwf	___fladd@a+2
  3055  0967  0854               	movf	?___flmul+1,w
  3056  0968  00C4               	movwf	___fladd@a+1
  3057  0969  0853               	movf	?___flmul,w
  3058  096A  00C3               	movwf	___fladd@a
  3059  096B  120A  158A  2217  120A  158A  	fcall	___fladd
  3060  0970  1283               	bcf	3,5	;RP0=0, select bank0
  3061  0971  1303               	bcf	3,6	;RP1=0, select bank0
  3062  0972  0842               	movf	?___fladd+3,w
  3063  0973  1683               	bsf	3,5	;RP0=1, select bank1
  3064  0974  1303               	bcf	3,6	;RP1=0, select bank1
  3065  0975  00DF               	movwf	(log@x+3)^(0+128)
  3066  0976  1283               	bcf	3,5	;RP0=0, select bank0
  3067  0977  1303               	bcf	3,6	;RP1=0, select bank0
  3068  0978  0841               	movf	?___fladd+2,w
  3069  0979  1683               	bsf	3,5	;RP0=1, select bank1
  3070  097A  1303               	bcf	3,6	;RP1=0, select bank1
  3071  097B  00DE               	movwf	(log@x+2)^(0+128)
  3072  097C  1283               	bcf	3,5	;RP0=0, select bank0
  3073  097D  1303               	bcf	3,6	;RP1=0, select bank0
  3074  097E  0840               	movf	?___fladd+1,w
  3075  097F  1683               	bsf	3,5	;RP0=1, select bank1
  3076  0980  1303               	bcf	3,6	;RP1=0, select bank1
  3077  0981  00DD               	movwf	(log@x+1)^(0+128)
  3078  0982  1283               	bcf	3,5	;RP0=0, select bank0
  3079  0983  1303               	bcf	3,6	;RP1=0, select bank0
  3080  0984  083F               	movf	?___fladd,w
  3081  0985  1683               	bsf	3,5	;RP0=1, select bank1
  3082  0986  1303               	bcf	3,6	;RP1=0, select bank1
  3083  0987  00DC               	movwf	log@x^(0+128)
  3084  0988                     l2950:	
  3085  0988  30FF               	movlw	255
  3086  0989  07E0               	addwf	log@exponent^(0+128),f
  3087  098A  1803               	skipnc
  3088  098B  0AE1               	incf	(log@exponent+1)^(0+128),f
  3089  098C  30FF               	movlw	255
  3090  098D  07E1               	addwf	(log@exponent+1)^(0+128),f
  3091  098E                     l2952:	
  3092  098E  085F               	movf	(log@x+3)^(0+128),w
  3093  098F  00CF               	movwf	(eval_poly@x+3)^(0+128)
  3094  0990  085E               	movf	(log@x+2)^(0+128),w
  3095  0991  00CE               	movwf	(eval_poly@x+2)^(0+128)
  3096  0992  085D               	movf	(log@x+1)^(0+128),w
  3097  0993  00CD               	movwf	(eval_poly@x+1)^(0+128)
  3098  0994  085C               	movf	log@x^(0+128),w
  3099  0995  00CC               	movwf	eval_poly@x^(0+128)
  3100  0996  3005               	movlw	(low ((log@coeff-__stringbase)| (0+32768)))& (0+255)
  3101  0997  1283               	bcf	3,5	;RP0=0, select bank0
  3102  0998  1303               	bcf	3,6	;RP1=0, select bank0
  3103  0999  00ED               	movwf	??_log
  3104  099A  086D               	movf	??_log,w
  3105  099B  1683               	bsf	3,5	;RP0=1, select bank1
  3106  099C  1303               	bcf	3,6	;RP1=0, select bank1
  3107  099D  00D0               	movwf	eval_poly@d^(0+128)
  3108  099E  3008               	movlw	8
  3109  099F  00D1               	movwf	eval_poly@n^(0+128)
  3110  09A0  3000               	movlw	0
  3111  09A1  00D2               	movwf	(eval_poly@n^(0+128)+1)
  3112  09A2  160A  118A  2726  120A  158A  	fcall	_eval_poly
  3113  09A7  1683               	bsf	3,5	;RP0=1, select bank1
  3114  09A8  1303               	bcf	3,6	;RP1=0, select bank1
  3115  09A9  084F               	movf	(?_eval_poly+3)^(0+128),w
  3116  09AA  00DF               	movwf	(log@x+3)^(0+128)
  3117  09AB  084E               	movf	(?_eval_poly+2)^(0+128),w
  3118  09AC  00DE               	movwf	(log@x+2)^(0+128)
  3119  09AD  084D               	movf	(?_eval_poly+1)^(0+128),w
  3120  09AE  00DD               	movwf	(log@x+1)^(0+128)
  3121  09AF  084C               	movf	?_eval_poly^(0+128),w
  3122  09B0  00DC               	movwf	log@x^(0+128)
  3123  09B1                     l2954:	
  3124  09B1  085F               	movf	(log@x+3)^(0+128),w
  3125  09B2  1283               	bcf	3,5	;RP0=0, select bank0
  3126  09B3  1303               	bcf	3,6	;RP1=0, select bank0
  3127  09B4  00C2               	movwf	___fladd@b+3
  3128  09B5  1683               	bsf	3,5	;RP0=1, select bank1
  3129  09B6  1303               	bcf	3,6	;RP1=0, select bank1
  3130  09B7  085E               	movf	(log@x+2)^(0+128),w
  3131  09B8  1283               	bcf	3,5	;RP0=0, select bank0
  3132  09B9  1303               	bcf	3,6	;RP1=0, select bank0
  3133  09BA  00C1               	movwf	___fladd@b+2
  3134  09BB  1683               	bsf	3,5	;RP0=1, select bank1
  3135  09BC  1303               	bcf	3,6	;RP1=0, select bank1
  3136  09BD  085D               	movf	(log@x+1)^(0+128),w
  3137  09BE  1283               	bcf	3,5	;RP0=0, select bank0
  3138  09BF  1303               	bcf	3,6	;RP1=0, select bank0
  3139  09C0  00C0               	movwf	___fladd@b+1
  3140  09C1  1683               	bsf	3,5	;RP0=1, select bank1
  3141  09C2  1303               	bcf	3,6	;RP1=0, select bank1
  3142  09C3  085C               	movf	log@x^(0+128),w
  3143  09C4  1283               	bcf	3,5	;RP0=0, select bank0
  3144  09C5  1303               	bcf	3,6	;RP1=0, select bank0
  3145  09C6  00BF               	movwf	___fladd@b
  3146  09C7  303F               	movlw	63
  3147  09C8  00D6               	movwf	___flmul@b+3
  3148  09C9  3031               	movlw	49
  3149  09CA  00D5               	movwf	___flmul@b+2
  3150  09CB  3072               	movlw	114
  3151  09CC  00D4               	movwf	___flmul@b+1
  3152  09CD  3018               	movlw	24
  3153  09CE  00D3               	movwf	___flmul@b
  3154  09CF  1683               	bsf	3,5	;RP0=1, select bank1
  3155  09D0  1303               	bcf	3,6	;RP1=0, select bank1
  3156  09D1  0860               	movf	log@exponent^(0+128),w
  3157  09D2  00F0               	movwf	___xxtofl@val
  3158  09D3  0861               	movf	(log@exponent+1)^(0+128),w
  3159  09D4  00F1               	movwf	___xxtofl@val+1
  3160  09D5  3000               	movlw	0
  3161  09D6  1BF1               	btfsc	___xxtofl@val+1,7
  3162  09D7  30FF               	movlw	255
  3163  09D8  00F2               	movwf	___xxtofl@val+2
  3164  09D9  00F3               	movwf	___xxtofl@val+3
  3165  09DA  3001               	movlw	1
  3166  09DB  120A  158A  2011  120A  158A  	fcall	___xxtofl
  3167  09E0  0873               	movf	?___xxtofl+3,w
  3168  09E1  1283               	bcf	3,5	;RP0=0, select bank0
  3169  09E2  1303               	bcf	3,6	;RP1=0, select bank0
  3170  09E3  00DA               	movwf	___flmul@a+3
  3171  09E4  0872               	movf	?___xxtofl+2,w
  3172  09E5  00D9               	movwf	___flmul@a+2
  3173  09E6  0871               	movf	?___xxtofl+1,w
  3174  09E7  00D8               	movwf	___flmul@a+1
  3175  09E8  0870               	movf	?___xxtofl,w
  3176  09E9  00D7               	movwf	___flmul@a
  3177  09EA  120A  158A  249F  120A  158A  	fcall	___flmul
  3178  09EF  1283               	bcf	3,5	;RP0=0, select bank0
  3179  09F0  1303               	bcf	3,6	;RP1=0, select bank0
  3180  09F1  0856               	movf	?___flmul+3,w
  3181  09F2  00C6               	movwf	___fladd@a+3
  3182  09F3  0855               	movf	?___flmul+2,w
  3183  09F4  00C5               	movwf	___fladd@a+2
  3184  09F5  0854               	movf	?___flmul+1,w
  3185  09F6  00C4               	movwf	___fladd@a+1
  3186  09F7  0853               	movf	?___flmul,w
  3187  09F8  00C3               	movwf	___fladd@a
  3188  09F9  120A  158A  2217  120A  158A  	fcall	___fladd
  3189  09FE  1283               	bcf	3,5	;RP0=0, select bank0
  3190  09FF  1303               	bcf	3,6	;RP1=0, select bank0
  3191  0A00  0842               	movf	?___fladd+3,w
  3192  0A01  1683               	bsf	3,5	;RP0=1, select bank1
  3193  0A02  1303               	bcf	3,6	;RP1=0, select bank1
  3194  0A03  00DF               	movwf	(?_log+3)^(0+128)
  3195  0A04  1283               	bcf	3,5	;RP0=0, select bank0
  3196  0A05  1303               	bcf	3,6	;RP1=0, select bank0
  3197  0A06  0841               	movf	?___fladd+2,w
  3198  0A07  1683               	bsf	3,5	;RP0=1, select bank1
  3199  0A08  1303               	bcf	3,6	;RP1=0, select bank1
  3200  0A09  00DE               	movwf	(?_log+2)^(0+128)
  3201  0A0A  1283               	bcf	3,5	;RP0=0, select bank0
  3202  0A0B  1303               	bcf	3,6	;RP1=0, select bank0
  3203  0A0C  0840               	movf	?___fladd+1,w
  3204  0A0D  1683               	bsf	3,5	;RP0=1, select bank1
  3205  0A0E  1303               	bcf	3,6	;RP1=0, select bank1
  3206  0A0F  00DD               	movwf	(?_log+1)^(0+128)
  3207  0A10  1283               	bcf	3,5	;RP0=0, select bank0
  3208  0A11  1303               	bcf	3,6	;RP1=0, select bank0
  3209  0A12  083F               	movf	?___fladd,w
  3210  0A13  1683               	bsf	3,5	;RP0=1, select bank1
  3211  0A14  1303               	bcf	3,6	;RP1=0, select bank1
  3212  0A15  00DC               	movwf	?_log^(0+128)
  3213  0A16                     l842:	
  3214  0A16  0008               	return
  3215  0A17                     __end_of_log:	
  3216                           
  3217                           	psect	text2
  3218  1444                     __ptext2:	
  3219 ;; *************** function _frexp *****************
  3220 ;; Defined at:
  3221 ;;		line 254 in file "C:\Program Files (x86)\Microchip\xc8\v2.10\pic\sources\c90\common\frexp.c"
  3222 ;; Parameters:    Size  Location     Type
  3223 ;;  value           4    0[BANK0 ] int 
  3224 ;;  eptr            1    4[BANK0 ] PTR int 
  3225 ;;		 -> log@exponent(2), 
  3226 ;; Auto vars:     Size  Location     Type
  3227 ;;		None
  3228 ;; Return value:  Size  Location     Type
  3229 ;;                  4    0[BANK0 ] PTR int 
  3230 ;; Registers used:
  3231 ;;		wreg, fsr0l, fsr0h, status,2, status,0, btemp+1, pclath, cstack
  3232 ;; Tracked objects:
  3233 ;;		On entry : 0/0
  3234 ;;		On exit  : 0/0
  3235 ;;		Unchanged: 0/0
  3236 ;; Data sizes:     COMMON   BANK0   BANK1   BANK3   BANK2
  3237 ;;      Params:         0       5       0       0       0
  3238 ;;      Locals:         0       0       0       0       0
  3239 ;;      Temps:          2       0       0       0       0
  3240 ;;      Totals:         2       5       0       0       0
  3241 ;;Total ram usage:        7 bytes
  3242 ;; Hardware stack levels used:    1
  3243 ;; Hardware stack levels required when called:    1
  3244 ;; This function calls:
  3245 ;;		___fleq
  3246 ;; This function is called by:
  3247 ;;		_log
  3248 ;; This function uses a non-reentrant model
  3249 ;;
  3250                           
  3251                           
  3252                           ;psect for function _frexp
  3253  1444                     _frexp:	
  3254  1444                     l2816:	
  3255                           ;incstack = 0
  3256                           ; Regs used in _frexp: [wreg-fsr0h+status,2+status,0+btemp+1+pclath+cstack]
  3257                           
  3258  1444  1283               	bcf	3,5	;RP0=0, select bank0
  3259  1445  1303               	bcf	3,6	;RP1=0, select bank0
  3260  1446  0823               	movf	frexp@value+3,w
  3261  1447  00F3               	movwf	___fleq@ff1+3
  3262  1448  0822               	movf	frexp@value+2,w
  3263  1449  00F2               	movwf	___fleq@ff1+2
  3264  144A  0821               	movf	frexp@value+1,w
  3265  144B  00F1               	movwf	___fleq@ff1+1
  3266  144C  0820               	movf	frexp@value,w
  3267  144D  00F0               	movwf	___fleq@ff1
  3268  144E  3000               	movlw	0
  3269  144F  00F7               	movwf	___fleq@ff2+3
  3270  1450  3000               	movlw	0
  3271  1451  00F6               	movwf	___fleq@ff2+2
  3272  1452  3000               	movlw	0
  3273  1453  00F5               	movwf	___fleq@ff2+1
  3274  1454  3000               	movlw	0
  3275  1455  00F4               	movwf	___fleq@ff2
  3276  1456  160A  118A  2341  160A  118A  	fcall	___fleq
  3277  145B  1C03               	btfss	3,0
  3278  145C  2C5E               	goto	u3471
  3279  145D  2C5F               	goto	u3470
  3280  145E                     u3471:	
  3281  145E  2C70               	goto	l2824
  3282  145F                     u3470:	
  3283  145F                     l2818:	
  3284  145F  1283               	bcf	3,5	;RP0=0, select bank0
  3285  1460  1303               	bcf	3,6	;RP1=0, select bank0
  3286  1461  0824               	movf	frexp@eptr,w
  3287  1462  0084               	movwf	4
  3288  1463  1383               	bcf	3,7	;select IRP bank0
  3289  1464  0180               	clrf	0
  3290  1465  0A84               	incf	4,f
  3291  1466  0180               	clrf	0
  3292  1467                     l2820:	
  3293  1467  3000               	movlw	0
  3294  1468  00A3               	movwf	?_frexp+3
  3295  1469  3000               	movlw	0
  3296  146A  00A2               	movwf	?_frexp+2
  3297  146B  3000               	movlw	0
  3298  146C  00A1               	movwf	?_frexp+1
  3299  146D  3000               	movlw	0
  3300  146E  00A0               	movwf	?_frexp
  3301  146F  2C9F               	goto	l866
  3302  1470                     l2824:	
  3303  1470  1283               	bcf	3,5	;RP0=0, select bank0
  3304  1471  1303               	bcf	3,6	;RP1=0, select bank0
  3305  1472  0823               	movf	frexp@value+3,w
  3306  1473  397F               	andlw	127
  3307  1474  00FC               	movwf	??_frexp
  3308  1475  01FD               	clrf	??_frexp+1
  3309  1476  1003               	clrc
  3310  1477  0DFC               	rlf	??_frexp,f
  3311  1478  0DFD               	rlf	??_frexp+1,f
  3312  1479  0824               	movf	frexp@eptr,w
  3313  147A  0084               	movwf	4
  3314  147B  087C               	movf	??_frexp,w
  3315  147C  1383               	bcf	3,7	;select IRP bank0
  3316  147D  0080               	movwf	0
  3317  147E  0A84               	incf	4,f
  3318  147F  087D               	movf	??_frexp+1,w
  3319  1480  0080               	movwf	0
  3320  1481  0D22               	rlf	frexp@value+2,w
  3321  1482  0D22               	rlf	frexp@value+2,w
  3322  1483  3901               	andlw	1
  3323  1484  00FC               	movwf	??_frexp
  3324  1485  01FD               	clrf	??_frexp+1
  3325  1486  0824               	movf	frexp@eptr,w
  3326  1487  0084               	movwf	4
  3327  1488  087C               	movf	??_frexp,w
  3328  1489  0480               	iorwf	0,f
  3329  148A  0A84               	incf	4,f
  3330  148B  087D               	movf	??_frexp+1,w
  3331  148C  0480               	iorwf	0,f
  3332  148D                     l2826:	
  3333  148D  0824               	movf	frexp@eptr,w
  3334  148E  0084               	movwf	4
  3335  148F  3082               	movlw	130
  3336  1490  0780               	addwf	0,f
  3337  1491  0F84               	incfsz	4,f
  3338  1492  0800               	movf	0,w
  3339  1493  1803               	skipnc
  3340  1494  0A00               	incf	0,w
  3341  1495  00FF               	movwf	btemp+1
  3342  1496  30FF               	movlw	255
  3343  1497  077F               	addwf	btemp+1,w
  3344  1498  0080               	movwf	0
  3345  1499  0384               	decf	4,f
  3346  149A                     l2828:	
  3347  149A  0823               	movf	frexp@value+3,w
  3348  149B  3980               	andlw	-128
  3349  149C  383F               	iorlw	63
  3350  149D  00A3               	movwf	frexp@value+3
  3351  149E                     l2830:	
  3352  149E  13A2               	bcf	frexp@value+2,7
  3353  149F                     l2832:	
  3354  149F                     l866:	
  3355  149F  0008               	return
  3356  14A0                     __end_of_frexp:	
  3357                           
  3358                           	psect	text3
  3359  1341                     __ptext3:	
  3360 ;; *************** function ___fleq *****************
  3361 ;; Defined at:
  3362 ;;		line 4 in file "C:\Program Files (x86)\Microchip\xc8\v2.10\pic\sources\c90\common\fleq.c"
  3363 ;; Parameters:    Size  Location     Type
  3364 ;;  ff1             4    0[COMMON] PTR int 
  3365 ;;  ff2             4    4[COMMON] PTR int 
  3366 ;; Auto vars:     Size  Location     Type
  3367 ;;		None
  3368 ;; Return value:  Size  Location     Type
  3369 ;;		None               void
  3370 ;; Registers used:
  3371 ;;		wreg, status,2, status,0
  3372 ;; Tracked objects:
  3373 ;;		On entry : 0/0
  3374 ;;		On exit  : 0/0
  3375 ;;		Unchanged: 0/0
  3376 ;; Data sizes:     COMMON   BANK0   BANK1   BANK3   BANK2
  3377 ;;      Params:         8       0       0       0       0
  3378 ;;      Locals:         0       0       0       0       0
  3379 ;;      Temps:          4       0       0       0       0
  3380 ;;      Totals:        12       0       0       0       0
  3381 ;;Total ram usage:       12 bytes
  3382 ;; Hardware stack levels used:    1
  3383 ;; This function calls:
  3384 ;;		Nothing
  3385 ;; This function is called by:
  3386 ;;		_log
  3387 ;;		_frexp
  3388 ;; This function uses a non-reentrant model
  3389 ;;
  3390                           
  3391                           
  3392                           ;psect for function ___fleq
  3393  1341                     ___fleq:	
  3394  1341                     l2330:	
  3395                           ;incstack = 0
  3396                           ; Regs used in ___fleq: [wreg+status,2+status,0]
  3397                           
  3398  1341  3000               	movlw	0
  3399  1342  0570               	andwf	___fleq@ff1,w
  3400  1343  00F8               	movwf	??___fleq
  3401  1344  3000               	movlw	0
  3402  1345  0571               	andwf	___fleq@ff1+1,w
  3403  1346  00F9               	movwf	??___fleq+1
  3404  1347  3080               	movlw	128
  3405  1348  0572               	andwf	___fleq@ff1+2,w
  3406  1349  00FA               	movwf	??___fleq+2
  3407  134A  307F               	movlw	127
  3408  134B  0573               	andwf	___fleq@ff1+3,w
  3409  134C  00FB               	movwf	??___fleq+3
  3410  134D  087B               	movf	??___fleq+3,w
  3411  134E  047A               	iorwf	??___fleq+2,w
  3412  134F  0479               	iorwf	??___fleq+1,w
  3413  1350  0478               	iorwf	??___fleq,w
  3414  1351  1D03               	skipz
  3415  1352  2B54               	goto	u2271
  3416  1353  2B55               	goto	u2270
  3417  1354                     u2271:	
  3418  1354  2B5D               	goto	l557
  3419  1355                     u2270:	
  3420  1355                     l2332:	
  3421  1355  3000               	movlw	0
  3422  1356  00F3               	movwf	___fleq@ff1+3
  3423  1357  3000               	movlw	0
  3424  1358  00F2               	movwf	___fleq@ff1+2
  3425  1359  3000               	movlw	0
  3426  135A  00F1               	movwf	___fleq@ff1+1
  3427  135B  3000               	movlw	0
  3428  135C  00F0               	movwf	___fleq@ff1
  3429  135D                     l557:	
  3430  135D  3000               	movlw	0
  3431  135E  0574               	andwf	___fleq@ff2,w
  3432  135F  00F8               	movwf	??___fleq
  3433  1360  3000               	movlw	0
  3434  1361  0575               	andwf	___fleq@ff2+1,w
  3435  1362  00F9               	movwf	??___fleq+1
  3436  1363  3080               	movlw	128
  3437  1364  0576               	andwf	___fleq@ff2+2,w
  3438  1365  00FA               	movwf	??___fleq+2
  3439  1366  307F               	movlw	127
  3440  1367  0577               	andwf	___fleq@ff2+3,w
  3441  1368  00FB               	movwf	??___fleq+3
  3442  1369  087B               	movf	??___fleq+3,w
  3443  136A  047A               	iorwf	??___fleq+2,w
  3444  136B  0479               	iorwf	??___fleq+1,w
  3445  136C  0478               	iorwf	??___fleq,w
  3446  136D  1D03               	skipz
  3447  136E  2B70               	goto	u2281
  3448  136F  2B71               	goto	u2280
  3449  1370                     u2281:	
  3450  1370  2B79               	goto	l558
  3451  1371                     u2280:	
  3452  1371                     l2334:	
  3453  1371  3000               	movlw	0
  3454  1372  00F7               	movwf	___fleq@ff2+3
  3455  1373  3000               	movlw	0
  3456  1374  00F6               	movwf	___fleq@ff2+2
  3457  1375  3000               	movlw	0
  3458  1376  00F5               	movwf	___fleq@ff2+1
  3459  1377  3000               	movlw	0
  3460  1378  00F4               	movwf	___fleq@ff2
  3461  1379                     l558:	
  3462  1379  0877               	movf	___fleq@ff2+3,w
  3463  137A  0673               	xorwf	___fleq@ff1+3,w
  3464  137B  1D03               	skipz
  3465  137C  2B87               	goto	u2295
  3466  137D  0876               	movf	___fleq@ff2+2,w
  3467  137E  0672               	xorwf	___fleq@ff1+2,w
  3468  137F  1D03               	skipz
  3469  1380  2B87               	goto	u2295
  3470  1381  0875               	movf	___fleq@ff2+1,w
  3471  1382  0671               	xorwf	___fleq@ff1+1,w
  3472  1383  1D03               	skipz
  3473  1384  2B87               	goto	u2295
  3474  1385  0874               	movf	___fleq@ff2,w
  3475  1386  0670               	xorwf	___fleq@ff1,w
  3476  1387                     u2295:	
  3477  1387  1903               	skipnz
  3478  1388  2B8A               	goto	u2291
  3479  1389  2B8B               	goto	u2290
  3480  138A                     u2291:	
  3481  138A  2B8D               	goto	l2338
  3482  138B                     u2290:	
  3483  138B                     l2336:	
  3484  138B  1003               	clrc
  3485  138C  2B8E               	goto	l559
  3486  138D                     l2338:	
  3487  138D  1403               	setc
  3488  138E                     l559:	
  3489  138E  0008               	return
  3490  138F                     __end_of___fleq:	
  3491                           
  3492                           	psect	text4
  3493  1726                     __ptext4:	
  3494 ;; *************** function _eval_poly *****************
  3495 ;; Defined at:
  3496 ;;		line 4 in file "C:\Program Files (x86)\Microchip\xc8\v2.10\pic\sources\c90\common\evalpoly.c"
  3497 ;; Parameters:    Size  Location     Type
  3498 ;;  x               4    0[BANK1 ] PTR int 
  3499 ;;  d               1    4[BANK1 ] PTR const 
  3500 ;;		 -> log@coeff(36), 
  3501 ;;  n               2    5[BANK1 ] int 
  3502 ;; Auto vars:     Size  Location     Type
  3503 ;;  res             4   12[BANK1 ] int 
  3504 ;; Return value:  Size  Location     Type
  3505 ;;                  4    0[BANK1 ] int 
  3506 ;; Registers used:
  3507 ;;		wreg, fsr0l, fsr0h, status,2, status,0, btemp+1, pclath, cstack
  3508 ;; Tracked objects:
  3509 ;;		On entry : 0/0
  3510 ;;		On exit  : 0/0
  3511 ;;		Unchanged: 0/0
  3512 ;; Data sizes:     COMMON   BANK0   BANK1   BANK3   BANK2
  3513 ;;      Params:         0       0       7       0       0
  3514 ;;      Locals:         0       0       4       0       0
  3515 ;;      Temps:          0       0       5       0       0
  3516 ;;      Totals:         0       0      16       0       0
  3517 ;;Total ram usage:       16 bytes
  3518 ;; Hardware stack levels used:    1
  3519 ;; Hardware stack levels required when called:    2
  3520 ;; This function calls:
  3521 ;;		___fladd
  3522 ;;		___flmul
  3523 ;; This function is called by:
  3524 ;;		_log
  3525 ;; This function uses a non-reentrant model
  3526 ;;
  3527                           
  3528                           
  3529                           ;psect for function _eval_poly
  3530  1726                     _eval_poly:	
  3531  1726                     l2836:	
  3532                           ;incstack = 0
  3533                           ; Regs used in _eval_poly: [wreg-fsr0h+status,2+status,0+btemp+1+pclath+cstack]
  3534                           
  3535  1726  1683               	bsf	3,5	;RP0=1, select bank1
  3536  1727  1303               	bcf	3,6	;RP1=0, select bank1
  3537  1728  0851               	movf	eval_poly@n^(0+128),w
  3538  1729  00D3               	movwf	??_eval_poly^(0+128)
  3539  172A  3001               	movlw	1
  3540  172B                     u3485:	
  3541  172B  1003               	clrc
  3542  172C  0DD3               	rlf	??_eval_poly^(0+128),f
  3543  172D  3EFF               	addlw	-1
  3544  172E  1D03               	skipz
  3545  172F  2F2B               	goto	u3485
  3546  1730  1003               	clrc
  3547  1731  0D53               	rlf	??_eval_poly^(0+128),w
  3548  1732  0750               	addwf	eval_poly@d^(0+128),w
  3549  1733  0084               	movwf	4
  3550  1734  160A  118A  2000  160A  118A  	fcall	stringdir
  3551  1739  00D4               	movwf	(??_eval_poly+1)^(0+128)
  3552  173A  160A  118A  2000  160A  118A  	fcall	stringdir
  3553  173F  00D5               	movwf	((??_eval_poly+1)^(0+128)+1)
  3554  1740  160A  118A  2000  160A  118A  	fcall	stringdir
  3555  1745  00D6               	movwf	((??_eval_poly+1)^(0+128)+2)
  3556  1746  160A  118A  2000  160A  118A  	fcall	stringdir
  3557  174B  00D7               	movwf	((??_eval_poly+1)^(0+128)+3)
  3558  174C  0857               	movf	(??_eval_poly+4)^(0+128),w
  3559  174D  00DB               	movwf	(eval_poly@res+3)^(0+128)
  3560  174E  0856               	movf	(??_eval_poly+3)^(0+128),w
  3561  174F  00DA               	movwf	(eval_poly@res+2)^(0+128)
  3562  1750  0855               	movf	(??_eval_poly+2)^(0+128),w
  3563  1751  00D9               	movwf	(eval_poly@res+1)^(0+128)
  3564  1752  0854               	movf	(??_eval_poly+1)^(0+128),w
  3565  1753  00D8               	movwf	eval_poly@res^(0+128)
  3566  1754  2FF1               	goto	l2840
  3567  1755                     l2838:	
  3568  1755  30FF               	movlw	255
  3569  1756  07D1               	addwf	eval_poly@n^(0+128),f
  3570  1757  1803               	skipnc
  3571  1758  0AD2               	incf	(eval_poly@n+1)^(0+128),f
  3572  1759  30FF               	movlw	255
  3573  175A  07D2               	addwf	(eval_poly@n+1)^(0+128),f
  3574  175B  0851               	movf	eval_poly@n^(0+128),w
  3575  175C  00D3               	movwf	??_eval_poly^(0+128)
  3576  175D  3001               	movlw	1
  3577  175E                     u3495:	
  3578  175E  1003               	clrc
  3579  175F  0DD3               	rlf	??_eval_poly^(0+128),f
  3580  1760  3EFF               	addlw	-1
  3581  1761  1D03               	skipz
  3582  1762  2F5E               	goto	u3495
  3583  1763  1003               	clrc
  3584  1764  0D53               	rlf	??_eval_poly^(0+128),w
  3585  1765  0750               	addwf	eval_poly@d^(0+128),w
  3586  1766  0084               	movwf	4
  3587  1767  160A  118A  2000  160A  118A  	fcall	stringdir
  3588  176C  00D4               	movwf	(??_eval_poly+1)^(0+128)
  3589  176D  160A  118A  2000  160A  118A  	fcall	stringdir
  3590  1772  00D5               	movwf	((??_eval_poly+1)^(0+128)+1)
  3591  1773  160A  118A  2000  160A  118A  	fcall	stringdir
  3592  1778  00D6               	movwf	((??_eval_poly+1)^(0+128)+2)
  3593  1779  160A  118A  2000  160A  118A  	fcall	stringdir
  3594  177E  00D7               	movwf	((??_eval_poly+1)^(0+128)+3)
  3595  177F  0857               	movf	(??_eval_poly+4)^(0+128),w
  3596  1780  1283               	bcf	3,5	;RP0=0, select bank0
  3597  1781  1303               	bcf	3,6	;RP1=0, select bank0
  3598  1782  00C2               	movwf	___fladd@b+3
  3599  1783  1683               	bsf	3,5	;RP0=1, select bank1
  3600  1784  1303               	bcf	3,6	;RP1=0, select bank1
  3601  1785  0856               	movf	(??_eval_poly+3)^(0+128),w
  3602  1786  1283               	bcf	3,5	;RP0=0, select bank0
  3603  1787  1303               	bcf	3,6	;RP1=0, select bank0
  3604  1788  00C1               	movwf	___fladd@b+2
  3605  1789  1683               	bsf	3,5	;RP0=1, select bank1
  3606  178A  1303               	bcf	3,6	;RP1=0, select bank1
  3607  178B  0855               	movf	(??_eval_poly+2)^(0+128),w
  3608  178C  1283               	bcf	3,5	;RP0=0, select bank0
  3609  178D  1303               	bcf	3,6	;RP1=0, select bank0
  3610  178E  00C0               	movwf	___fladd@b+1
  3611  178F  1683               	bsf	3,5	;RP0=1, select bank1
  3612  1790  1303               	bcf	3,6	;RP1=0, select bank1
  3613  1791  0854               	movf	(??_eval_poly+1)^(0+128),w
  3614  1792  1283               	bcf	3,5	;RP0=0, select bank0
  3615  1793  1303               	bcf	3,6	;RP1=0, select bank0
  3616  1794  00BF               	movwf	___fladd@b
  3617  1795  1683               	bsf	3,5	;RP0=1, select bank1
  3618  1796  1303               	bcf	3,6	;RP1=0, select bank1
  3619  1797  085B               	movf	(eval_poly@res+3)^(0+128),w
  3620  1798  1283               	bcf	3,5	;RP0=0, select bank0
  3621  1799  1303               	bcf	3,6	;RP1=0, select bank0
  3622  179A  00D6               	movwf	___flmul@b+3
  3623  179B  1683               	bsf	3,5	;RP0=1, select bank1
  3624  179C  1303               	bcf	3,6	;RP1=0, select bank1
  3625  179D  085A               	movf	(eval_poly@res+2)^(0+128),w
  3626  179E  1283               	bcf	3,5	;RP0=0, select bank0
  3627  179F  1303               	bcf	3,6	;RP1=0, select bank0
  3628  17A0  00D5               	movwf	___flmul@b+2
  3629  17A1  1683               	bsf	3,5	;RP0=1, select bank1
  3630  17A2  1303               	bcf	3,6	;RP1=0, select bank1
  3631  17A3  0859               	movf	(eval_poly@res+1)^(0+128),w
  3632  17A4  1283               	bcf	3,5	;RP0=0, select bank0
  3633  17A5  1303               	bcf	3,6	;RP1=0, select bank0
  3634  17A6  00D4               	movwf	___flmul@b+1
  3635  17A7  1683               	bsf	3,5	;RP0=1, select bank1
  3636  17A8  1303               	bcf	3,6	;RP1=0, select bank1
  3637  17A9  0858               	movf	eval_poly@res^(0+128),w
  3638  17AA  1283               	bcf	3,5	;RP0=0, select bank0
  3639  17AB  1303               	bcf	3,6	;RP1=0, select bank0
  3640  17AC  00D3               	movwf	___flmul@b
  3641  17AD  1683               	bsf	3,5	;RP0=1, select bank1
  3642  17AE  1303               	bcf	3,6	;RP1=0, select bank1
  3643  17AF  084F               	movf	(eval_poly@x+3)^(0+128),w
  3644  17B0  1283               	bcf	3,5	;RP0=0, select bank0
  3645  17B1  1303               	bcf	3,6	;RP1=0, select bank0
  3646  17B2  00DA               	movwf	___flmul@a+3
  3647  17B3  1683               	bsf	3,5	;RP0=1, select bank1
  3648  17B4  1303               	bcf	3,6	;RP1=0, select bank1
  3649  17B5  084E               	movf	(eval_poly@x+2)^(0+128),w
  3650  17B6  1283               	bcf	3,5	;RP0=0, select bank0
  3651  17B7  1303               	bcf	3,6	;RP1=0, select bank0
  3652  17B8  00D9               	movwf	___flmul@a+2
  3653  17B9  1683               	bsf	3,5	;RP0=1, select bank1
  3654  17BA  1303               	bcf	3,6	;RP1=0, select bank1
  3655  17BB  084D               	movf	(eval_poly@x+1)^(0+128),w
  3656  17BC  1283               	bcf	3,5	;RP0=0, select bank0
  3657  17BD  1303               	bcf	3,6	;RP1=0, select bank0
  3658  17BE  00D8               	movwf	___flmul@a+1
  3659  17BF  1683               	bsf	3,5	;RP0=1, select bank1
  3660  17C0  1303               	bcf	3,6	;RP1=0, select bank1
  3661  17C1  084C               	movf	eval_poly@x^(0+128),w
  3662  17C2  1283               	bcf	3,5	;RP0=0, select bank0
  3663  17C3  1303               	bcf	3,6	;RP1=0, select bank0
  3664  17C4  00D7               	movwf	___flmul@a
  3665  17C5  120A  158A  249F  160A  118A  	fcall	___flmul
  3666  17CA  1283               	bcf	3,5	;RP0=0, select bank0
  3667  17CB  1303               	bcf	3,6	;RP1=0, select bank0
  3668  17CC  0856               	movf	?___flmul+3,w
  3669  17CD  00C6               	movwf	___fladd@a+3
  3670  17CE  0855               	movf	?___flmul+2,w
  3671  17CF  00C5               	movwf	___fladd@a+2
  3672  17D0  0854               	movf	?___flmul+1,w
  3673  17D1  00C4               	movwf	___fladd@a+1
  3674  17D2  0853               	movf	?___flmul,w
  3675  17D3  00C3               	movwf	___fladd@a
  3676  17D4  120A  158A  2217  160A  118A  	fcall	___fladd
  3677  17D9  1283               	bcf	3,5	;RP0=0, select bank0
  3678  17DA  1303               	bcf	3,6	;RP1=0, select bank0
  3679  17DB  0842               	movf	?___fladd+3,w
  3680  17DC  1683               	bsf	3,5	;RP0=1, select bank1
  3681  17DD  1303               	bcf	3,6	;RP1=0, select bank1
  3682  17DE  00DB               	movwf	(eval_poly@res+3)^(0+128)
  3683  17DF  1283               	bcf	3,5	;RP0=0, select bank0
  3684  17E0  1303               	bcf	3,6	;RP1=0, select bank0
  3685  17E1  0841               	movf	?___fladd+2,w
  3686  17E2  1683               	bsf	3,5	;RP0=1, select bank1
  3687  17E3  1303               	bcf	3,6	;RP1=0, select bank1
  3688  17E4  00DA               	movwf	(eval_poly@res+2)^(0+128)
  3689  17E5  1283               	bcf	3,5	;RP0=0, select bank0
  3690  17E6  1303               	bcf	3,6	;RP1=0, select bank0
  3691  17E7  0840               	movf	?___fladd+1,w
  3692  17E8  1683               	bsf	3,5	;RP0=1, select bank1
  3693  17E9  1303               	bcf	3,6	;RP1=0, select bank1
  3694  17EA  00D9               	movwf	(eval_poly@res+1)^(0+128)
  3695  17EB  1283               	bcf	3,5	;RP0=0, select bank0
  3696  17EC  1303               	bcf	3,6	;RP1=0, select bank0
  3697  17ED  083F               	movf	?___fladd,w
  3698  17EE  1683               	bsf	3,5	;RP0=1, select bank1
  3699  17EF  1303               	bcf	3,6	;RP1=0, select bank1
  3700  17F0  00D8               	movwf	eval_poly@res^(0+128)
  3701  17F1                     l2840:	
  3702  17F1  0851               	movf	eval_poly@n^(0+128),w
  3703  17F2  0452               	iorwf	(eval_poly@n+1)^(0+128),w
  3704  17F3  1D03               	btfss	3,2
  3705  17F4  2FF6               	goto	u3501
  3706  17F5  2FF7               	goto	u3500
  3707  17F6                     u3501:	
  3708  17F6  2F55               	goto	l2838
  3709  17F7                     u3500:	
  3710  17F7                     l2842:	
  3711  17F7  085B               	movf	(eval_poly@res+3)^(0+128),w
  3712  17F8  00CF               	movwf	(?_eval_poly+3)^(0+128)
  3713  17F9  085A               	movf	(eval_poly@res+2)^(0+128),w
  3714  17FA  00CE               	movwf	(?_eval_poly+2)^(0+128)
  3715  17FB  0859               	movf	(eval_poly@res+1)^(0+128),w
  3716  17FC  00CD               	movwf	(?_eval_poly+1)^(0+128)
  3717  17FD  0858               	movf	eval_poly@res^(0+128),w
  3718  17FE  00CC               	movwf	?_eval_poly^(0+128)
  3719  17FF                     l860:	
  3720  17FF  0008               	return
  3721  1800                     __end_of_eval_poly:	
  3722                           
  3723                           	psect	text5
  3724  0C9F                     __ptext5:	
  3725 ;; *************** function ___flmul *****************
  3726 ;; Defined at:
  3727 ;;		line 8 in file "C:\Program Files (x86)\Microchip\xc8\v2.10\pic\sources\c90\common\sprcmul.c"
  3728 ;; Parameters:    Size  Location     Type
  3729 ;;  b               4   51[BANK0 ] int 
  3730 ;;  a               4   55[BANK0 ] int 
  3731 ;; Auto vars:     Size  Location     Type
  3732 ;;  prod            4   71[BANK0 ] struct .
  3733 ;;  grs             4   65[BANK0 ] unsigned long 
  3734 ;;  temp            2   75[BANK0 ] struct .
  3735 ;;  bexp            1   70[BANK0 ] unsigned char 
  3736 ;;  aexp            1   69[BANK0 ] unsigned char 
  3737 ;;  sign            1   64[BANK0 ] unsigned char 
  3738 ;; Return value:  Size  Location     Type
  3739 ;;                  4   51[BANK0 ] unsigned char 
  3740 ;; Registers used:
  3741 ;;		wreg, status,2, status,0, btemp+1, pclath, cstack
  3742 ;; Tracked objects:
  3743 ;;		On entry : 0/0
  3744 ;;		On exit  : 0/0
  3745 ;;		Unchanged: 0/0
  3746 ;; Data sizes:     COMMON   BANK0   BANK1   BANK3   BANK2
  3747 ;;      Params:         0       8       0       0       0
  3748 ;;      Locals:         0      13       0       0       0
  3749 ;;      Temps:          0       5       0       0       0
  3750 ;;      Totals:         0      26       0       0       0
  3751 ;;Total ram usage:       26 bytes
  3752 ;; Hardware stack levels used:    1
  3753 ;; Hardware stack levels required when called:    1
  3754 ;; This function calls:
  3755 ;;		__Umul8_16
  3756 ;; This function is called by:
  3757 ;;		_main
  3758 ;;		_log
  3759 ;;		_eval_poly
  3760 ;; This function uses a non-reentrant model
  3761 ;;
  3762                           
  3763                           
  3764                           ;psect for function ___flmul
  3765  0C9F                     ___flmul:	
  3766  0C9F                     l2536:	
  3767                           ;incstack = 0
  3768                           ; Regs used in ___flmul: [wreg+status,2+status,0+btemp+1+pclath+cstack]
  3769                           
  3770  0C9F  1283               	bcf	3,5	;RP0=0, select bank0
  3771  0CA0  1303               	bcf	3,6	;RP1=0, select bank0
  3772  0CA1  0856               	movf	___flmul@b+3,w
  3773  0CA2  3980               	andlw	128
  3774  0CA3  00DB               	movwf	??___flmul
  3775  0CA4  085B               	movf	??___flmul,w
  3776  0CA5  00E0               	movwf	___flmul@sign
  3777  0CA6                     l2538:	
  3778  0CA6  0856               	movf	___flmul@b+3,w
  3779  0CA7  00DB               	movwf	??___flmul
  3780  0CA8  075B               	addwf	??___flmul,w
  3781  0CA9  00DC               	movwf	??___flmul+1
  3782  0CAA  085C               	movf	??___flmul+1,w
  3783  0CAB  00E6               	movwf	___flmul@bexp
  3784  0CAC                     l2540:	
  3785  0CAC  1FD5               	btfss	___flmul@b+2,7
  3786  0CAD  2CAF               	goto	u2761
  3787  0CAE  2CB0               	goto	u2760
  3788  0CAF                     u2761:	
  3789  0CAF  2CB1               	goto	l2544
  3790  0CB0                     u2760:	
  3791  0CB0                     l2542:	
  3792  0CB0  1466               	bsf	___flmul@bexp,0
  3793  0CB1                     l2544:	
  3794  0CB1  0866               	movf	___flmul@bexp,w
  3795  0CB2  1903               	btfsc	3,2
  3796  0CB3  2CB5               	goto	u2771
  3797  0CB4  2CB6               	goto	u2770
  3798  0CB5                     u2771:	
  3799  0CB5  2CC5               	goto	l2552
  3800  0CB6                     u2770:	
  3801  0CB6                     l2546:	
  3802  0CB6  0A66               	incf	___flmul@bexp,w
  3803  0CB7  1D03               	btfss	3,2
  3804  0CB8  2CBA               	goto	u2781
  3805  0CB9  2CBB               	goto	u2780
  3806  0CBA                     u2781:	
  3807  0CBA  2CC3               	goto	l2550
  3808  0CBB                     u2780:	
  3809  0CBB                     l2548:	
  3810  0CBB  3000               	movlw	0
  3811  0CBC  00D6               	movwf	___flmul@b+3
  3812  0CBD  3000               	movlw	0
  3813  0CBE  00D5               	movwf	___flmul@b+2
  3814  0CBF  3000               	movlw	0
  3815  0CC0  00D4               	movwf	___flmul@b+1
  3816  0CC1  3000               	movlw	0
  3817  0CC2  00D3               	movwf	___flmul@b
  3818  0CC3                     l2550:	
  3819  0CC3  17D5               	bsf	___flmul@b+2,7
  3820  0CC4  2CCD               	goto	l2554
  3821  0CC5                     l2552:	
  3822  0CC5  3000               	movlw	0
  3823  0CC6  00D6               	movwf	___flmul@b+3
  3824  0CC7  3000               	movlw	0
  3825  0CC8  00D5               	movwf	___flmul@b+2
  3826  0CC9  3000               	movlw	0
  3827  0CCA  00D4               	movwf	___flmul@b+1
  3828  0CCB  3000               	movlw	0
  3829  0CCC  00D3               	movwf	___flmul@b
  3830  0CCD                     l2554:	
  3831  0CCD  085A               	movf	___flmul@a+3,w
  3832  0CCE  3980               	andlw	128
  3833  0CCF  00DB               	movwf	??___flmul
  3834  0CD0  085B               	movf	??___flmul,w
  3835  0CD1  06E0               	xorwf	___flmul@sign,f
  3836  0CD2                     l2556:	
  3837  0CD2  085A               	movf	___flmul@a+3,w
  3838  0CD3  00DB               	movwf	??___flmul
  3839  0CD4  075B               	addwf	??___flmul,w
  3840  0CD5  00DC               	movwf	??___flmul+1
  3841  0CD6  085C               	movf	??___flmul+1,w
  3842  0CD7  00E5               	movwf	___flmul@aexp
  3843  0CD8                     l2558:	
  3844  0CD8  1FD9               	btfss	___flmul@a+2,7
  3845  0CD9  2CDB               	goto	u2791
  3846  0CDA  2CDC               	goto	u2790
  3847  0CDB                     u2791:	
  3848  0CDB  2CDD               	goto	l2562
  3849  0CDC                     u2790:	
  3850  0CDC                     l2560:	
  3851  0CDC  1465               	bsf	___flmul@aexp,0
  3852  0CDD                     l2562:	
  3853  0CDD  0865               	movf	___flmul@aexp,w
  3854  0CDE  1903               	btfsc	3,2
  3855  0CDF  2CE1               	goto	u2801
  3856  0CE0  2CE2               	goto	u2800
  3857  0CE1                     u2801:	
  3858  0CE1  2CF1               	goto	l2570
  3859  0CE2                     u2800:	
  3860  0CE2                     l2564:	
  3861  0CE2  0A65               	incf	___flmul@aexp,w
  3862  0CE3  1D03               	btfss	3,2
  3863  0CE4  2CE6               	goto	u2811
  3864  0CE5  2CE7               	goto	u2810
  3865  0CE6                     u2811:	
  3866  0CE6  2CEF               	goto	l2568
  3867  0CE7                     u2810:	
  3868  0CE7                     l2566:	
  3869  0CE7  3000               	movlw	0
  3870  0CE8  00DA               	movwf	___flmul@a+3
  3871  0CE9  3000               	movlw	0
  3872  0CEA  00D9               	movwf	___flmul@a+2
  3873  0CEB  3000               	movlw	0
  3874  0CEC  00D8               	movwf	___flmul@a+1
  3875  0CED  3000               	movlw	0
  3876  0CEE  00D7               	movwf	___flmul@a
  3877  0CEF                     l2568:	
  3878  0CEF  17D9               	bsf	___flmul@a+2,7
  3879  0CF0  2CF9               	goto	l2572
  3880  0CF1                     l2570:	
  3881  0CF1  3000               	movlw	0
  3882  0CF2  00DA               	movwf	___flmul@a+3
  3883  0CF3  3000               	movlw	0
  3884  0CF4  00D9               	movwf	___flmul@a+2
  3885  0CF5  3000               	movlw	0
  3886  0CF6  00D8               	movwf	___flmul@a+1
  3887  0CF7  3000               	movlw	0
  3888  0CF8  00D7               	movwf	___flmul@a
  3889  0CF9                     l2572:	
  3890  0CF9  0865               	movf	___flmul@aexp,w
  3891  0CFA  1903               	btfsc	3,2
  3892  0CFB  2CFD               	goto	u2821
  3893  0CFC  2CFE               	goto	u2820
  3894  0CFD                     u2821:	
  3895  0CFD  2D03               	goto	l2576
  3896  0CFE                     u2820:	
  3897  0CFE                     l2574:	
  3898  0CFE  0866               	movf	___flmul@bexp,w
  3899  0CFF  1D03               	btfss	3,2
  3900  0D00  2D02               	goto	u2831
  3901  0D01  2D03               	goto	u2830
  3902  0D02                     u2831:	
  3903  0D02  2D0C               	goto	l2580
  3904  0D03                     u2830:	
  3905  0D03                     l2576:	
  3906  0D03  3000               	movlw	0
  3907  0D04  00D6               	movwf	?___flmul+3
  3908  0D05  3000               	movlw	0
  3909  0D06  00D5               	movwf	?___flmul+2
  3910  0D07  3000               	movlw	0
  3911  0D08  00D4               	movwf	?___flmul+1
  3912  0D09  3000               	movlw	0
  3913  0D0A  00D3               	movwf	?___flmul
  3914  0D0B  2FFF               	goto	l777
  3915  0D0C                     l2580:	
  3916  0D0C  0853               	movf	___flmul@b,w
  3917  0D0D  00DB               	movwf	??___flmul
  3918  0D0E  085B               	movf	??___flmul,w
  3919  0D0F  00F0               	movwf	__Umul8_16@multiplicand
  3920  0D10  0859               	movf	___flmul@a+2,w
  3921  0D11  160A  118A  21E0  120A  158A  	fcall	__Umul8_16
  3922  0D16  0871               	movf	?__Umul8_16+1,w
  3923  0D17  1283               	bcf	3,5	;RP0=0, select bank0
  3924  0D18  1303               	bcf	3,6	;RP1=0, select bank0
  3925  0D19  00EC               	movwf	___flmul@temp+1
  3926  0D1A  0870               	movf	?__Umul8_16,w
  3927  0D1B  00EB               	movwf	___flmul@temp
  3928  0D1C                     l2582:	
  3929  0D1C  086B               	movf	___flmul@temp,w
  3930  0D1D  00DB               	movwf	??___flmul
  3931  0D1E  01DC               	clrf	??___flmul+1
  3932  0D1F  01DD               	clrf	??___flmul+2
  3933  0D20  01DE               	clrf	??___flmul+3
  3934  0D21  085E               	movf	??___flmul+3,w
  3935  0D22  00E4               	movwf	___flmul@grs+3
  3936  0D23  085D               	movf	??___flmul+2,w
  3937  0D24  00E3               	movwf	___flmul@grs+2
  3938  0D25  085C               	movf	??___flmul+1,w
  3939  0D26  00E2               	movwf	___flmul@grs+1
  3940  0D27  085B               	movf	??___flmul,w
  3941  0D28  00E1               	movwf	___flmul@grs
  3942  0D29                     l2584:	
  3943  0D29  086C               	movf	___flmul@temp+1,w
  3944  0D2A  00DB               	movwf	??___flmul
  3945  0D2B  01DC               	clrf	??___flmul+1
  3946  0D2C  01DD               	clrf	??___flmul+2
  3947  0D2D  01DE               	clrf	??___flmul+3
  3948  0D2E  085E               	movf	??___flmul+3,w
  3949  0D2F  00EA               	movwf	___flmul@prod+3
  3950  0D30  085D               	movf	??___flmul+2,w
  3951  0D31  00E9               	movwf	___flmul@prod+2
  3952  0D32  085C               	movf	??___flmul+1,w
  3953  0D33  00E8               	movwf	___flmul@prod+1
  3954  0D34  085B               	movf	??___flmul,w
  3955  0D35  00E7               	movwf	___flmul@prod
  3956  0D36  0854               	movf	___flmul@b+1,w
  3957  0D37  00DB               	movwf	??___flmul
  3958  0D38  085B               	movf	??___flmul,w
  3959  0D39  00F0               	movwf	__Umul8_16@multiplicand
  3960  0D3A  0858               	movf	___flmul@a+1,w
  3961  0D3B  160A  118A  21E0  120A  158A  	fcall	__Umul8_16
  3962  0D40  0871               	movf	?__Umul8_16+1,w
  3963  0D41  1283               	bcf	3,5	;RP0=0, select bank0
  3964  0D42  1303               	bcf	3,6	;RP1=0, select bank0
  3965  0D43  00EC               	movwf	___flmul@temp+1
  3966  0D44  0870               	movf	?__Umul8_16,w
  3967  0D45  00EB               	movwf	___flmul@temp
  3968  0D46                     l2586:	
  3969  0D46  086B               	movf	___flmul@temp,w
  3970  0D47  00DB               	movwf	??___flmul
  3971  0D48  01DC               	clrf	??___flmul+1
  3972  0D49  01DD               	clrf	??___flmul+2
  3973  0D4A  01DE               	clrf	??___flmul+3
  3974  0D4B  085B               	movf	??___flmul,w
  3975  0D4C  07E1               	addwf	___flmul@grs,f
  3976  0D4D  085C               	movf	??___flmul+1,w
  3977  0D4E  1103               	clrz
  3978  0D4F  1803               	skipnc
  3979  0D50  3E01               	addlw	1
  3980  0D51  1903               	skipnz
  3981  0D52  2D54               	goto	u2841
  3982  0D53  07E2               	addwf	___flmul@grs+1,f
  3983  0D54                     u2841:	
  3984  0D54  085D               	movf	??___flmul+2,w
  3985  0D55  1103               	clrz
  3986  0D56  1803               	skipnc
  3987  0D57  3E01               	addlw	1
  3988  0D58  1903               	skipnz
  3989  0D59  2D5B               	goto	u2842
  3990  0D5A  07E3               	addwf	___flmul@grs+2,f
  3991  0D5B                     u2842:	
  3992  0D5B  085E               	movf	??___flmul+3,w
  3993  0D5C  1103               	clrz
  3994  0D5D  1803               	skipnc
  3995  0D5E  3E01               	addlw	1
  3996  0D5F  1903               	skipnz
  3997  0D60  2D62               	goto	u2843
  3998  0D61  07E4               	addwf	___flmul@grs+3,f
  3999  0D62                     u2843:	
  4000  0D62                     l2588:	
  4001  0D62  086C               	movf	___flmul@temp+1,w
  4002  0D63  00DB               	movwf	??___flmul
  4003  0D64  01DC               	clrf	??___flmul+1
  4004  0D65  01DD               	clrf	??___flmul+2
  4005  0D66  01DE               	clrf	??___flmul+3
  4006  0D67  085B               	movf	??___flmul,w
  4007  0D68  07E7               	addwf	___flmul@prod,f
  4008  0D69  085C               	movf	??___flmul+1,w
  4009  0D6A  1103               	clrz
  4010  0D6B  1803               	skipnc
  4011  0D6C  3E01               	addlw	1
  4012  0D6D  1903               	skipnz
  4013  0D6E  2D70               	goto	u2851
  4014  0D6F  07E8               	addwf	___flmul@prod+1,f
  4015  0D70                     u2851:	
  4016  0D70  085D               	movf	??___flmul+2,w
  4017  0D71  1103               	clrz
  4018  0D72  1803               	skipnc
  4019  0D73  3E01               	addlw	1
  4020  0D74  1903               	skipnz
  4021  0D75  2D77               	goto	u2852
  4022  0D76  07E9               	addwf	___flmul@prod+2,f
  4023  0D77                     u2852:	
  4024  0D77  085E               	movf	??___flmul+3,w
  4025  0D78  1103               	clrz
  4026  0D79  1803               	skipnc
  4027  0D7A  3E01               	addlw	1
  4028  0D7B  1903               	skipnz
  4029  0D7C  2D7E               	goto	u2853
  4030  0D7D  07EA               	addwf	___flmul@prod+3,f
  4031  0D7E                     u2853:	
  4032  0D7E  0855               	movf	___flmul@b+2,w
  4033  0D7F  00DB               	movwf	??___flmul
  4034  0D80  085B               	movf	??___flmul,w
  4035  0D81  00F0               	movwf	__Umul8_16@multiplicand
  4036  0D82  0857               	movf	___flmul@a,w
  4037  0D83  160A  118A  21E0  120A  158A  	fcall	__Umul8_16
  4038  0D88  0871               	movf	?__Umul8_16+1,w
  4039  0D89  1283               	bcf	3,5	;RP0=0, select bank0
  4040  0D8A  1303               	bcf	3,6	;RP1=0, select bank0
  4041  0D8B  00EC               	movwf	___flmul@temp+1
  4042  0D8C  0870               	movf	?__Umul8_16,w
  4043  0D8D  00EB               	movwf	___flmul@temp
  4044  0D8E                     l2590:	
  4045  0D8E  086B               	movf	___flmul@temp,w
  4046  0D8F  00DB               	movwf	??___flmul
  4047  0D90  01DC               	clrf	??___flmul+1
  4048  0D91  01DD               	clrf	??___flmul+2
  4049  0D92  01DE               	clrf	??___flmul+3
  4050  0D93  085B               	movf	??___flmul,w
  4051  0D94  07E1               	addwf	___flmul@grs,f
  4052  0D95  085C               	movf	??___flmul+1,w
  4053  0D96  1103               	clrz
  4054  0D97  1803               	skipnc
  4055  0D98  3E01               	addlw	1
  4056  0D99  1903               	skipnz
  4057  0D9A  2D9C               	goto	u2861
  4058  0D9B  07E2               	addwf	___flmul@grs+1,f
  4059  0D9C                     u2861:	
  4060  0D9C  085D               	movf	??___flmul+2,w
  4061  0D9D  1103               	clrz
  4062  0D9E  1803               	skipnc
  4063  0D9F  3E01               	addlw	1
  4064  0DA0  1903               	skipnz
  4065  0DA1  2DA3               	goto	u2862
  4066  0DA2  07E3               	addwf	___flmul@grs+2,f
  4067  0DA3                     u2862:	
  4068  0DA3  085E               	movf	??___flmul+3,w
  4069  0DA4  1103               	clrz
  4070  0DA5  1803               	skipnc
  4071  0DA6  3E01               	addlw	1
  4072  0DA7  1903               	skipnz
  4073  0DA8  2DAA               	goto	u2863
  4074  0DA9  07E4               	addwf	___flmul@grs+3,f
  4075  0DAA                     u2863:	
  4076  0DAA                     l2592:	
  4077  0DAA  086C               	movf	___flmul@temp+1,w
  4078  0DAB  00DB               	movwf	??___flmul
  4079  0DAC  01DC               	clrf	??___flmul+1
  4080  0DAD  01DD               	clrf	??___flmul+2
  4081  0DAE  01DE               	clrf	??___flmul+3
  4082  0DAF  085B               	movf	??___flmul,w
  4083  0DB0  07E7               	addwf	___flmul@prod,f
  4084  0DB1  085C               	movf	??___flmul+1,w
  4085  0DB2  1103               	clrz
  4086  0DB3  1803               	skipnc
  4087  0DB4  3E01               	addlw	1
  4088  0DB5  1903               	skipnz
  4089  0DB6  2DB8               	goto	u2871
  4090  0DB7  07E8               	addwf	___flmul@prod+1,f
  4091  0DB8                     u2871:	
  4092  0DB8  085D               	movf	??___flmul+2,w
  4093  0DB9  1103               	clrz
  4094  0DBA  1803               	skipnc
  4095  0DBB  3E01               	addlw	1
  4096  0DBC  1903               	skipnz
  4097  0DBD  2DBF               	goto	u2872
  4098  0DBE  07E9               	addwf	___flmul@prod+2,f
  4099  0DBF                     u2872:	
  4100  0DBF  085E               	movf	??___flmul+3,w
  4101  0DC0  1103               	clrz
  4102  0DC1  1803               	skipnc
  4103  0DC2  3E01               	addlw	1
  4104  0DC3  1903               	skipnz
  4105  0DC4  2DC6               	goto	u2873
  4106  0DC5  07EA               	addwf	___flmul@prod+3,f
  4107  0DC6                     u2873:	
  4108  0DC6                     l2594:	
  4109  0DC6  3008               	movlw	8
  4110  0DC7  00DB               	movwf	??___flmul
  4111  0DC8                     u2885:	
  4112  0DC8  1003               	clrc
  4113  0DC9  0DE1               	rlf	___flmul@grs,f
  4114  0DCA  0DE2               	rlf	___flmul@grs+1,f
  4115  0DCB  0DE3               	rlf	___flmul@grs+2,f
  4116  0DCC  0DE4               	rlf	___flmul@grs+3,f
  4117  0DCD  0BDB               	decfsz	??___flmul,f
  4118  0DCE  2DC8               	goto	u2885
  4119  0DCF                     l2596:	
  4120  0DCF  0854               	movf	___flmul@b+1,w
  4121  0DD0  00DB               	movwf	??___flmul
  4122  0DD1  085B               	movf	??___flmul,w
  4123  0DD2  00F0               	movwf	__Umul8_16@multiplicand
  4124  0DD3  0857               	movf	___flmul@a,w
  4125  0DD4  160A  118A  21E0  120A  158A  	fcall	__Umul8_16
  4126  0DD9  0871               	movf	?__Umul8_16+1,w
  4127  0DDA  1283               	bcf	3,5	;RP0=0, select bank0
  4128  0DDB  1303               	bcf	3,6	;RP1=0, select bank0
  4129  0DDC  00EC               	movwf	___flmul@temp+1
  4130  0DDD  0870               	movf	?__Umul8_16,w
  4131  0DDE  00EB               	movwf	___flmul@temp
  4132  0DDF                     l2598:	
  4133  0DDF  086B               	movf	___flmul@temp,w
  4134  0DE0  00DB               	movwf	??___flmul
  4135  0DE1  086C               	movf	___flmul@temp+1,w
  4136  0DE2  00DC               	movwf	??___flmul+1
  4137  0DE3  01DD               	clrf	??___flmul+2
  4138  0DE4  01DE               	clrf	??___flmul+3
  4139  0DE5  085B               	movf	??___flmul,w
  4140  0DE6  07E1               	addwf	___flmul@grs,f
  4141  0DE7  085C               	movf	??___flmul+1,w
  4142  0DE8  1103               	clrz
  4143  0DE9  1803               	skipnc
  4144  0DEA  3E01               	addlw	1
  4145  0DEB  1903               	skipnz
  4146  0DEC  2DEE               	goto	u2891
  4147  0DED  07E2               	addwf	___flmul@grs+1,f
  4148  0DEE                     u2891:	
  4149  0DEE  085D               	movf	??___flmul+2,w
  4150  0DEF  1103               	clrz
  4151  0DF0  1803               	skipnc
  4152  0DF1  3E01               	addlw	1
  4153  0DF2  1903               	skipnz
  4154  0DF3  2DF5               	goto	u2892
  4155  0DF4  07E3               	addwf	___flmul@grs+2,f
  4156  0DF5                     u2892:	
  4157  0DF5  085E               	movf	??___flmul+3,w
  4158  0DF6  1103               	clrz
  4159  0DF7  1803               	skipnc
  4160  0DF8  3E01               	addlw	1
  4161  0DF9  1903               	skipnz
  4162  0DFA  2DFC               	goto	u2893
  4163  0DFB  07E4               	addwf	___flmul@grs+3,f
  4164  0DFC                     u2893:	
  4165  0DFC                     l2600:	
  4166  0DFC  0853               	movf	___flmul@b,w
  4167  0DFD  00DB               	movwf	??___flmul
  4168  0DFE  085B               	movf	??___flmul,w
  4169  0DFF  00F0               	movwf	__Umul8_16@multiplicand
  4170  0E00  0858               	movf	___flmul@a+1,w
  4171  0E01  160A  118A  21E0  120A  158A  	fcall	__Umul8_16
  4172  0E06  0871               	movf	?__Umul8_16+1,w
  4173  0E07  1283               	bcf	3,5	;RP0=0, select bank0
  4174  0E08  1303               	bcf	3,6	;RP1=0, select bank0
  4175  0E09  00EC               	movwf	___flmul@temp+1
  4176  0E0A  0870               	movf	?__Umul8_16,w
  4177  0E0B  00EB               	movwf	___flmul@temp
  4178  0E0C                     l2602:	
  4179  0E0C  086B               	movf	___flmul@temp,w
  4180  0E0D  00DB               	movwf	??___flmul
  4181  0E0E  086C               	movf	___flmul@temp+1,w
  4182  0E0F  00DC               	movwf	??___flmul+1
  4183  0E10  01DD               	clrf	??___flmul+2
  4184  0E11  01DE               	clrf	??___flmul+3
  4185  0E12  085B               	movf	??___flmul,w
  4186  0E13  07E1               	addwf	___flmul@grs,f
  4187  0E14  085C               	movf	??___flmul+1,w
  4188  0E15  1103               	clrz
  4189  0E16  1803               	skipnc
  4190  0E17  3E01               	addlw	1
  4191  0E18  1903               	skipnz
  4192  0E19  2E1B               	goto	u2901
  4193  0E1A  07E2               	addwf	___flmul@grs+1,f
  4194  0E1B                     u2901:	
  4195  0E1B  085D               	movf	??___flmul+2,w
  4196  0E1C  1103               	clrz
  4197  0E1D  1803               	skipnc
  4198  0E1E  3E01               	addlw	1
  4199  0E1F  1903               	skipnz
  4200  0E20  2E22               	goto	u2902
  4201  0E21  07E3               	addwf	___flmul@grs+2,f
  4202  0E22                     u2902:	
  4203  0E22  085E               	movf	??___flmul+3,w
  4204  0E23  1103               	clrz
  4205  0E24  1803               	skipnc
  4206  0E25  3E01               	addlw	1
  4207  0E26  1903               	skipnz
  4208  0E27  2E29               	goto	u2903
  4209  0E28  07E4               	addwf	___flmul@grs+3,f
  4210  0E29                     u2903:	
  4211  0E29                     l2604:	
  4212  0E29  3008               	movlw	8
  4213  0E2A  00DB               	movwf	??___flmul
  4214  0E2B                     u2915:	
  4215  0E2B  1003               	clrc
  4216  0E2C  0DE1               	rlf	___flmul@grs,f
  4217  0E2D  0DE2               	rlf	___flmul@grs+1,f
  4218  0E2E  0DE3               	rlf	___flmul@grs+2,f
  4219  0E2F  0DE4               	rlf	___flmul@grs+3,f
  4220  0E30  0BDB               	decfsz	??___flmul,f
  4221  0E31  2E2B               	goto	u2915
  4222  0E32  0853               	movf	___flmul@b,w
  4223  0E33  00DB               	movwf	??___flmul
  4224  0E34  085B               	movf	??___flmul,w
  4225  0E35  00F0               	movwf	__Umul8_16@multiplicand
  4226  0E36  0857               	movf	___flmul@a,w
  4227  0E37  160A  118A  21E0  120A  158A  	fcall	__Umul8_16
  4228  0E3C  0871               	movf	?__Umul8_16+1,w
  4229  0E3D  1283               	bcf	3,5	;RP0=0, select bank0
  4230  0E3E  1303               	bcf	3,6	;RP1=0, select bank0
  4231  0E3F  00EC               	movwf	___flmul@temp+1
  4232  0E40  0870               	movf	?__Umul8_16,w
  4233  0E41  00EB               	movwf	___flmul@temp
  4234  0E42                     l2606:	
  4235  0E42  086B               	movf	___flmul@temp,w
  4236  0E43  00DB               	movwf	??___flmul
  4237  0E44  086C               	movf	___flmul@temp+1,w
  4238  0E45  00DC               	movwf	??___flmul+1
  4239  0E46  01DD               	clrf	??___flmul+2
  4240  0E47  01DE               	clrf	??___flmul+3
  4241  0E48  085B               	movf	??___flmul,w
  4242  0E49  07E1               	addwf	___flmul@grs,f
  4243  0E4A  085C               	movf	??___flmul+1,w
  4244  0E4B  1103               	clrz
  4245  0E4C  1803               	skipnc
  4246  0E4D  3E01               	addlw	1
  4247  0E4E  1903               	skipnz
  4248  0E4F  2E51               	goto	u2921
  4249  0E50  07E2               	addwf	___flmul@grs+1,f
  4250  0E51                     u2921:	
  4251  0E51  085D               	movf	??___flmul+2,w
  4252  0E52  1103               	clrz
  4253  0E53  1803               	skipnc
  4254  0E54  3E01               	addlw	1
  4255  0E55  1903               	skipnz
  4256  0E56  2E58               	goto	u2922
  4257  0E57  07E3               	addwf	___flmul@grs+2,f
  4258  0E58                     u2922:	
  4259  0E58  085E               	movf	??___flmul+3,w
  4260  0E59  1103               	clrz
  4261  0E5A  1803               	skipnc
  4262  0E5B  3E01               	addlw	1
  4263  0E5C  1903               	skipnz
  4264  0E5D  2E5F               	goto	u2923
  4265  0E5E  07E4               	addwf	___flmul@grs+3,f
  4266  0E5F                     u2923:	
  4267  0E5F                     l2608:	
  4268  0E5F  0854               	movf	___flmul@b+1,w
  4269  0E60  00DB               	movwf	??___flmul
  4270  0E61  085B               	movf	??___flmul,w
  4271  0E62  00F0               	movwf	__Umul8_16@multiplicand
  4272  0E63  0859               	movf	___flmul@a+2,w
  4273  0E64  160A  118A  21E0  120A  158A  	fcall	__Umul8_16
  4274  0E69  0871               	movf	?__Umul8_16+1,w
  4275  0E6A  1283               	bcf	3,5	;RP0=0, select bank0
  4276  0E6B  1303               	bcf	3,6	;RP1=0, select bank0
  4277  0E6C  00EC               	movwf	___flmul@temp+1
  4278  0E6D  0870               	movf	?__Umul8_16,w
  4279  0E6E  00EB               	movwf	___flmul@temp
  4280  0E6F  086B               	movf	___flmul@temp,w
  4281  0E70  00DB               	movwf	??___flmul
  4282  0E71  086C               	movf	___flmul@temp+1,w
  4283  0E72  00DC               	movwf	??___flmul+1
  4284  0E73  01DD               	clrf	??___flmul+2
  4285  0E74  01DE               	clrf	??___flmul+3
  4286  0E75  085B               	movf	??___flmul,w
  4287  0E76  07E7               	addwf	___flmul@prod,f
  4288  0E77  085C               	movf	??___flmul+1,w
  4289  0E78  1103               	clrz
  4290  0E79  1803               	skipnc
  4291  0E7A  3E01               	addlw	1
  4292  0E7B  1903               	skipnz
  4293  0E7C  2E7E               	goto	u2931
  4294  0E7D  07E8               	addwf	___flmul@prod+1,f
  4295  0E7E                     u2931:	
  4296  0E7E  085D               	movf	??___flmul+2,w
  4297  0E7F  1103               	clrz
  4298  0E80  1803               	skipnc
  4299  0E81  3E01               	addlw	1
  4300  0E82  1903               	skipnz
  4301  0E83  2E85               	goto	u2932
  4302  0E84  07E9               	addwf	___flmul@prod+2,f
  4303  0E85                     u2932:	
  4304  0E85  085E               	movf	??___flmul+3,w
  4305  0E86  1103               	clrz
  4306  0E87  1803               	skipnc
  4307  0E88  3E01               	addlw	1
  4308  0E89  1903               	skipnz
  4309  0E8A  2E8C               	goto	u2933
  4310  0E8B  07EA               	addwf	___flmul@prod+3,f
  4311  0E8C                     u2933:	
  4312  0E8C                     l2610:	
  4313  0E8C  0855               	movf	___flmul@b+2,w
  4314  0E8D  00DB               	movwf	??___flmul
  4315  0E8E  085B               	movf	??___flmul,w
  4316  0E8F  00F0               	movwf	__Umul8_16@multiplicand
  4317  0E90  0858               	movf	___flmul@a+1,w
  4318  0E91  160A  118A  21E0  120A  158A  	fcall	__Umul8_16
  4319  0E96  0871               	movf	?__Umul8_16+1,w
  4320  0E97  1283               	bcf	3,5	;RP0=0, select bank0
  4321  0E98  1303               	bcf	3,6	;RP1=0, select bank0
  4322  0E99  00EC               	movwf	___flmul@temp+1
  4323  0E9A  0870               	movf	?__Umul8_16,w
  4324  0E9B  00EB               	movwf	___flmul@temp
  4325  0E9C                     l2612:	
  4326  0E9C  086B               	movf	___flmul@temp,w
  4327  0E9D  00DB               	movwf	??___flmul
  4328  0E9E  086C               	movf	___flmul@temp+1,w
  4329  0E9F  00DC               	movwf	??___flmul+1
  4330  0EA0  01DD               	clrf	??___flmul+2
  4331  0EA1  01DE               	clrf	??___flmul+3
  4332  0EA2  085B               	movf	??___flmul,w
  4333  0EA3  07E7               	addwf	___flmul@prod,f
  4334  0EA4  085C               	movf	??___flmul+1,w
  4335  0EA5  1103               	clrz
  4336  0EA6  1803               	skipnc
  4337  0EA7  3E01               	addlw	1
  4338  0EA8  1903               	skipnz
  4339  0EA9  2EAB               	goto	u2941
  4340  0EAA  07E8               	addwf	___flmul@prod+1,f
  4341  0EAB                     u2941:	
  4342  0EAB  085D               	movf	??___flmul+2,w
  4343  0EAC  1103               	clrz
  4344  0EAD  1803               	skipnc
  4345  0EAE  3E01               	addlw	1
  4346  0EAF  1903               	skipnz
  4347  0EB0  2EB2               	goto	u2942
  4348  0EB1  07E9               	addwf	___flmul@prod+2,f
  4349  0EB2                     u2942:	
  4350  0EB2  085E               	movf	??___flmul+3,w
  4351  0EB3  1103               	clrz
  4352  0EB4  1803               	skipnc
  4353  0EB5  3E01               	addlw	1
  4354  0EB6  1903               	skipnz
  4355  0EB7  2EB9               	goto	u2943
  4356  0EB8  07EA               	addwf	___flmul@prod+3,f
  4357  0EB9                     u2943:	
  4358  0EB9  0855               	movf	___flmul@b+2,w
  4359  0EBA  00DB               	movwf	??___flmul
  4360  0EBB  085B               	movf	??___flmul,w
  4361  0EBC  00F0               	movwf	__Umul8_16@multiplicand
  4362  0EBD  0859               	movf	___flmul@a+2,w
  4363  0EBE  160A  118A  21E0  120A  158A  	fcall	__Umul8_16
  4364  0EC3  0871               	movf	?__Umul8_16+1,w
  4365  0EC4  1283               	bcf	3,5	;RP0=0, select bank0
  4366  0EC5  1303               	bcf	3,6	;RP1=0, select bank0
  4367  0EC6  00EC               	movwf	___flmul@temp+1
  4368  0EC7  0870               	movf	?__Umul8_16,w
  4369  0EC8  00EB               	movwf	___flmul@temp
  4370  0EC9                     l2614:	
  4371  0EC9  086B               	movf	___flmul@temp,w
  4372  0ECA  00DB               	movwf	??___flmul
  4373  0ECB  086C               	movf	___flmul@temp+1,w
  4374  0ECC  00DC               	movwf	??___flmul+1
  4375  0ECD  01DD               	clrf	??___flmul+2
  4376  0ECE  01DE               	clrf	??___flmul+3
  4377  0ECF  3008               	movlw	8
  4378  0ED0                     u2955:	
  4379  0ED0  1003               	clrc
  4380  0ED1  0DDB               	rlf	??___flmul,f
  4381  0ED2  0DDC               	rlf	??___flmul+1,f
  4382  0ED3  0DDD               	rlf	??___flmul+2,f
  4383  0ED4  0DDE               	rlf	??___flmul+3,f
  4384  0ED5                     u2950:	
  4385  0ED5  3EFF               	addlw	-1
  4386  0ED6  1D03               	skipz
  4387  0ED7  2ED0               	goto	u2955
  4388  0ED8  085B               	movf	??___flmul,w
  4389  0ED9  07E7               	addwf	___flmul@prod,f
  4390  0EDA  085C               	movf	??___flmul+1,w
  4391  0EDB  1103               	clrz
  4392  0EDC  1803               	skipnc
  4393  0EDD  3E01               	addlw	1
  4394  0EDE  1903               	skipnz
  4395  0EDF  2EE1               	goto	u2961
  4396  0EE0  07E8               	addwf	___flmul@prod+1,f
  4397  0EE1                     u2961:	
  4398  0EE1  085D               	movf	??___flmul+2,w
  4399  0EE2  1103               	clrz
  4400  0EE3  1803               	skipnc
  4401  0EE4  3E01               	addlw	1
  4402  0EE5  1903               	skipnz
  4403  0EE6  2EE8               	goto	u2962
  4404  0EE7  07E9               	addwf	___flmul@prod+2,f
  4405  0EE8                     u2962:	
  4406  0EE8  085E               	movf	??___flmul+3,w
  4407  0EE9  1103               	clrz
  4408  0EEA  1803               	skipnc
  4409  0EEB  3E01               	addlw	1
  4410  0EEC  1903               	skipnz
  4411  0EED  2EEF               	goto	u2963
  4412  0EEE  07EA               	addwf	___flmul@prod+3,f
  4413  0EEF                     u2963:	
  4414  0EEF                     l2616:	
  4415  0EEF  0861               	movf	___flmul@grs,w
  4416  0EF0  00DB               	movwf	??___flmul
  4417  0EF1  0862               	movf	___flmul@grs+1,w
  4418  0EF2  00DC               	movwf	??___flmul+1
  4419  0EF3  0863               	movf	___flmul@grs+2,w
  4420  0EF4  00DD               	movwf	??___flmul+2
  4421  0EF5  0864               	movf	___flmul@grs+3,w
  4422  0EF6  00DE               	movwf	??___flmul+3
  4423  0EF7  3018               	movlw	24
  4424  0EF8                     u2975:	
  4425  0EF8  1003               	clrc
  4426  0EF9  0CDE               	rrf	??___flmul+3,f
  4427  0EFA  0CDD               	rrf	??___flmul+2,f
  4428  0EFB  0CDC               	rrf	??___flmul+1,f
  4429  0EFC  0CDB               	rrf	??___flmul,f
  4430  0EFD                     u2970:	
  4431  0EFD  3EFF               	addlw	-1
  4432  0EFE  1D03               	skipz
  4433  0EFF  2EF8               	goto	u2975
  4434  0F00  085B               	movf	??___flmul,w
  4435  0F01  07E7               	addwf	___flmul@prod,f
  4436  0F02  085C               	movf	??___flmul+1,w
  4437  0F03  1103               	clrz
  4438  0F04  1803               	skipnc
  4439  0F05  3E01               	addlw	1
  4440  0F06  1903               	skipnz
  4441  0F07  2F09               	goto	u2981
  4442  0F08  07E8               	addwf	___flmul@prod+1,f
  4443  0F09                     u2981:	
  4444  0F09  085D               	movf	??___flmul+2,w
  4445  0F0A  1103               	clrz
  4446  0F0B  1803               	skipnc
  4447  0F0C  3E01               	addlw	1
  4448  0F0D  1903               	skipnz
  4449  0F0E  2F10               	goto	u2982
  4450  0F0F  07E9               	addwf	___flmul@prod+2,f
  4451  0F10                     u2982:	
  4452  0F10  085E               	movf	??___flmul+3,w
  4453  0F11  1103               	clrz
  4454  0F12  1803               	skipnc
  4455  0F13  3E01               	addlw	1
  4456  0F14  1903               	skipnz
  4457  0F15  2F17               	goto	u2983
  4458  0F16  07EA               	addwf	___flmul@prod+3,f
  4459  0F17                     u2983:	
  4460  0F17                     l2618:	
  4461  0F17  3008               	movlw	8
  4462  0F18  00DB               	movwf	??___flmul
  4463  0F19                     u2995:	
  4464  0F19  1003               	clrc
  4465  0F1A  0DE1               	rlf	___flmul@grs,f
  4466  0F1B  0DE2               	rlf	___flmul@grs+1,f
  4467  0F1C  0DE3               	rlf	___flmul@grs+2,f
  4468  0F1D  0DE4               	rlf	___flmul@grs+3,f
  4469  0F1E  0BDB               	decfsz	??___flmul,f
  4470  0F1F  2F19               	goto	u2995
  4471  0F20                     l2620:	
  4472  0F20  0866               	movf	___flmul@bexp,w
  4473  0F21  0765               	addwf	___flmul@aexp,w
  4474  0F22  00DB               	movwf	??___flmul
  4475  0F23  01DC               	clrf	??___flmul+1
  4476  0F24  0DDC               	rlf	??___flmul+1,f
  4477  0F25  085B               	movf	??___flmul,w
  4478  0F26  3E82               	addlw	130
  4479  0F27  00EB               	movwf	___flmul@temp
  4480  0F28  085C               	movf	??___flmul+1,w
  4481  0F29  1803               	skipnc
  4482  0F2A  3E01               	addlw	1
  4483  0F2B  3EFF               	addlw	255
  4484  0F2C  00EC               	movwf	___flmul@temp+1
  4485  0F2D  2F4B               	goto	l2632
  4486  0F2E                     l2622:	
  4487  0F2E  3001               	movlw	1
  4488  0F2F  00DB               	movwf	??___flmul
  4489  0F30                     u3005:	
  4490  0F30  1003               	clrc
  4491  0F31  0DE7               	rlf	___flmul@prod,f
  4492  0F32  0DE8               	rlf	___flmul@prod+1,f
  4493  0F33  0DE9               	rlf	___flmul@prod+2,f
  4494  0F34  0DEA               	rlf	___flmul@prod+3,f
  4495  0F35  0BDB               	decfsz	??___flmul,f
  4496  0F36  2F30               	goto	u3005
  4497  0F37                     l2624:	
  4498  0F37  1FE4               	btfss	___flmul@grs+3,7
  4499  0F38  2F3A               	goto	u3011
  4500  0F39  2F3B               	goto	u3010
  4501  0F3A                     u3011:	
  4502  0F3A  2F3C               	goto	l2628
  4503  0F3B                     u3010:	
  4504  0F3B                     l2626:	
  4505  0F3B  1467               	bsf	___flmul@prod,0
  4506  0F3C                     l2628:	
  4507  0F3C  3001               	movlw	1
  4508  0F3D  00DB               	movwf	??___flmul
  4509  0F3E                     u3025:	
  4510  0F3E  1003               	clrc
  4511  0F3F  0DE1               	rlf	___flmul@grs,f
  4512  0F40  0DE2               	rlf	___flmul@grs+1,f
  4513  0F41  0DE3               	rlf	___flmul@grs+2,f
  4514  0F42  0DE4               	rlf	___flmul@grs+3,f
  4515  0F43  0BDB               	decfsz	??___flmul,f
  4516  0F44  2F3E               	goto	u3025
  4517  0F45                     l2630:	
  4518  0F45  30FF               	movlw	255
  4519  0F46  07EB               	addwf	___flmul@temp,f
  4520  0F47  1803               	skipnc
  4521  0F48  0AEC               	incf	___flmul@temp+1,f
  4522  0F49  30FF               	movlw	255
  4523  0F4A  07EC               	addwf	___flmul@temp+1,f
  4524  0F4B                     l2632:	
  4525  0F4B  1FE9               	btfss	___flmul@prod+2,7
  4526  0F4C  2F4E               	goto	u3031
  4527  0F4D  2F4F               	goto	u3030
  4528  0F4E                     u3031:	
  4529  0F4E  2F2E               	goto	l2622
  4530  0F4F                     u3030:	
  4531  0F4F                     l2634:	
  4532  0F4F  01E5               	clrf	___flmul@aexp
  4533  0F50                     l2636:	
  4534  0F50  1FE4               	btfss	___flmul@grs+3,7
  4535  0F51  2F53               	goto	u3041
  4536  0F52  2F54               	goto	u3040
  4537  0F53                     u3041:	
  4538  0F53  2F70               	goto	l2644
  4539  0F54                     u3040:	
  4540  0F54                     l2638:	
  4541  0F54  30FF               	movlw	255
  4542  0F55  0561               	andwf	___flmul@grs,w
  4543  0F56  00DB               	movwf	??___flmul
  4544  0F57  30FF               	movlw	255
  4545  0F58  0562               	andwf	___flmul@grs+1,w
  4546  0F59  00DC               	movwf	??___flmul+1
  4547  0F5A  30FF               	movlw	255
  4548  0F5B  0563               	andwf	___flmul@grs+2,w
  4549  0F5C  00DD               	movwf	??___flmul+2
  4550  0F5D  307F               	movlw	127
  4551  0F5E  0564               	andwf	___flmul@grs+3,w
  4552  0F5F  00DE               	movwf	??___flmul+3
  4553  0F60  085E               	movf	??___flmul+3,w
  4554  0F61  045D               	iorwf	??___flmul+2,w
  4555  0F62  045C               	iorwf	??___flmul+1,w
  4556  0F63  045B               	iorwf	??___flmul,w
  4557  0F64  1903               	skipnz
  4558  0F65  2F67               	goto	u3051
  4559  0F66  2F68               	goto	u3050
  4560  0F67                     u3051:	
  4561  0F67  2F6B               	goto	l783
  4562  0F68                     u3050:	
  4563  0F68                     l2640:	
  4564  0F68  01E5               	clrf	___flmul@aexp
  4565  0F69  0AE5               	incf	___flmul@aexp,f
  4566  0F6A  2F70               	goto	l2644
  4567  0F6B                     l783:	
  4568  0F6B  1C67               	btfss	___flmul@prod,0
  4569  0F6C  2F6E               	goto	u3061
  4570  0F6D  2F6F               	goto	u3060
  4571  0F6E                     u3061:	
  4572  0F6E  2F70               	goto	l2644
  4573  0F6F                     u3060:	
  4574  0F6F  2F68               	goto	l2640
  4575  0F70                     l2644:	
  4576  0F70  0865               	movf	___flmul@aexp,w
  4577  0F71  1903               	btfsc	3,2
  4578  0F72  2F74               	goto	u3071
  4579  0F73  2F75               	goto	u3070
  4580  0F74                     u3071:	
  4581  0F74  2FA6               	goto	l2654
  4582  0F75                     u3070:	
  4583  0F75                     l2646:	
  4584  0F75  3001               	movlw	1
  4585  0F76  07E7               	addwf	___flmul@prod,f
  4586  0F77  3000               	movlw	0
  4587  0F78  1803               	skipnc
  4588  0F79  3001               	movlw	1
  4589  0F7A  07E8               	addwf	___flmul@prod+1,f
  4590  0F7B  3000               	movlw	0
  4591  0F7C  1803               	skipnc
  4592  0F7D  3001               	movlw	1
  4593  0F7E  07E9               	addwf	___flmul@prod+2,f
  4594  0F7F  3000               	movlw	0
  4595  0F80  1803               	skipnc
  4596  0F81  3001               	movlw	1
  4597  0F82  07EA               	addwf	___flmul@prod+3,f
  4598  0F83                     l2648:	
  4599  0F83  1C6A               	btfss	___flmul@prod+3,0
  4600  0F84  2F86               	goto	u3081
  4601  0F85  2F87               	goto	u3080
  4602  0F86                     u3081:	
  4603  0F86  2FA6               	goto	l2654
  4604  0F87                     u3080:	
  4605  0F87                     l2650:	
  4606  0F87  0867               	movf	___flmul@prod,w
  4607  0F88  00DB               	movwf	??___flmul
  4608  0F89  0868               	movf	___flmul@prod+1,w
  4609  0F8A  00DC               	movwf	??___flmul+1
  4610  0F8B  0869               	movf	___flmul@prod+2,w
  4611  0F8C  00DD               	movwf	??___flmul+2
  4612  0F8D  086A               	movf	___flmul@prod+3,w
  4613  0F8E  00DE               	movwf	??___flmul+3
  4614  0F8F  3001               	movlw	1
  4615  0F90  00DF               	movwf	??___flmul+4
  4616  0F91                     u3095:	
  4617  0F91  0D5E               	rlf	??___flmul+3,w
  4618  0F92  0CDE               	rrf	??___flmul+3,f
  4619  0F93  0CDD               	rrf	??___flmul+2,f
  4620  0F94  0CDC               	rrf	??___flmul+1,f
  4621  0F95  0CDB               	rrf	??___flmul,f
  4622  0F96                     u3090:	
  4623  0F96  0BDF               	decfsz	??___flmul+4,f
  4624  0F97  2F91               	goto	u3095
  4625  0F98  085E               	movf	??___flmul+3,w
  4626  0F99  00EA               	movwf	___flmul@prod+3
  4627  0F9A  085D               	movf	??___flmul+2,w
  4628  0F9B  00E9               	movwf	___flmul@prod+2
  4629  0F9C  085C               	movf	??___flmul+1,w
  4630  0F9D  00E8               	movwf	___flmul@prod+1
  4631  0F9E  085B               	movf	??___flmul,w
  4632  0F9F  00E7               	movwf	___flmul@prod
  4633  0FA0                     l2652:	
  4634  0FA0  3001               	movlw	1
  4635  0FA1  07EB               	addwf	___flmul@temp,f
  4636  0FA2  1803               	skipnc
  4637  0FA3  0AEC               	incf	___flmul@temp+1,f
  4638  0FA4  3000               	movlw	0
  4639  0FA5  07EC               	addwf	___flmul@temp+1,f
  4640  0FA6                     l2654:	
  4641  0FA6  086C               	movf	___flmul@temp+1,w
  4642  0FA7  3A80               	xorlw	128
  4643  0FA8  00FF               	movwf	btemp+1
  4644  0FA9  3080               	movlw	128
  4645  0FAA  027F               	subwf	btemp+1,w
  4646  0FAB  1D03               	skipz
  4647  0FAC  2FAF               	goto	u3105
  4648  0FAD  30FF               	movlw	255
  4649  0FAE  026B               	subwf	___flmul@temp,w
  4650  0FAF                     u3105:	
  4651  0FAF  1C03               	skipc
  4652  0FB0  2FB2               	goto	u3101
  4653  0FB1  2FB3               	goto	u3100
  4654  0FB2                     u3101:	
  4655  0FB2  2FBE               	goto	l2658
  4656  0FB3                     u3100:	
  4657  0FB3                     l2656:	
  4658  0FB3  307F               	movlw	127
  4659  0FB4  1283               	bcf	3,5	;RP0=0, select bank0
  4660  0FB5  1303               	bcf	3,6	;RP1=0, select bank0
  4661  0FB6  00EA               	movwf	___flmul@prod+3
  4662  0FB7  3080               	movlw	128
  4663  0FB8  00E9               	movwf	___flmul@prod+2
  4664  0FB9  3000               	movlw	0
  4665  0FBA  00E8               	movwf	___flmul@prod+1
  4666  0FBB  3000               	movlw	0
  4667  0FBC  00E7               	movwf	___flmul@prod
  4668  0FBD  2FF3               	goto	l789
  4669  0FBE                     l2658:	
  4670  0FBE  1283               	bcf	3,5	;RP0=0, select bank0
  4671  0FBF  1303               	bcf	3,6	;RP1=0, select bank0
  4672  0FC0  086C               	movf	___flmul@temp+1,w
  4673  0FC1  3A80               	xorlw	128
  4674  0FC2  00FF               	movwf	btemp+1
  4675  0FC3  3080               	movlw	128
  4676  0FC4  027F               	subwf	btemp+1,w
  4677  0FC5  1D03               	skipz
  4678  0FC6  2FC9               	goto	u3115
  4679  0FC7  3001               	movlw	1
  4680  0FC8  026B               	subwf	___flmul@temp,w
  4681  0FC9                     u3115:	
  4682  0FC9  1803               	skipnc
  4683  0FCA  2FCC               	goto	u3111
  4684  0FCB  2FCD               	goto	u3110
  4685  0FCC                     u3111:	
  4686  0FCC  2FD9               	goto	l2664
  4687  0FCD                     u3110:	
  4688  0FCD                     l2660:	
  4689  0FCD  3000               	movlw	0
  4690  0FCE  1283               	bcf	3,5	;RP0=0, select bank0
  4691  0FCF  1303               	bcf	3,6	;RP1=0, select bank0
  4692  0FD0  00EA               	movwf	___flmul@prod+3
  4693  0FD1  3000               	movlw	0
  4694  0FD2  00E9               	movwf	___flmul@prod+2
  4695  0FD3  3000               	movlw	0
  4696  0FD4  00E8               	movwf	___flmul@prod+1
  4697  0FD5  3000               	movlw	0
  4698  0FD6  00E7               	movwf	___flmul@prod
  4699  0FD7                     l2662:	
  4700  0FD7  01E0               	clrf	___flmul@sign
  4701  0FD8  2FF3               	goto	l789
  4702  0FD9                     l2664:	
  4703  0FD9  1283               	bcf	3,5	;RP0=0, select bank0
  4704  0FDA  1303               	bcf	3,6	;RP1=0, select bank0
  4705  0FDB  086B               	movf	___flmul@temp,w
  4706  0FDC  00DB               	movwf	??___flmul
  4707  0FDD  085B               	movf	??___flmul,w
  4708  0FDE  00E6               	movwf	___flmul@bexp
  4709  0FDF  30FF               	movlw	255
  4710  0FE0  05E7               	andwf	___flmul@prod,f
  4711  0FE1  30FF               	movlw	255
  4712  0FE2  05E8               	andwf	___flmul@prod+1,f
  4713  0FE3  307F               	movlw	127
  4714  0FE4  05E9               	andwf	___flmul@prod+2,f
  4715  0FE5  3000               	movlw	0
  4716  0FE6  05EA               	andwf	___flmul@prod+3,f
  4717  0FE7                     l2666:	
  4718  0FE7  1C66               	btfss	___flmul@bexp,0
  4719  0FE8  2FEA               	goto	u3121
  4720  0FE9  2FEB               	goto	u3120
  4721  0FEA                     u3121:	
  4722  0FEA  2FEC               	goto	l2670
  4723  0FEB                     u3120:	
  4724  0FEB                     l2668:	
  4725  0FEB  17E9               	bsf	___flmul@prod+2,7
  4726  0FEC                     l2670:	
  4727  0FEC  0866               	movf	___flmul@bexp,w
  4728  0FED  00DB               	movwf	??___flmul
  4729  0FEE  1003               	clrc
  4730  0FEF  0C5B               	rrf	??___flmul,w
  4731  0FF0  00DC               	movwf	??___flmul+1
  4732  0FF1  085C               	movf	??___flmul+1,w
  4733  0FF2  00EA               	movwf	___flmul@prod+3
  4734  0FF3                     l789:	
  4735  0FF3  0860               	movf	___flmul@sign,w
  4736  0FF4  00DB               	movwf	??___flmul
  4737  0FF5  085B               	movf	??___flmul,w
  4738  0FF6  04EA               	iorwf	___flmul@prod+3,f
  4739  0FF7                     l2672:	
  4740  0FF7  086A               	movf	___flmul@prod+3,w
  4741  0FF8  00D6               	movwf	?___flmul+3
  4742  0FF9  0869               	movf	___flmul@prod+2,w
  4743  0FFA  00D5               	movwf	?___flmul+2
  4744  0FFB  0868               	movf	___flmul@prod+1,w
  4745  0FFC  00D4               	movwf	?___flmul+1
  4746  0FFD  0867               	movf	___flmul@prod,w
  4747  0FFE  00D3               	movwf	?___flmul
  4748  0FFF                     l777:	
  4749  0FFF  0008               	return
  4750  1000                     __end_of___flmul:	
  4751                           
  4752                           	psect	text6
  4753  11E0                     __ptext6:	
  4754 ;; *************** function __Umul8_16 *****************
  4755 ;; Defined at:
  4756 ;;		line 4 in file "C:\Program Files (x86)\Microchip\xc8\v2.10\pic\sources\c90\common\Umul8_16.c"
  4757 ;; Parameters:    Size  Location     Type
  4758 ;;  multiplier      1    wreg     unsigned char 
  4759 ;;  multiplicand    1    0[COMMON] unsigned char 
  4760 ;; Auto vars:     Size  Location     Type
  4761 ;;  multiplier      1    8[COMMON] unsigned char 
  4762 ;;  word_mpld       2    6[COMMON] unsigned int 
  4763 ;;  product         2    4[COMMON] unsigned int 
  4764 ;; Return value:  Size  Location     Type
  4765 ;;                  2    0[COMMON] unsigned int 
  4766 ;; Registers used:
  4767 ;;		wreg, status,2, status,0
  4768 ;; Tracked objects:
  4769 ;;		On entry : 0/0
  4770 ;;		On exit  : 0/0
  4771 ;;		Unchanged: 0/0
  4772 ;; Data sizes:     COMMON   BANK0   BANK1   BANK3   BANK2
  4773 ;;      Params:         2       0       0       0       0
  4774 ;;      Locals:         5       0       0       0       0
  4775 ;;      Temps:          2       0       0       0       0
  4776 ;;      Totals:         9       0       0       0       0
  4777 ;;Total ram usage:        9 bytes
  4778 ;; Hardware stack levels used:    1
  4779 ;; This function calls:
  4780 ;;		Nothing
  4781 ;; This function is called by:
  4782 ;;		___flmul
  4783 ;; This function uses a non-reentrant model
  4784 ;;
  4785                           
  4786                           
  4787                           ;psect for function __Umul8_16
  4788  11E0                     __Umul8_16:	
  4789                           
  4790                           ;incstack = 0
  4791                           ; Regs used in __Umul8_16: [wreg+status,2+status,0]
  4792                           ;__Umul8_16@multiplier stored from wreg
  4793  11E0  00F8               	movwf	__Umul8_16@multiplier
  4794  11E1                     l2266:	
  4795  11E1  01F4               	clrf	__Umul8_16@product
  4796  11E2  01F5               	clrf	__Umul8_16@product+1
  4797  11E3                     l2268:	
  4798  11E3  0870               	movf	__Umul8_16@multiplicand,w
  4799  11E4  00F2               	movwf	??__Umul8_16
  4800  11E5  01F3               	clrf	??__Umul8_16+1
  4801  11E6  0872               	movf	??__Umul8_16,w
  4802  11E7  00F6               	movwf	__Umul8_16@word_mpld
  4803  11E8  0873               	movf	??__Umul8_16+1,w
  4804  11E9  00F7               	movwf	__Umul8_16@word_mpld+1
  4805  11EA                     l2270:	
  4806  11EA  1C78               	btfss	__Umul8_16@multiplier,0
  4807  11EB  29ED               	goto	u2161
  4808  11EC  29EE               	goto	u2160
  4809  11ED                     u2161:	
  4810  11ED  29F4               	goto	l850
  4811  11EE                     u2160:	
  4812  11EE                     l2272:	
  4813  11EE  0876               	movf	__Umul8_16@word_mpld,w
  4814  11EF  07F4               	addwf	__Umul8_16@product,f
  4815  11F0  1803               	skipnc
  4816  11F1  0AF5               	incf	__Umul8_16@product+1,f
  4817  11F2  0877               	movf	__Umul8_16@word_mpld+1,w
  4818  11F3  07F5               	addwf	__Umul8_16@product+1,f
  4819  11F4                     l850:	
  4820  11F4  3001               	movlw	1
  4821  11F5                     u2175:	
  4822  11F5  1003               	clrc
  4823  11F6  0DF6               	rlf	__Umul8_16@word_mpld,f
  4824  11F7  0DF7               	rlf	__Umul8_16@word_mpld+1,f
  4825  11F8  3EFF               	addlw	-1
  4826  11F9  1D03               	skipz
  4827  11FA  29F5               	goto	u2175
  4828  11FB  1003               	clrc
  4829  11FC  0CF8               	rrf	__Umul8_16@multiplier,f
  4830  11FD                     l2274:	
  4831  11FD  0878               	movf	__Umul8_16@multiplier,w
  4832  11FE  1D03               	btfss	3,2
  4833  11FF  2A01               	goto	u2181
  4834  1200  2A02               	goto	u2180
  4835  1201                     u2181:	
  4836  1201  29EA               	goto	l2270
  4837  1202                     u2180:	
  4838  1202                     l2276:	
  4839  1202  0875               	movf	__Umul8_16@product+1,w
  4840  1203  00F1               	movwf	?__Umul8_16+1
  4841  1204  0874               	movf	__Umul8_16@product,w
  4842  1205  00F0               	movwf	?__Umul8_16
  4843  1206                     l852:	
  4844  1206  0008               	return
  4845  1207                     __end_of__Umul8_16:	
  4846                           
  4847                           	psect	text7
  4848  0A17                     __ptext7:	
  4849 ;; *************** function ___fladd *****************
  4850 ;; Defined at:
  4851 ;;		line 10 in file "C:\Program Files (x86)\Microchip\xc8\v2.10\pic\sources\c90\common\sprcadd.c"
  4852 ;; Parameters:    Size  Location     Type
  4853 ;;  b               4   31[BANK0 ] unsigned int 
  4854 ;;  a               4   35[BANK0 ] unsigned int 
  4855 ;; Auto vars:     Size  Location     Type
  4856 ;;  grs             1   50[BANK0 ] unsigned char 
  4857 ;;  bexp            1   49[BANK0 ] unsigned char 
  4858 ;;  aexp            1   48[BANK0 ] unsigned char 
  4859 ;;  signs           1   47[BANK0 ] unsigned char 
  4860 ;; Return value:  Size  Location     Type
  4861 ;;                  4   31[BANK0 ] unsigned char 
  4862 ;; Registers used:
  4863 ;;		wreg, status,2, status,0, btemp+1
  4864 ;; Tracked objects:
  4865 ;;		On entry : 0/0
  4866 ;;		On exit  : 0/0
  4867 ;;		Unchanged: 0/0
  4868 ;; Data sizes:     COMMON   BANK0   BANK1   BANK3   BANK2
  4869 ;;      Params:         0       8       0       0       0
  4870 ;;      Locals:         0       4       0       0       0
  4871 ;;      Temps:          0       8       0       0       0
  4872 ;;      Totals:         0      20       0       0       0
  4873 ;;Total ram usage:       20 bytes
  4874 ;; Hardware stack levels used:    1
  4875 ;; This function calls:
  4876 ;;		Nothing
  4877 ;; This function is called by:
  4878 ;;		_main
  4879 ;;		_log
  4880 ;;		_eval_poly
  4881 ;; This function uses a non-reentrant model
  4882 ;;
  4883                           
  4884                           
  4885                           ;psect for function ___fladd
  4886  0A17                     ___fladd:	
  4887  0A17                     l2342:	
  4888                           ;incstack = 0
  4889                           ; Regs used in ___fladd: [wreg+status,2+status,0+btemp+1]
  4890                           
  4891  0A17  1283               	bcf	3,5	;RP0=0, select bank0
  4892  0A18  1303               	bcf	3,6	;RP1=0, select bank0
  4893  0A19  0842               	movf	___fladd@b+3,w
  4894  0A1A  3980               	andlw	128
  4895  0A1B  00C7               	movwf	??___fladd
  4896  0A1C  0847               	movf	??___fladd,w
  4897  0A1D  00CF               	movwf	___fladd@signs
  4898  0A1E                     l2344:	
  4899  0A1E  0842               	movf	___fladd@b+3,w
  4900  0A1F  00C7               	movwf	??___fladd
  4901  0A20  0747               	addwf	??___fladd,w
  4902  0A21  00C8               	movwf	??___fladd+1
  4903  0A22  0848               	movf	??___fladd+1,w
  4904  0A23  00D1               	movwf	___fladd@bexp
  4905  0A24                     l2346:	
  4906  0A24  1FC1               	btfss	___fladd@b+2,7
  4907  0A25  2A27               	goto	u2301
  4908  0A26  2A28               	goto	u2300
  4909  0A27                     u2301:	
  4910  0A27  2A29               	goto	l2350
  4911  0A28                     u2300:	
  4912  0A28                     l2348:	
  4913  0A28  1451               	bsf	___fladd@bexp,0
  4914  0A29                     l2350:	
  4915  0A29  0851               	movf	___fladd@bexp,w
  4916  0A2A  1903               	btfsc	3,2
  4917  0A2B  2A2D               	goto	u2311
  4918  0A2C  2A2E               	goto	u2310
  4919  0A2D                     u2311:	
  4920  0A2D  2A3E               	goto	l2360
  4921  0A2E                     u2310:	
  4922  0A2E                     l2352:	
  4923  0A2E  0A51               	incf	___fladd@bexp,w
  4924  0A2F  1D03               	btfss	3,2
  4925  0A30  2A32               	goto	u2321
  4926  0A31  2A33               	goto	u2320
  4927  0A32                     u2321:	
  4928  0A32  2A3B               	goto	l2356
  4929  0A33                     u2320:	
  4930  0A33                     l2354:	
  4931  0A33  3000               	movlw	0
  4932  0A34  00C2               	movwf	___fladd@b+3
  4933  0A35  3000               	movlw	0
  4934  0A36  00C1               	movwf	___fladd@b+2
  4935  0A37  3000               	movlw	0
  4936  0A38  00C0               	movwf	___fladd@b+1
  4937  0A39  3000               	movlw	0
  4938  0A3A  00BF               	movwf	___fladd@b
  4939  0A3B                     l2356:	
  4940  0A3B  17C1               	bsf	___fladd@b+2,7
  4941  0A3C                     l2358:	
  4942  0A3C  01C2               	clrf	___fladd@b+3
  4943  0A3D  2A46               	goto	l2362
  4944  0A3E                     l2360:	
  4945  0A3E  3000               	movlw	0
  4946  0A3F  00C2               	movwf	___fladd@b+3
  4947  0A40  3000               	movlw	0
  4948  0A41  00C1               	movwf	___fladd@b+2
  4949  0A42  3000               	movlw	0
  4950  0A43  00C0               	movwf	___fladd@b+1
  4951  0A44  3000               	movlw	0
  4952  0A45  00BF               	movwf	___fladd@b
  4953  0A46                     l2362:	
  4954  0A46  0846               	movf	___fladd@a+3,w
  4955  0A47  3980               	andlw	128
  4956  0A48  00C7               	movwf	??___fladd
  4957  0A49  0847               	movf	??___fladd,w
  4958  0A4A  00D0               	movwf	___fladd@aexp
  4959  0A4B                     l2364:	
  4960  0A4B  0850               	movf	___fladd@aexp,w
  4961  0A4C  064F               	xorwf	___fladd@signs,w
  4962  0A4D  1903               	skipnz
  4963  0A4E  2A50               	goto	u2331
  4964  0A4F  2A51               	goto	u2330
  4965  0A50                     u2331:	
  4966  0A50  2A52               	goto	l2368
  4967  0A51                     u2330:	
  4968  0A51                     l2366:	
  4969  0A51  174F               	bsf	___fladd@signs,6
  4970  0A52                     l2368:	
  4971  0A52  0846               	movf	___fladd@a+3,w
  4972  0A53  00C7               	movwf	??___fladd
  4973  0A54  0747               	addwf	??___fladd,w
  4974  0A55  00C8               	movwf	??___fladd+1
  4975  0A56  0848               	movf	??___fladd+1,w
  4976  0A57  00D0               	movwf	___fladd@aexp
  4977  0A58                     l2370:	
  4978  0A58  1FC5               	btfss	___fladd@a+2,7
  4979  0A59  2A5B               	goto	u2341
  4980  0A5A  2A5C               	goto	u2340
  4981  0A5B                     u2341:	
  4982  0A5B  2A5D               	goto	l2374
  4983  0A5C                     u2340:	
  4984  0A5C                     l2372:	
  4985  0A5C  1450               	bsf	___fladd@aexp,0
  4986  0A5D                     l2374:	
  4987  0A5D  0850               	movf	___fladd@aexp,w
  4988  0A5E  1903               	btfsc	3,2
  4989  0A5F  2A61               	goto	u2351
  4990  0A60  2A62               	goto	u2350
  4991  0A61                     u2351:	
  4992  0A61  2A72               	goto	l2384
  4993  0A62                     u2350:	
  4994  0A62                     l2376:	
  4995  0A62  0A50               	incf	___fladd@aexp,w
  4996  0A63  1D03               	btfss	3,2
  4997  0A64  2A66               	goto	u2361
  4998  0A65  2A67               	goto	u2360
  4999  0A66                     u2361:	
  5000  0A66  2A6F               	goto	l2380
  5001  0A67                     u2360:	
  5002  0A67                     l2378:	
  5003  0A67  3000               	movlw	0
  5004  0A68  00C6               	movwf	___fladd@a+3
  5005  0A69  3000               	movlw	0
  5006  0A6A  00C5               	movwf	___fladd@a+2
  5007  0A6B  3000               	movlw	0
  5008  0A6C  00C4               	movwf	___fladd@a+1
  5009  0A6D  3000               	movlw	0
  5010  0A6E  00C3               	movwf	___fladd@a
  5011  0A6F                     l2380:	
  5012  0A6F  17C5               	bsf	___fladd@a+2,7
  5013  0A70                     l2382:	
  5014  0A70  01C6               	clrf	___fladd@a+3
  5015  0A71  2A7A               	goto	l681
  5016  0A72                     l2384:	
  5017  0A72  3000               	movlw	0
  5018  0A73  00C6               	movwf	___fladd@a+3
  5019  0A74  3000               	movlw	0
  5020  0A75  00C5               	movwf	___fladd@a+2
  5021  0A76  3000               	movlw	0
  5022  0A77  00C4               	movwf	___fladd@a+1
  5023  0A78  3000               	movlw	0
  5024  0A79  00C3               	movwf	___fladd@a
  5025  0A7A                     l681:	
  5026  0A7A  0851               	movf	___fladd@bexp,w
  5027  0A7B  0250               	subwf	___fladd@aexp,w
  5028  0A7C  1803               	skipnc
  5029  0A7D  2A7F               	goto	u2371
  5030  0A7E  2A80               	goto	u2370
  5031  0A7F                     u2371:	
  5032  0A7F  2AC4               	goto	l2420
  5033  0A80                     u2370:	
  5034  0A80                     l2386:	
  5035  0A80  1F4F               	btfss	___fladd@signs,6
  5036  0A81  2A83               	goto	u2381
  5037  0A82  2A84               	goto	u2380
  5038  0A83                     u2381:	
  5039  0A83  2A88               	goto	l2390
  5040  0A84                     u2380:	
  5041  0A84                     l2388:	
  5042  0A84  3080               	movlw	128
  5043  0A85  00C7               	movwf	??___fladd
  5044  0A86  0847               	movf	??___fladd,w
  5045  0A87  06CF               	xorwf	___fladd@signs,f
  5046  0A88                     l2390:	
  5047  0A88  0851               	movf	___fladd@bexp,w
  5048  0A89  00C7               	movwf	??___fladd
  5049  0A8A  0847               	movf	??___fladd,w
  5050  0A8B  00D2               	movwf	___fladd@grs
  5051  0A8C                     l2392:	
  5052  0A8C  0850               	movf	___fladd@aexp,w
  5053  0A8D  00C7               	movwf	??___fladd
  5054  0A8E  0847               	movf	??___fladd,w
  5055  0A8F  00D1               	movwf	___fladd@bexp
  5056  0A90                     l2394:	
  5057  0A90  0852               	movf	___fladd@grs,w
  5058  0A91  00C7               	movwf	??___fladd
  5059  0A92  0847               	movf	??___fladd,w
  5060  0A93  00D0               	movwf	___fladd@aexp
  5061  0A94                     l2396:	
  5062  0A94  083F               	movf	___fladd@b,w
  5063  0A95  00C7               	movwf	??___fladd
  5064  0A96  0847               	movf	??___fladd,w
  5065  0A97  00D2               	movwf	___fladd@grs
  5066  0A98                     l2398:	
  5067  0A98  0843               	movf	___fladd@a,w
  5068  0A99  00C7               	movwf	??___fladd
  5069  0A9A  0847               	movf	??___fladd,w
  5070  0A9B  00BF               	movwf	___fladd@b
  5071  0A9C                     l2400:	
  5072  0A9C  0852               	movf	___fladd@grs,w
  5073  0A9D  00C7               	movwf	??___fladd
  5074  0A9E  0847               	movf	??___fladd,w
  5075  0A9F  00C3               	movwf	___fladd@a
  5076  0AA0                     l2402:	
  5077  0AA0  0840               	movf	___fladd@b+1,w
  5078  0AA1  00C7               	movwf	??___fladd
  5079  0AA2  0847               	movf	??___fladd,w
  5080  0AA3  00D2               	movwf	___fladd@grs
  5081  0AA4                     l2404:	
  5082  0AA4  0844               	movf	___fladd@a+1,w
  5083  0AA5  00C7               	movwf	??___fladd
  5084  0AA6  0847               	movf	??___fladd,w
  5085  0AA7  00C0               	movwf	___fladd@b+1
  5086  0AA8                     l2406:	
  5087  0AA8  0852               	movf	___fladd@grs,w
  5088  0AA9  00C7               	movwf	??___fladd
  5089  0AAA  0847               	movf	??___fladd,w
  5090  0AAB  00C4               	movwf	___fladd@a+1
  5091  0AAC                     l2408:	
  5092  0AAC  0841               	movf	___fladd@b+2,w
  5093  0AAD  00C7               	movwf	??___fladd
  5094  0AAE  0847               	movf	??___fladd,w
  5095  0AAF  00D2               	movwf	___fladd@grs
  5096  0AB0                     l2410:	
  5097  0AB0  0845               	movf	___fladd@a+2,w
  5098  0AB1  00C7               	movwf	??___fladd
  5099  0AB2  0847               	movf	??___fladd,w
  5100  0AB3  00C1               	movwf	___fladd@b+2
  5101  0AB4                     l2412:	
  5102  0AB4  0852               	movf	___fladd@grs,w
  5103  0AB5  00C7               	movwf	??___fladd
  5104  0AB6  0847               	movf	??___fladd,w
  5105  0AB7  00C5               	movwf	___fladd@a+2
  5106  0AB8                     l2414:	
  5107  0AB8  0842               	movf	___fladd@b+3,w
  5108  0AB9  00C7               	movwf	??___fladd
  5109  0ABA  0847               	movf	??___fladd,w
  5110  0ABB  00D2               	movwf	___fladd@grs
  5111  0ABC                     l2416:	
  5112  0ABC  0846               	movf	___fladd@a+3,w
  5113  0ABD  00C7               	movwf	??___fladd
  5114  0ABE  0847               	movf	??___fladd,w
  5115  0ABF  00C2               	movwf	___fladd@b+3
  5116  0AC0                     l2418:	
  5117  0AC0  0852               	movf	___fladd@grs,w
  5118  0AC1  00C7               	movwf	??___fladd
  5119  0AC2  0847               	movf	??___fladd,w
  5120  0AC3  00C6               	movwf	___fladd@a+3
  5121  0AC4                     l2420:	
  5122  0AC4  01D2               	clrf	___fladd@grs
  5123  0AC5                     l2422:	
  5124  0AC5  0850               	movf	___fladd@aexp,w
  5125  0AC6  00C7               	movwf	??___fladd
  5126  0AC7  01C8               	clrf	??___fladd+1
  5127  0AC8  0848               	movf	??___fladd+1,w
  5128  0AC9  00CA               	movwf	??___fladd+3
  5129  0ACA  0851               	movf	___fladd@bexp,w
  5130  0ACB  0247               	subwf	??___fladd,w
  5131  0ACC  00C9               	movwf	??___fladd+2
  5132  0ACD  1C03               	skipc
  5133  0ACE  03CA               	decf	??___fladd+3,f
  5134  0ACF  084A               	movf	??___fladd+3,w
  5135  0AD0  3A80               	xorlw	128
  5136  0AD1  00FF               	movwf	btemp+1
  5137  0AD2  3080               	movlw	128
  5138  0AD3  027F               	subwf	btemp+1,w
  5139  0AD4  1D03               	skipz
  5140  0AD5  2AD8               	goto	u2395
  5141  0AD6  301A               	movlw	26
  5142  0AD7  0249               	subwf	??___fladd+2,w
  5143  0AD8                     u2395:	
  5144  0AD8  1C03               	skipc
  5145  0AD9  2ADB               	goto	u2391
  5146  0ADA  2ADC               	goto	u2390
  5147  0ADB                     u2391:	
  5148  0ADB  2B19               	goto	l2438
  5149  0ADC                     u2390:	
  5150  0ADC                     l2424:	
  5151  0ADC  1283               	bcf	3,5	;RP0=0, select bank0
  5152  0ADD  1303               	bcf	3,6	;RP1=0, select bank0
  5153  0ADE  0842               	movf	___fladd@b+3,w
  5154  0ADF  0441               	iorwf	___fladd@b+2,w
  5155  0AE0  0440               	iorwf	___fladd@b+1,w
  5156  0AE1  043F               	iorwf	___fladd@b,w
  5157  0AE2  1D03               	skipz
  5158  0AE3  2AE5               	goto	u2401
  5159  0AE4  2AE7               	goto	u2400
  5160  0AE5                     u2401:	
  5161  0AE5  3001               	movlw	1
  5162  0AE6  2AE8               	goto	u2410
  5163  0AE7                     u2400:	
  5164  0AE7  3000               	movlw	0
  5165  0AE8                     u2410:	
  5166  0AE8  00C7               	movwf	??___fladd
  5167  0AE9  0847               	movf	??___fladd,w
  5168  0AEA  00D2               	movwf	___fladd@grs
  5169  0AEB  3000               	movlw	0
  5170  0AEC  00C2               	movwf	___fladd@b+3
  5171  0AED  3000               	movlw	0
  5172  0AEE  00C1               	movwf	___fladd@b+2
  5173  0AEF  3000               	movlw	0
  5174  0AF0  00C0               	movwf	___fladd@b+1
  5175  0AF1  3000               	movlw	0
  5176  0AF2  00BF               	movwf	___fladd@b
  5177  0AF3  0850               	movf	___fladd@aexp,w
  5178  0AF4  00C7               	movwf	??___fladd
  5179  0AF5  0847               	movf	??___fladd,w
  5180  0AF6  00D1               	movwf	___fladd@bexp
  5181  0AF7  2B21               	goto	l685
  5182  0AF8                     l687:	
  5183  0AF8  1C52               	btfss	___fladd@grs,0
  5184  0AF9  2AFB               	goto	u2421
  5185  0AFA  2AFC               	goto	u2420
  5186  0AFB                     u2421:	
  5187  0AFB  2B05               	goto	l2428
  5188  0AFC                     u2420:	
  5189  0AFC                     l2426:	
  5190  0AFC  0852               	movf	___fladd@grs,w
  5191  0AFD  00C7               	movwf	??___fladd
  5192  0AFE  1003               	clrc
  5193  0AFF  0C47               	rrf	??___fladd,w
  5194  0B00  3801               	iorlw	1
  5195  0B01  00C8               	movwf	??___fladd+1
  5196  0B02  0848               	movf	??___fladd+1,w
  5197  0B03  00D2               	movwf	___fladd@grs
  5198  0B04  2B07               	goto	l2430
  5199  0B05                     l2428:	
  5200  0B05  1003               	clrc
  5201  0B06  0CD2               	rrf	___fladd@grs,f
  5202  0B07                     l2430:	
  5203  0B07  1C3F               	btfss	___fladd@b,0
  5204  0B08  2B0A               	goto	u2431
  5205  0B09  2B0B               	goto	u2430
  5206  0B0A                     u2431:	
  5207  0B0A  2B0C               	goto	l2434
  5208  0B0B                     u2430:	
  5209  0B0B                     l2432:	
  5210  0B0B  17D2               	bsf	___fladd@grs,7
  5211  0B0C                     l2434:	
  5212  0B0C  3001               	movlw	1
  5213  0B0D  00C7               	movwf	??___fladd
  5214  0B0E                     u2445:	
  5215  0B0E  0D42               	rlf	___fladd@b+3,w
  5216  0B0F  0CC2               	rrf	___fladd@b+3,f
  5217  0B10  0CC1               	rrf	___fladd@b+2,f
  5218  0B11  0CC0               	rrf	___fladd@b+1,f
  5219  0B12  0CBF               	rrf	___fladd@b,f
  5220  0B13  0BC7               	decfsz	??___fladd& (0+127),f
  5221  0B14  2B0E               	goto	u2445
  5222  0B15                     l2436:	
  5223  0B15  3001               	movlw	1
  5224  0B16  00C7               	movwf	??___fladd
  5225  0B17  0847               	movf	??___fladd,w
  5226  0B18  07D1               	addwf	___fladd@bexp,f
  5227  0B19                     l2438:	
  5228  0B19  1283               	bcf	3,5	;RP0=0, select bank0
  5229  0B1A  1303               	bcf	3,6	;RP1=0, select bank0
  5230  0B1B  0850               	movf	___fladd@aexp,w
  5231  0B1C  0251               	subwf	___fladd@bexp,w
  5232  0B1D  1C03               	skipc
  5233  0B1E  2B20               	goto	u2451
  5234  0B1F  2B21               	goto	u2450
  5235  0B20                     u2451:	
  5236  0B20  2AF8               	goto	l687
  5237  0B21                     u2450:	
  5238  0B21                     l685:	
  5239  0B21  1B4F               	btfsc	___fladd@signs,6
  5240  0B22  2B24               	goto	u2461
  5241  0B23  2B25               	goto	u2460
  5242  0B24                     u2461:	
  5243  0B24  2B70               	goto	l2464
  5244  0B25                     u2460:	
  5245  0B25                     l2440:	
  5246  0B25  0851               	movf	___fladd@bexp,w
  5247  0B26  1D03               	btfss	3,2
  5248  0B27  2B29               	goto	u2471
  5249  0B28  2B2A               	goto	u2470
  5250  0B29                     u2471:	
  5251  0B29  2B33               	goto	l2446
  5252  0B2A                     u2470:	
  5253  0B2A                     l2442:	
  5254  0B2A  3000               	movlw	0
  5255  0B2B  00C2               	movwf	?___fladd+3
  5256  0B2C  3000               	movlw	0
  5257  0B2D  00C1               	movwf	?___fladd+2
  5258  0B2E  3000               	movlw	0
  5259  0B2F  00C0               	movwf	?___fladd+1
  5260  0B30  3000               	movlw	0
  5261  0B31  00BF               	movwf	?___fladd
  5262  0B32  2C9E               	goto	l694
  5263  0B33                     l2446:	
  5264  0B33  0843               	movf	___fladd@a,w
  5265  0B34  07BF               	addwf	___fladd@b,f
  5266  0B35  0844               	movf	___fladd@a+1,w
  5267  0B36  1103               	clrz
  5268  0B37  1803               	skipnc
  5269  0B38  3E01               	addlw	1
  5270  0B39  1903               	skipnz
  5271  0B3A  2B3C               	goto	u2481
  5272  0B3B  07C0               	addwf	___fladd@b+1,f
  5273  0B3C                     u2481:	
  5274  0B3C  0845               	movf	___fladd@a+2,w
  5275  0B3D  1103               	clrz
  5276  0B3E  1803               	skipnc
  5277  0B3F  3E01               	addlw	1
  5278  0B40  1903               	skipnz
  5279  0B41  2B43               	goto	u2482
  5280  0B42  07C1               	addwf	___fladd@b+2,f
  5281  0B43                     u2482:	
  5282  0B43  0846               	movf	___fladd@a+3,w
  5283  0B44  1103               	clrz
  5284  0B45  1803               	skipnc
  5285  0B46  3E01               	addlw	1
  5286  0B47  1903               	skipnz
  5287  0B48  2B4A               	goto	u2483
  5288  0B49  07C2               	addwf	___fladd@b+3,f
  5289  0B4A                     u2483:	
  5290  0B4A                     l2448:	
  5291  0B4A  1C42               	btfss	___fladd@b+3,0
  5292  0B4B  2B4D               	goto	u2491
  5293  0B4C  2B4E               	goto	u2490
  5294  0B4D                     u2491:	
  5295  0B4D  2C24               	goto	l2498
  5296  0B4E                     u2490:	
  5297  0B4E                     l2450:	
  5298  0B4E  1C52               	btfss	___fladd@grs,0
  5299  0B4F  2B51               	goto	u2501
  5300  0B50  2B52               	goto	u2500
  5301  0B51                     u2501:	
  5302  0B51  2B5B               	goto	l2454
  5303  0B52                     u2500:	
  5304  0B52                     l2452:	
  5305  0B52  0852               	movf	___fladd@grs,w
  5306  0B53  00C7               	movwf	??___fladd
  5307  0B54  1003               	clrc
  5308  0B55  0C47               	rrf	??___fladd,w
  5309  0B56  3801               	iorlw	1
  5310  0B57  00C8               	movwf	??___fladd+1
  5311  0B58  0848               	movf	??___fladd+1,w
  5312  0B59  00D2               	movwf	___fladd@grs
  5313  0B5A  2B5D               	goto	l2456
  5314  0B5B                     l2454:	
  5315  0B5B  1003               	clrc
  5316  0B5C  0CD2               	rrf	___fladd@grs,f
  5317  0B5D                     l2456:	
  5318  0B5D  1C3F               	btfss	___fladd@b,0
  5319  0B5E  2B60               	goto	u2511
  5320  0B5F  2B61               	goto	u2510
  5321  0B60                     u2511:	
  5322  0B60  2B62               	goto	l2460
  5323  0B61                     u2510:	
  5324  0B61                     l2458:	
  5325  0B61  17D2               	bsf	___fladd@grs,7
  5326  0B62                     l2460:	
  5327  0B62  3001               	movlw	1
  5328  0B63  00C7               	movwf	??___fladd
  5329  0B64                     u2525:	
  5330  0B64  0D42               	rlf	___fladd@b+3,w
  5331  0B65  0CC2               	rrf	___fladd@b+3,f
  5332  0B66  0CC1               	rrf	___fladd@b+2,f
  5333  0B67  0CC0               	rrf	___fladd@b+1,f
  5334  0B68  0CBF               	rrf	___fladd@b,f
  5335  0B69  0BC7               	decfsz	??___fladd& (0+127),f
  5336  0B6A  2B64               	goto	u2525
  5337  0B6B                     l2462:	
  5338  0B6B  3001               	movlw	1
  5339  0B6C  00C7               	movwf	??___fladd
  5340  0B6D  0847               	movf	??___fladd,w
  5341  0B6E  07D1               	addwf	___fladd@bexp,f
  5342  0B6F  2C24               	goto	l2498
  5343  0B70                     l2464:	
  5344  0B70  0842               	movf	___fladd@b+3,w
  5345  0B71  3A80               	xorlw	128
  5346  0B72  00FF               	movwf	btemp+1
  5347  0B73  0846               	movf	___fladd@a+3,w
  5348  0B74  3A80               	xorlw	128
  5349  0B75  027F               	subwf	btemp+1,w
  5350  0B76  1D03               	skipz
  5351  0B77  2B82               	goto	u2533
  5352  0B78  0845               	movf	___fladd@a+2,w
  5353  0B79  0241               	subwf	___fladd@b+2,w
  5354  0B7A  1D03               	skipz
  5355  0B7B  2B82               	goto	u2533
  5356  0B7C  0844               	movf	___fladd@a+1,w
  5357  0B7D  0240               	subwf	___fladd@b+1,w
  5358  0B7E  1D03               	skipz
  5359  0B7F  2B82               	goto	u2533
  5360  0B80  0843               	movf	___fladd@a,w
  5361  0B81  023F               	subwf	___fladd@b,w
  5362  0B82                     u2533:	
  5363  0B82  1803               	skipnc
  5364  0B83  2B85               	goto	u2531
  5365  0B84  2B86               	goto	u2530
  5366  0B85                     u2531:	
  5367  0B85  2BDE               	goto	l2474
  5368  0B86                     u2530:	
  5369  0B86                     l2466:	
  5370  0B86  30FF               	movlw	255
  5371  0B87  00C7               	movwf	??___fladd
  5372  0B88  30FF               	movlw	255
  5373  0B89  00C8               	movwf	??___fladd+1
  5374  0B8A  30FF               	movlw	255
  5375  0B8B  00C9               	movwf	??___fladd+2
  5376  0B8C  30FF               	movlw	255
  5377  0B8D  00CA               	movwf	??___fladd+3
  5378  0B8E  0843               	movf	___fladd@a,w
  5379  0B8F  00CB               	movwf	??___fladd+4
  5380  0B90  0844               	movf	___fladd@a+1,w
  5381  0B91  00CC               	movwf	??___fladd+5
  5382  0B92  0845               	movf	___fladd@a+2,w
  5383  0B93  00CD               	movwf	??___fladd+6
  5384  0B94  0846               	movf	___fladd@a+3,w
  5385  0B95  00CE               	movwf	??___fladd+7
  5386  0B96  083F               	movf	___fladd@b,w
  5387  0B97  02CB               	subwf	??___fladd+4,f
  5388  0B98  0840               	movf	___fladd@b+1,w
  5389  0B99  1C03               	skipc
  5390  0B9A  0F40               	incfsz	___fladd@b+1,w
  5391  0B9B  2B9D               	goto	u2541
  5392  0B9C  2B9E               	goto	u2542
  5393  0B9D                     u2541:	
  5394  0B9D  02CC               	subwf	??___fladd+5,f
  5395  0B9E                     u2542:	
  5396  0B9E  0841               	movf	___fladd@b+2,w
  5397  0B9F  1C03               	skipc
  5398  0BA0  0F41               	incfsz	___fladd@b+2,w
  5399  0BA1  2BA3               	goto	u2543
  5400  0BA2  2BA4               	goto	u2544
  5401  0BA3                     u2543:	
  5402  0BA3  02CD               	subwf	??___fladd+6,f
  5403  0BA4                     u2544:	
  5404  0BA4  0842               	movf	___fladd@b+3,w
  5405  0BA5  1C03               	skipc
  5406  0BA6  0F42               	incfsz	___fladd@b+3,w
  5407  0BA7  2BA9               	goto	u2545
  5408  0BA8  2BAA               	goto	u2546
  5409  0BA9                     u2545:	
  5410  0BA9  02CE               	subwf	??___fladd+7,f
  5411  0BAA                     u2546:	
  5412  0BAA  084B               	movf	??___fladd+4,w
  5413  0BAB  07C7               	addwf	??___fladd,f
  5414  0BAC  084C               	movf	??___fladd+5,w
  5415  0BAD  1803               	skipnc
  5416  0BAE  0F4C               	incfsz	??___fladd+5,w
  5417  0BAF  2BB1               	goto	u2550
  5418  0BB0  2BB2               	goto	u2551
  5419  0BB1                     u2550:	
  5420  0BB1  07C8               	addwf	??___fladd+1,f
  5421  0BB2                     u2551:	
  5422  0BB2  084D               	movf	??___fladd+6,w
  5423  0BB3  1803               	skipnc
  5424  0BB4  0F4D               	incfsz	??___fladd+6,w
  5425  0BB5  2BB7               	goto	u2552
  5426  0BB6  2BB8               	goto	u2553
  5427  0BB7                     u2552:	
  5428  0BB7  07C9               	addwf	??___fladd+2,f
  5429  0BB8                     u2553:	
  5430  0BB8  084E               	movf	??___fladd+7,w
  5431  0BB9  1803               	skipnc
  5432  0BBA  0A4E               	incf	??___fladd+7,w
  5433  0BBB  07CA               	addwf	??___fladd+3,f
  5434  0BBC  084A               	movf	??___fladd+3,w
  5435  0BBD  00C2               	movwf	___fladd@b+3
  5436  0BBE  0849               	movf	??___fladd+2,w
  5437  0BBF  00C1               	movwf	___fladd@b+2
  5438  0BC0  0848               	movf	??___fladd+1,w
  5439  0BC1  00C0               	movwf	___fladd@b+1
  5440  0BC2  0847               	movf	??___fladd,w
  5441  0BC3  00BF               	movwf	___fladd@b
  5442  0BC4                     l2468:	
  5443  0BC4  3080               	movlw	128
  5444  0BC5  00C7               	movwf	??___fladd
  5445  0BC6  0847               	movf	??___fladd,w
  5446  0BC7  06CF               	xorwf	___fladd@signs,f
  5447  0BC8  09D2               	comf	___fladd@grs,f
  5448  0BC9  0AD2               	incf	___fladd@grs,f
  5449  0BCA                     l2470:	
  5450  0BCA  0852               	movf	___fladd@grs,w
  5451  0BCB  1D03               	btfss	3,2
  5452  0BCC  2BCE               	goto	u2561
  5453  0BCD  2BCF               	goto	u2560
  5454  0BCE                     u2561:	
  5455  0BCE  2BEC               	goto	l702
  5456  0BCF                     u2560:	
  5457  0BCF                     l2472:	
  5458  0BCF  3001               	movlw	1
  5459  0BD0  07BF               	addwf	___fladd@b,f
  5460  0BD1  3000               	movlw	0
  5461  0BD2  1803               	skipnc
  5462  0BD3  3001               	movlw	1
  5463  0BD4  07C0               	addwf	___fladd@b+1,f
  5464  0BD5  3000               	movlw	0
  5465  0BD6  1803               	skipnc
  5466  0BD7  3001               	movlw	1
  5467  0BD8  07C1               	addwf	___fladd@b+2,f
  5468  0BD9  3000               	movlw	0
  5469  0BDA  1803               	skipnc
  5470  0BDB  3001               	movlw	1
  5471  0BDC  07C2               	addwf	___fladd@b+3,f
  5472  0BDD  2BEC               	goto	l702
  5473  0BDE                     l2474:	
  5474  0BDE  0843               	movf	___fladd@a,w
  5475  0BDF  02BF               	subwf	___fladd@b,f
  5476  0BE0  0844               	movf	___fladd@a+1,w
  5477  0BE1  1C03               	skipc
  5478  0BE2  0F44               	incfsz	___fladd@a+1,w
  5479  0BE3  02C0               	subwf	___fladd@b+1,f
  5480  0BE4  0845               	movf	___fladd@a+2,w
  5481  0BE5  1C03               	skipc
  5482  0BE6  0F45               	incfsz	___fladd@a+2,w
  5483  0BE7  02C1               	subwf	___fladd@b+2,f
  5484  0BE8  0846               	movf	___fladd@a+3,w
  5485  0BE9  1C03               	skipc
  5486  0BEA  0F46               	incfsz	___fladd@a+3,w
  5487  0BEB  02C2               	subwf	___fladd@b+3,f
  5488  0BEC                     l702:	
  5489  0BEC  0842               	movf	___fladd@b+3,w
  5490  0BED  0441               	iorwf	___fladd@b+2,w
  5491  0BEE  0440               	iorwf	___fladd@b+1,w
  5492  0BEF  043F               	iorwf	___fladd@b,w
  5493  0BF0  1D03               	skipz
  5494  0BF1  2BF3               	goto	u2571
  5495  0BF2  2BF4               	goto	u2570
  5496  0BF3                     u2571:	
  5497  0BF3  2C20               	goto	l2496
  5498  0BF4                     u2570:	
  5499  0BF4                     l2476:	
  5500  0BF4  0852               	movf	___fladd@grs,w
  5501  0BF5  1D03               	btfss	3,2
  5502  0BF6  2BF8               	goto	u2581
  5503  0BF7  2BF9               	goto	u2580
  5504  0BF8                     u2581:	
  5505  0BF8  2C20               	goto	l2496
  5506  0BF9                     u2580:	
  5507  0BF9                     l2478:	
  5508  0BF9  3000               	movlw	0
  5509  0BFA  00C2               	movwf	?___fladd+3
  5510  0BFB  3000               	movlw	0
  5511  0BFC  00C1               	movwf	?___fladd+2
  5512  0BFD  3000               	movlw	0
  5513  0BFE  00C0               	movwf	?___fladd+1
  5514  0BFF  3000               	movlw	0
  5515  0C00  00BF               	movwf	?___fladd
  5516  0C01  2C9E               	goto	l694
  5517  0C02                     l2482:	
  5518  0C02  3001               	movlw	1
  5519  0C03  00C7               	movwf	??___fladd
  5520  0C04                     u2595:	
  5521  0C04  1003               	clrc
  5522  0C05  0DBF               	rlf	___fladd@b,f
  5523  0C06  0DC0               	rlf	___fladd@b+1,f
  5524  0C07  0DC1               	rlf	___fladd@b+2,f
  5525  0C08  0DC2               	rlf	___fladd@b+3,f
  5526  0C09  0BC7               	decfsz	??___fladd,f
  5527  0C0A  2C04               	goto	u2595
  5528  0C0B                     l2484:	
  5529  0C0B  1FD2               	btfss	___fladd@grs,7
  5530  0C0C  2C0E               	goto	u2601
  5531  0C0D  2C0F               	goto	u2600
  5532  0C0E                     u2601:	
  5533  0C0E  2C10               	goto	l706
  5534  0C0F                     u2600:	
  5535  0C0F                     l2486:	
  5536  0C0F  143F               	bsf	___fladd@b,0
  5537  0C10                     l706:	
  5538  0C10  1C52               	btfss	___fladd@grs,0
  5539  0C11  2C13               	goto	u2611
  5540  0C12  2C14               	goto	u2610
  5541  0C13                     u2611:	
  5542  0C13  2C17               	goto	l2490
  5543  0C14                     u2610:	
  5544  0C14                     l2488:	
  5545  0C14  1403               	setc
  5546  0C15  0DD2               	rlf	___fladd@grs,f
  5547  0C16  2C19               	goto	l2492
  5548  0C17                     l2490:	
  5549  0C17  1003               	clrc
  5550  0C18  0DD2               	rlf	___fladd@grs,f
  5551  0C19                     l2492:	
  5552  0C19  0851               	movf	___fladd@bexp,w
  5553  0C1A  1903               	btfsc	3,2
  5554  0C1B  2C1D               	goto	u2621
  5555  0C1C  2C1E               	goto	u2620
  5556  0C1D                     u2621:	
  5557  0C1D  2C20               	goto	l2496
  5558  0C1E                     u2620:	
  5559  0C1E                     l2494:	
  5560  0C1E  3001               	movlw	1
  5561  0C1F  02D1               	subwf	___fladd@bexp,f
  5562  0C20                     l2496:	
  5563  0C20  1FC1               	btfss	___fladd@b+2,7
  5564  0C21  2C23               	goto	u2631
  5565  0C22  2C24               	goto	u2630
  5566  0C23                     u2631:	
  5567  0C23  2C02               	goto	l2482
  5568  0C24                     u2630:	
  5569  0C24                     l2498:	
  5570  0C24  01D0               	clrf	___fladd@aexp
  5571  0C25                     l2500:	
  5572  0C25  1FD2               	btfss	___fladd@grs,7
  5573  0C26  2C28               	goto	u2641
  5574  0C27  2C29               	goto	u2640
  5575  0C28                     u2641:	
  5576  0C28  2C37               	goto	l2508
  5577  0C29                     u2640:	
  5578  0C29                     l2502:	
  5579  0C29  0852               	movf	___fladd@grs,w
  5580  0C2A  397F               	andlw	127
  5581  0C2B  1903               	btfsc	3,2
  5582  0C2C  2C2E               	goto	u2651
  5583  0C2D  2C2F               	goto	u2650
  5584  0C2E                     u2651:	
  5585  0C2E  2C32               	goto	l712
  5586  0C2F                     u2650:	
  5587  0C2F                     l2504:	
  5588  0C2F  01D0               	clrf	___fladd@aexp
  5589  0C30  0AD0               	incf	___fladd@aexp,f
  5590  0C31  2C37               	goto	l2508
  5591  0C32                     l712:	
  5592  0C32  1C3F               	btfss	___fladd@b,0
  5593  0C33  2C35               	goto	u2661
  5594  0C34  2C36               	goto	u2660
  5595  0C35                     u2661:	
  5596  0C35  2C37               	goto	l2508
  5597  0C36                     u2660:	
  5598  0C36  2C2F               	goto	l2504
  5599  0C37                     l2508:	
  5600  0C37  0850               	movf	___fladd@aexp,w
  5601  0C38  1903               	btfsc	3,2
  5602  0C39  2C3B               	goto	u2671
  5603  0C3A  2C3C               	goto	u2670
  5604  0C3B                     u2671:	
  5605  0C3B  2C70               	goto	l715
  5606  0C3C                     u2670:	
  5607  0C3C                     l2510:	
  5608  0C3C  3001               	movlw	1
  5609  0C3D  07BF               	addwf	___fladd@b,f
  5610  0C3E  3000               	movlw	0
  5611  0C3F  1803               	skipnc
  5612  0C40  3001               	movlw	1
  5613  0C41  07C0               	addwf	___fladd@b+1,f
  5614  0C42  3000               	movlw	0
  5615  0C43  1803               	skipnc
  5616  0C44  3001               	movlw	1
  5617  0C45  07C1               	addwf	___fladd@b+2,f
  5618  0C46  3000               	movlw	0
  5619  0C47  1803               	skipnc
  5620  0C48  3001               	movlw	1
  5621  0C49  07C2               	addwf	___fladd@b+3,f
  5622  0C4A                     l2512:	
  5623  0C4A  1C42               	btfss	___fladd@b+3,0
  5624  0C4B  2C4D               	goto	u2681
  5625  0C4C  2C4E               	goto	u2680
  5626  0C4D                     u2681:	
  5627  0C4D  2C70               	goto	l715
  5628  0C4E                     u2680:	
  5629  0C4E                     l2514:	
  5630  0C4E  083F               	movf	___fladd@b,w
  5631  0C4F  00C7               	movwf	??___fladd
  5632  0C50  0840               	movf	___fladd@b+1,w
  5633  0C51  00C8               	movwf	??___fladd+1
  5634  0C52  0841               	movf	___fladd@b+2,w
  5635  0C53  00C9               	movwf	??___fladd+2
  5636  0C54  0842               	movf	___fladd@b+3,w
  5637  0C55  00CA               	movwf	??___fladd+3
  5638  0C56  3001               	movlw	1
  5639  0C57  00CB               	movwf	??___fladd+4
  5640  0C58                     u2695:	
  5641  0C58  0D4A               	rlf	??___fladd+3,w
  5642  0C59  0CCA               	rrf	??___fladd+3,f
  5643  0C5A  0CC9               	rrf	??___fladd+2,f
  5644  0C5B  0CC8               	rrf	??___fladd+1,f
  5645  0C5C  0CC7               	rrf	??___fladd,f
  5646  0C5D                     u2690:	
  5647  0C5D  0BCB               	decfsz	??___fladd+4,f
  5648  0C5E  2C58               	goto	u2695
  5649  0C5F  084A               	movf	??___fladd+3,w
  5650  0C60  00C2               	movwf	___fladd@b+3
  5651  0C61  0849               	movf	??___fladd+2,w
  5652  0C62  00C1               	movwf	___fladd@b+2
  5653  0C63  0848               	movf	??___fladd+1,w
  5654  0C64  00C0               	movwf	___fladd@b+1
  5655  0C65  0847               	movf	??___fladd,w
  5656  0C66  00BF               	movwf	___fladd@b
  5657  0C67  0A51               	incf	___fladd@bexp,w
  5658  0C68  1903               	btfsc	3,2
  5659  0C69  2C6B               	goto	u2701
  5660  0C6A  2C6C               	goto	u2700
  5661  0C6B                     u2701:	
  5662  0C6B  2C70               	goto	l715
  5663  0C6C                     u2700:	
  5664  0C6C                     l2516:	
  5665  0C6C  3001               	movlw	1
  5666  0C6D  00C7               	movwf	??___fladd
  5667  0C6E  0847               	movf	??___fladd,w
  5668  0C6F  07D1               	addwf	___fladd@bexp,f
  5669  0C70                     l715:	
  5670  0C70  0A51               	incf	___fladd@bexp,w
  5671  0C71  1903               	btfsc	3,2
  5672  0C72  2C74               	goto	u2711
  5673  0C73  2C75               	goto	u2710
  5674  0C74                     u2711:	
  5675  0C74  2C7A               	goto	l2520
  5676  0C75                     u2710:	
  5677  0C75                     l2518:	
  5678  0C75  0851               	movf	___fladd@bexp,w
  5679  0C76  1D03               	btfss	3,2
  5680  0C77  2C79               	goto	u2721
  5681  0C78  2C7A               	goto	u2720
  5682  0C79                     u2721:	
  5683  0C79  2C88               	goto	l2526
  5684  0C7A                     u2720:	
  5685  0C7A                     l2520:	
  5686  0C7A  3000               	movlw	0
  5687  0C7B  00C2               	movwf	___fladd@b+3
  5688  0C7C  3000               	movlw	0
  5689  0C7D  00C1               	movwf	___fladd@b+2
  5690  0C7E  3000               	movlw	0
  5691  0C7F  00C0               	movwf	___fladd@b+1
  5692  0C80  3000               	movlw	0
  5693  0C81  00BF               	movwf	___fladd@b
  5694  0C82                     l2522:	
  5695  0C82  0851               	movf	___fladd@bexp,w
  5696  0C83  1D03               	btfss	3,2
  5697  0C84  2C86               	goto	u2731
  5698  0C85  2C87               	goto	u2730
  5699  0C86                     u2731:	
  5700  0C86  2C88               	goto	l2526
  5701  0C87                     u2730:	
  5702  0C87                     l2524:	
  5703  0C87  01CF               	clrf	___fladd@signs
  5704  0C88                     l2526:	
  5705  0C88  1C51               	btfss	___fladd@bexp,0
  5706  0C89  2C8B               	goto	u2741
  5707  0C8A  2C8C               	goto	u2740
  5708  0C8B                     u2741:	
  5709  0C8B  2C8E               	goto	l2530
  5710  0C8C                     u2740:	
  5711  0C8C                     l2528:	
  5712  0C8C  17C1               	bsf	___fladd@b+2,7
  5713  0C8D  2C92               	goto	l723
  5714  0C8E                     l2530:	
  5715  0C8E  307F               	movlw	127
  5716  0C8F  00C7               	movwf	??___fladd
  5717  0C90  0847               	movf	??___fladd,w
  5718  0C91  05C1               	andwf	___fladd@b+2,f
  5719  0C92                     l723:	
  5720  0C92  0851               	movf	___fladd@bexp,w
  5721  0C93  00C7               	movwf	??___fladd
  5722  0C94  1003               	clrc
  5723  0C95  0C47               	rrf	??___fladd,w
  5724  0C96  00C8               	movwf	??___fladd+1
  5725  0C97  0848               	movf	??___fladd+1,w
  5726  0C98  00C2               	movwf	___fladd@b+3
  5727  0C99                     l2532:	
  5728  0C99  1FCF               	btfss	___fladd@signs,7
  5729  0C9A  2C9C               	goto	u2751
  5730  0C9B  2C9D               	goto	u2750
  5731  0C9C                     u2751:	
  5732  0C9C  2C9E               	goto	l724
  5733  0C9D                     u2750:	
  5734  0C9D                     l2534:	
  5735  0C9D  17C2               	bsf	___fladd@b+3,7
  5736  0C9E                     l724:	
  5737  0C9E                     l694:	
  5738  0C9E  0008               	return
  5739  0C9F                     __end_of___fladd:	
  5740                           
  5741                           	psect	text8
  5742  0811                     __ptext8:	
  5743 ;; *************** function ___xxtofl *****************
  5744 ;; Defined at:
  5745 ;;		line 10 in file "C:\Program Files (x86)\Microchip\xc8\v2.10\pic\sources\c90\common\xxtofl.c"
  5746 ;; Parameters:    Size  Location     Type
  5747 ;;  sign            1    wreg     unsigned char 
  5748 ;;  val             4    0[COMMON] long 
  5749 ;; Auto vars:     Size  Location     Type
  5750 ;;  sign            1    8[COMMON] unsigned char 
  5751 ;;  arg             4   10[COMMON] unsigned long 
  5752 ;;  exp             1    9[COMMON] unsigned char 
  5753 ;; Return value:  Size  Location     Type
  5754 ;;                  4    0[COMMON] unsigned char 
  5755 ;; Registers used:
  5756 ;;		wreg, status,2, status,0
  5757 ;; Tracked objects:
  5758 ;;		On entry : 0/0
  5759 ;;		On exit  : 0/0
  5760 ;;		Unchanged: 0/0
  5761 ;; Data sizes:     COMMON   BANK0   BANK1   BANK3   BANK2
  5762 ;;      Params:         4       0       0       0       0
  5763 ;;      Locals:         6       0       0       0       0
  5764 ;;      Temps:          4       0       0       0       0
  5765 ;;      Totals:        14       0       0       0       0
  5766 ;;Total ram usage:       14 bytes
  5767 ;; Hardware stack levels used:    1
  5768 ;; This function calls:
  5769 ;;		Nothing
  5770 ;; This function is called by:
  5771 ;;		_main
  5772 ;;		_log
  5773 ;; This function uses a non-reentrant model
  5774 ;;
  5775                           
  5776                           
  5777                           ;psect for function ___xxtofl
  5778  0811                     ___xxtofl:	
  5779                           
  5780                           ;incstack = 0
  5781                           ; Regs used in ___xxtofl: [wreg+status,2+status,0]
  5782                           ;___xxtofl@sign stored from wreg
  5783  0811  00F8               	movwf	___xxtofl@sign
  5784  0812                     l2772:	
  5785  0812  0878               	movf	___xxtofl@sign,w
  5786  0813  1903               	btfsc	3,2
  5787  0814  2816               	goto	u3331
  5788  0815  2817               	goto	u3330
  5789  0816                     u3331:	
  5790  0816  282B               	goto	l2778
  5791  0817                     u3330:	
  5792  0817                     l2774:	
  5793  0817  1FF3               	btfss	___xxtofl@val+3,7
  5794  0818  281A               	goto	u3341
  5795  0819  281B               	goto	u3340
  5796  081A                     u3341:	
  5797  081A  282B               	goto	l2778
  5798  081B                     u3340:	
  5799  081B                     l2776:	
  5800  081B  0970               	comf	___xxtofl@val,w
  5801  081C  00FA               	movwf	___xxtofl@arg
  5802  081D  0971               	comf	___xxtofl@val+1,w
  5803  081E  00FB               	movwf	___xxtofl@arg+1
  5804  081F  0972               	comf	___xxtofl@val+2,w
  5805  0820  00FC               	movwf	___xxtofl@arg+2
  5806  0821  0973               	comf	___xxtofl@val+3,w
  5807  0822  00FD               	movwf	___xxtofl@arg+3
  5808  0823  0AFA               	incf	___xxtofl@arg,f
  5809  0824  1903               	skipnz
  5810  0825  0AFB               	incf	___xxtofl@arg+1,f
  5811  0826  1903               	skipnz
  5812  0827  0AFC               	incf	___xxtofl@arg+2,f
  5813  0828  1903               	skipnz
  5814  0829  0AFD               	incf	___xxtofl@arg+3,f
  5815  082A  2833               	goto	l815
  5816  082B                     l2778:	
  5817  082B  0873               	movf	___xxtofl@val+3,w
  5818  082C  00FD               	movwf	___xxtofl@arg+3
  5819  082D  0872               	movf	___xxtofl@val+2,w
  5820  082E  00FC               	movwf	___xxtofl@arg+2
  5821  082F  0871               	movf	___xxtofl@val+1,w
  5822  0830  00FB               	movwf	___xxtofl@arg+1
  5823  0831  0870               	movf	___xxtofl@val,w
  5824  0832  00FA               	movwf	___xxtofl@arg
  5825  0833                     l815:	
  5826  0833  0873               	movf	___xxtofl@val+3,w
  5827  0834  0472               	iorwf	___xxtofl@val+2,w
  5828  0835  0471               	iorwf	___xxtofl@val+1,w
  5829  0836  0470               	iorwf	___xxtofl@val,w
  5830  0837  1D03               	skipz
  5831  0838  283A               	goto	u3351
  5832  0839  283B               	goto	u3350
  5833  083A                     u3351:	
  5834  083A  2844               	goto	l2784
  5835  083B                     u3350:	
  5836  083B                     l2780:	
  5837  083B  3000               	movlw	0
  5838  083C  00F3               	movwf	?___xxtofl+3
  5839  083D  3000               	movlw	0
  5840  083E  00F2               	movwf	?___xxtofl+2
  5841  083F  3000               	movlw	0
  5842  0840  00F1               	movwf	?___xxtofl+1
  5843  0841  3000               	movlw	0
  5844  0842  00F0               	movwf	?___xxtofl
  5845  0843  28CA               	goto	l817
  5846  0844                     l2784:	
  5847  0844  3096               	movlw	150
  5848  0845  00F4               	movwf	??___xxtofl
  5849  0846  0874               	movf	??___xxtofl,w
  5850  0847  00F9               	movwf	___xxtofl@exp
  5851  0848  2856               	goto	l2788
  5852  0849                     l2786:	
  5853  0849  3001               	movlw	1
  5854  084A  00F4               	movwf	??___xxtofl
  5855  084B  0874               	movf	??___xxtofl,w
  5856  084C  07F9               	addwf	___xxtofl@exp,f
  5857  084D  3001               	movlw	1
  5858  084E                     u3365:	
  5859  084E  1003               	clrc
  5860  084F  0CFD               	rrf	___xxtofl@arg+3,f
  5861  0850  0CFC               	rrf	___xxtofl@arg+2,f
  5862  0851  0CFB               	rrf	___xxtofl@arg+1,f
  5863  0852  0CFA               	rrf	___xxtofl@arg,f
  5864  0853  3EFF               	addlw	-1
  5865  0854  1D03               	skipz
  5866  0855  284E               	goto	u3365
  5867  0856                     l2788:	
  5868  0856  30FE               	movlw	254
  5869  0857  057D               	andwf	___xxtofl@arg+3,w
  5870  0858  1D03               	btfss	3,2
  5871  0859  285B               	goto	u3371
  5872  085A  285C               	goto	u3370
  5873  085B                     u3371:	
  5874  085B  2849               	goto	l2786
  5875  085C                     u3370:	
  5876  085C  2878               	goto	l821
  5877  085D                     l2790:	
  5878  085D  3001               	movlw	1
  5879  085E  00F4               	movwf	??___xxtofl
  5880  085F  0874               	movf	??___xxtofl,w
  5881  0860  07F9               	addwf	___xxtofl@exp,f
  5882  0861                     l2792:	
  5883  0861  3001               	movlw	1
  5884  0862  07FA               	addwf	___xxtofl@arg,f
  5885  0863  3000               	movlw	0
  5886  0864  1803               	skipnc
  5887  0865  3001               	movlw	1
  5888  0866  07FB               	addwf	___xxtofl@arg+1,f
  5889  0867  3000               	movlw	0
  5890  0868  1803               	skipnc
  5891  0869  3001               	movlw	1
  5892  086A  07FC               	addwf	___xxtofl@arg+2,f
  5893  086B  3000               	movlw	0
  5894  086C  1803               	skipnc
  5895  086D  3001               	movlw	1
  5896  086E  07FD               	addwf	___xxtofl@arg+3,f
  5897  086F                     l2794:	
  5898  086F  3001               	movlw	1
  5899  0870                     u3385:	
  5900  0870  1003               	clrc
  5901  0871  0CFD               	rrf	___xxtofl@arg+3,f
  5902  0872  0CFC               	rrf	___xxtofl@arg+2,f
  5903  0873  0CFB               	rrf	___xxtofl@arg+1,f
  5904  0874  0CFA               	rrf	___xxtofl@arg,f
  5905  0875  3EFF               	addlw	-1
  5906  0876  1D03               	skipz
  5907  0877  2870               	goto	u3385
  5908  0878                     l821:	
  5909  0878  30FF               	movlw	255
  5910  0879  057D               	andwf	___xxtofl@arg+3,w
  5911  087A  1D03               	btfss	3,2
  5912  087B  287D               	goto	u3391
  5913  087C  287E               	goto	u3390
  5914  087D                     u3391:	
  5915  087D  285D               	goto	l2790
  5916  087E                     u3390:	
  5917  087E  288A               	goto	l2798
  5918  087F                     l2796:	
  5919  087F  3001               	movlw	1
  5920  0880  02F9               	subwf	___xxtofl@exp,f
  5921  0881  3001               	movlw	1
  5922  0882  00F4               	movwf	??___xxtofl
  5923  0883                     u3405:	
  5924  0883  1003               	clrc
  5925  0884  0DFA               	rlf	___xxtofl@arg,f
  5926  0885  0DFB               	rlf	___xxtofl@arg+1,f
  5927  0886  0DFC               	rlf	___xxtofl@arg+2,f
  5928  0887  0DFD               	rlf	___xxtofl@arg+3,f
  5929  0888  0BF4               	decfsz	??___xxtofl,f
  5930  0889  2883               	goto	u3405
  5931  088A                     l2798:	
  5932  088A  1BFC               	btfsc	___xxtofl@arg+2,7
  5933  088B  288D               	goto	u3411
  5934  088C  288E               	goto	u3410
  5935  088D                     u3411:	
  5936  088D  2894               	goto	l828
  5937  088E                     u3410:	
  5938  088E                     l2800:	
  5939  088E  3002               	movlw	2
  5940  088F  0279               	subwf	___xxtofl@exp,w
  5941  0890  1803               	skipnc
  5942  0891  2893               	goto	u3421
  5943  0892  2894               	goto	u3420
  5944  0893                     u3421:	
  5945  0893  287F               	goto	l2796
  5946  0894                     u3420:	
  5947  0894                     l828:	
  5948  0894  1879               	btfsc	___xxtofl@exp,0
  5949  0895  2897               	goto	u3431
  5950  0896  2898               	goto	u3430
  5951  0897                     u3431:	
  5952  0897  28A0               	goto	l829
  5953  0898                     u3430:	
  5954  0898                     l2802:	
  5955  0898  30FF               	movlw	255
  5956  0899  05FA               	andwf	___xxtofl@arg,f
  5957  089A  30FF               	movlw	255
  5958  089B  05FB               	andwf	___xxtofl@arg+1,f
  5959  089C  307F               	movlw	127
  5960  089D  05FC               	andwf	___xxtofl@arg+2,f
  5961  089E  30FF               	movlw	255
  5962  089F  05FD               	andwf	___xxtofl@arg+3,f
  5963  08A0                     l829:	
  5964  08A0  1003               	clrc
  5965  08A1  0CF9               	rrf	___xxtofl@exp,f
  5966  08A2                     l2804:	
  5967  08A2  0879               	movf	___xxtofl@exp,w
  5968  08A3  00F4               	movwf	??___xxtofl
  5969  08A4  01F5               	clrf	??___xxtofl+1
  5970  08A5  01F6               	clrf	??___xxtofl+2
  5971  08A6  01F7               	clrf	??___xxtofl+3
  5972  08A7  3018               	movlw	24
  5973  08A8                     u3445:	
  5974  08A8  1003               	clrc
  5975  08A9  0DF4               	rlf	??___xxtofl,f
  5976  08AA  0DF5               	rlf	??___xxtofl+1,f
  5977  08AB  0DF6               	rlf	??___xxtofl+2,f
  5978  08AC  0DF7               	rlf	??___xxtofl+3,f
  5979  08AD                     u3440:	
  5980  08AD  3EFF               	addlw	-1
  5981  08AE  1D03               	skipz
  5982  08AF  28A8               	goto	u3445
  5983  08B0  0874               	movf	??___xxtofl,w
  5984  08B1  04FA               	iorwf	___xxtofl@arg,f
  5985  08B2  0875               	movf	??___xxtofl+1,w
  5986  08B3  04FB               	iorwf	___xxtofl@arg+1,f
  5987  08B4  0876               	movf	??___xxtofl+2,w
  5988  08B5  04FC               	iorwf	___xxtofl@arg+2,f
  5989  08B6  0877               	movf	??___xxtofl+3,w
  5990  08B7  04FD               	iorwf	___xxtofl@arg+3,f
  5991  08B8                     l2806:	
  5992  08B8  0878               	movf	___xxtofl@sign,w
  5993  08B9  1903               	btfsc	3,2
  5994  08BA  28BC               	goto	u3451
  5995  08BB  28BD               	goto	u3450
  5996  08BC                     u3451:	
  5997  08BC  28C2               	goto	l2812
  5998  08BD                     u3450:	
  5999  08BD                     l2808:	
  6000  08BD  1FF3               	btfss	___xxtofl@val+3,7
  6001  08BE  28C0               	goto	u3461
  6002  08BF  28C1               	goto	u3460
  6003  08C0                     u3461:	
  6004  08C0  28C2               	goto	l2812
  6005  08C1                     u3460:	
  6006  08C1                     l2810:	
  6007  08C1  17FD               	bsf	___xxtofl@arg+3,7
  6008  08C2                     l2812:	
  6009  08C2  087D               	movf	___xxtofl@arg+3,w
  6010  08C3  00F3               	movwf	?___xxtofl+3
  6011  08C4  087C               	movf	___xxtofl@arg+2,w
  6012  08C5  00F2               	movwf	?___xxtofl+2
  6013  08C6  087B               	movf	___xxtofl@arg+1,w
  6014  08C7  00F1               	movwf	?___xxtofl+1
  6015  08C8  087A               	movf	___xxtofl@arg,w
  6016  08C9  00F0               	movwf	?___xxtofl
  6017  08CA                     l817:	
  6018  08CA  0008               	return
  6019  08CB                     __end_of___xxtofl:	
  6020                           
  6021                           	psect	text9
  6022  1684                     __ptext9:	
  6023 ;; *************** function ___flge *****************
  6024 ;; Defined at:
  6025 ;;		line 4 in file "C:\Program Files (x86)\Microchip\xc8\v2.10\pic\sources\c90\common\flge.c"
  6026 ;; Parameters:    Size  Location     Type
  6027 ;;  ff1             4    0[COMMON] unsigned char 
  6028 ;;  ff2             4    4[COMMON] unsigned char 
  6029 ;; Auto vars:     Size  Location     Type
  6030 ;;		None
  6031 ;; Return value:  Size  Location     Type
  6032 ;;		None               void
  6033 ;; Registers used:
  6034 ;;		wreg, status,2, status,0
  6035 ;; Tracked objects:
  6036 ;;		On entry : 0/0
  6037 ;;		On exit  : 0/0
  6038 ;;		Unchanged: 0/0
  6039 ;; Data sizes:     COMMON   BANK0   BANK1   BANK3   BANK2
  6040 ;;      Params:         8       0       0       0       0
  6041 ;;      Locals:         0       0       0       0       0
  6042 ;;      Temps:          4       0       0       0       0
  6043 ;;      Totals:        12       0       0       0       0
  6044 ;;Total ram usage:       12 bytes
  6045 ;; Hardware stack levels used:    1
  6046 ;; This function calls:
  6047 ;;		Nothing
  6048 ;; This function is called by:
  6049 ;;		_log
  6050 ;; This function uses a non-reentrant model
  6051 ;;
  6052                           
  6053                           
  6054                           ;psect for function ___flge
  6055  1684                     ___flge:	
  6056  1684                     l2752:	
  6057                           ;incstack = 0
  6058                           ; Regs used in ___flge: [wreg+status,2+status,0]
  6059                           
  6060  1684  3000               	movlw	0
  6061  1685  0570               	andwf	___flge@ff1,w
  6062  1686  00F8               	movwf	??___flge
  6063  1687  3000               	movlw	0
  6064  1688  0571               	andwf	___flge@ff1+1,w
  6065  1689  00F9               	movwf	??___flge+1
  6066  168A  3080               	movlw	128
  6067  168B  0572               	andwf	___flge@ff1+2,w
  6068  168C  00FA               	movwf	??___flge+2
  6069  168D  307F               	movlw	127
  6070  168E  0573               	andwf	___flge@ff1+3,w
  6071  168F  00FB               	movwf	??___flge+3
  6072  1690  087B               	movf	??___flge+3,w
  6073  1691  047A               	iorwf	??___flge+2,w
  6074  1692  0479               	iorwf	??___flge+1,w
  6075  1693  0478               	iorwf	??___flge,w
  6076  1694  1D03               	skipz
  6077  1695  2E97               	goto	u3261
  6078  1696  2E98               	goto	u3260
  6079  1697                     u3261:	
  6080  1697  2EA0               	goto	l562
  6081  1698                     u3260:	
  6082  1698                     l2754:	
  6083  1698  3000               	movlw	0
  6084  1699  00F3               	movwf	___flge@ff1+3
  6085  169A  3000               	movlw	0
  6086  169B  00F2               	movwf	___flge@ff1+2
  6087  169C  3000               	movlw	0
  6088  169D  00F1               	movwf	___flge@ff1+1
  6089  169E  3000               	movlw	0
  6090  169F  00F0               	movwf	___flge@ff1
  6091  16A0                     l562:	
  6092  16A0  3000               	movlw	0
  6093  16A1  0574               	andwf	___flge@ff2,w
  6094  16A2  00F8               	movwf	??___flge
  6095  16A3  3000               	movlw	0
  6096  16A4  0575               	andwf	___flge@ff2+1,w
  6097  16A5  00F9               	movwf	??___flge+1
  6098  16A6  3080               	movlw	128
  6099  16A7  0576               	andwf	___flge@ff2+2,w
  6100  16A8  00FA               	movwf	??___flge+2
  6101  16A9  307F               	movlw	127
  6102  16AA  0577               	andwf	___flge@ff2+3,w
  6103  16AB  00FB               	movwf	??___flge+3
  6104  16AC  087B               	movf	??___flge+3,w
  6105  16AD  047A               	iorwf	??___flge+2,w
  6106  16AE  0479               	iorwf	??___flge+1,w
  6107  16AF  0478               	iorwf	??___flge,w
  6108  16B0  1D03               	skipz
  6109  16B1  2EB3               	goto	u3271
  6110  16B2  2EB4               	goto	u3270
  6111  16B3                     u3271:	
  6112  16B3  2EBC               	goto	l2758
  6113  16B4                     u3270:	
  6114  16B4                     l2756:	
  6115  16B4  3000               	movlw	0
  6116  16B5  00F7               	movwf	___flge@ff2+3
  6117  16B6  3000               	movlw	0
  6118  16B7  00F6               	movwf	___flge@ff2+2
  6119  16B8  3000               	movlw	0
  6120  16B9  00F5               	movwf	___flge@ff2+1
  6121  16BA  3000               	movlw	0
  6122  16BB  00F4               	movwf	___flge@ff2
  6123  16BC                     l2758:	
  6124  16BC  1FF3               	btfss	___flge@ff1+3,7
  6125  16BD  2EBF               	goto	u3281
  6126  16BE  2EC0               	goto	u3280
  6127  16BF                     u3281:	
  6128  16BF  2EE4               	goto	l2762
  6129  16C0                     u3280:	
  6130  16C0                     l2760:	
  6131  16C0  3000               	movlw	0
  6132  16C1  00F8               	movwf	??___flge
  6133  16C2  3000               	movlw	0
  6134  16C3  00F9               	movwf	??___flge+1
  6135  16C4  3000               	movlw	0
  6136  16C5  00FA               	movwf	??___flge+2
  6137  16C6  3080               	movlw	128
  6138  16C7  00FB               	movwf	??___flge+3
  6139  16C8  0870               	movf	___flge@ff1,w
  6140  16C9  02F8               	subwf	??___flge,f
  6141  16CA  0871               	movf	___flge@ff1+1,w
  6142  16CB  1C03               	skipc
  6143  16CC  0F71               	incfsz	___flge@ff1+1,w
  6144  16CD  2ECF               	goto	u3291
  6145  16CE  2ED0               	goto	u3292
  6146  16CF                     u3291:	
  6147  16CF  02F9               	subwf	??___flge+1,f
  6148  16D0                     u3292:	
  6149  16D0  0872               	movf	___flge@ff1+2,w
  6150  16D1  1C03               	skipc
  6151  16D2  0F72               	incfsz	___flge@ff1+2,w
  6152  16D3  2ED5               	goto	u3293
  6153  16D4  2ED6               	goto	u3294
  6154  16D5                     u3293:	
  6155  16D5  02FA               	subwf	??___flge+2,f
  6156  16D6                     u3294:	
  6157  16D6  0873               	movf	___flge@ff1+3,w
  6158  16D7  1C03               	skipc
  6159  16D8  0F73               	incfsz	___flge@ff1+3,w
  6160  16D9  2EDB               	goto	u3295
  6161  16DA  2EDC               	goto	u3296
  6162  16DB                     u3295:	
  6163  16DB  02FB               	subwf	??___flge+3,f
  6164  16DC                     u3296:	
  6165  16DC  087B               	movf	??___flge+3,w
  6166  16DD  00F3               	movwf	___flge@ff1+3
  6167  16DE  087A               	movf	??___flge+2,w
  6168  16DF  00F2               	movwf	___flge@ff1+2
  6169  16E0  0879               	movf	??___flge+1,w
  6170  16E1  00F1               	movwf	___flge@ff1+1
  6171  16E2  0878               	movf	??___flge,w
  6172  16E3  00F0               	movwf	___flge@ff1
  6173  16E4                     l2762:	
  6174  16E4  1FF7               	btfss	___flge@ff2+3,7
  6175  16E5  2EE7               	goto	u3301
  6176  16E6  2EE8               	goto	u3300
  6177  16E7                     u3301:	
  6178  16E7  2F0C               	goto	l565
  6179  16E8                     u3300:	
  6180  16E8                     l2764:	
  6181  16E8  3000               	movlw	0
  6182  16E9  00F8               	movwf	??___flge
  6183  16EA  3000               	movlw	0
  6184  16EB  00F9               	movwf	??___flge+1
  6185  16EC  3000               	movlw	0
  6186  16ED  00FA               	movwf	??___flge+2
  6187  16EE  3080               	movlw	128
  6188  16EF  00FB               	movwf	??___flge+3
  6189  16F0  0874               	movf	___flge@ff2,w
  6190  16F1  02F8               	subwf	??___flge,f
  6191  16F2  0875               	movf	___flge@ff2+1,w
  6192  16F3  1C03               	skipc
  6193  16F4  0F75               	incfsz	___flge@ff2+1,w
  6194  16F5  2EF7               	goto	u3311
  6195  16F6  2EF8               	goto	u3312
  6196  16F7                     u3311:	
  6197  16F7  02F9               	subwf	??___flge+1,f
  6198  16F8                     u3312:	
  6199  16F8  0876               	movf	___flge@ff2+2,w
  6200  16F9  1C03               	skipc
  6201  16FA  0F76               	incfsz	___flge@ff2+2,w
  6202  16FB  2EFD               	goto	u3313
  6203  16FC  2EFE               	goto	u3314
  6204  16FD                     u3313:	
  6205  16FD  02FA               	subwf	??___flge+2,f
  6206  16FE                     u3314:	
  6207  16FE  0877               	movf	___flge@ff2+3,w
  6208  16FF  1C03               	skipc
  6209  1700  0F77               	incfsz	___flge@ff2+3,w
  6210  1701  2F03               	goto	u3315
  6211  1702  2F04               	goto	u3316
  6212  1703                     u3315:	
  6213  1703  02FB               	subwf	??___flge+3,f
  6214  1704                     u3316:	
  6215  1704  087B               	movf	??___flge+3,w
  6216  1705  00F7               	movwf	___flge@ff2+3
  6217  1706  087A               	movf	??___flge+2,w
  6218  1707  00F6               	movwf	___flge@ff2+2
  6219  1708  0879               	movf	??___flge+1,w
  6220  1709  00F5               	movwf	___flge@ff2+1
  6221  170A  0878               	movf	??___flge,w
  6222  170B  00F4               	movwf	___flge@ff2
  6223  170C                     l565:	
  6224  170C  3080               	movlw	128
  6225  170D  06F3               	xorwf	___flge@ff1+3,f
  6226  170E  3080               	movlw	128
  6227  170F  06F7               	xorwf	___flge@ff2+3,f
  6228  1710  0877               	movf	___flge@ff2+3,w
  6229  1711  0273               	subwf	___flge@ff1+3,w
  6230  1712  1D03               	skipz
  6231  1713  2F1E               	goto	u3325
  6232  1714  0876               	movf	___flge@ff2+2,w
  6233  1715  0272               	subwf	___flge@ff1+2,w
  6234  1716  1D03               	skipz
  6235  1717  2F1E               	goto	u3325
  6236  1718  0875               	movf	___flge@ff2+1,w
  6237  1719  0271               	subwf	___flge@ff1+1,w
  6238  171A  1D03               	skipz
  6239  171B  2F1E               	goto	u3325
  6240  171C  0874               	movf	___flge@ff2,w
  6241  171D  0270               	subwf	___flge@ff1,w
  6242  171E                     u3325:	
  6243  171E  1803               	skipnc
  6244  171F  2F21               	goto	u3321
  6245  1720  2F22               	goto	u3320
  6246  1721                     u3321:	
  6247  1721  2F24               	goto	l2768
  6248  1722                     u3320:	
  6249  1722                     l2766:	
  6250  1722  1003               	clrc
  6251  1723  2F25               	goto	l566
  6252  1724                     l2768:	
  6253  1724  1403               	setc
  6254  1725                     l566:	
  6255  1725  0008               	return
  6256  1726                     __end_of___flge:	
  6257                           
  6258                           	psect	text10
  6259  11C1                     __ptext10:	
  6260 ;; *************** function _lcd_msg *****************
  6261 ;; Defined at:
  6262 ;;		line 58 in file "LCD.c"
  6263 ;; Parameters:    Size  Location     Type
  6264 ;;  c               1    wreg     PTR unsigned char 
  6265 ;;		 -> STR_11(5), STR_10(5), STR_9(4), STR_8(3), 
  6266 ;;		 -> STR_7(3), STR_6(4), STR_5(3), STR_4(4), 
  6267 ;;		 -> STR_3(4), STR_2(4), STR_1(4), 
  6268 ;; Auto vars:     Size  Location     Type
  6269 ;;  c               1    4[COMMON] PTR unsigned char 
  6270 ;;		 -> STR_11(5), STR_10(5), STR_9(4), STR_8(3), 
  6271 ;;		 -> STR_7(3), STR_6(4), STR_5(3), STR_4(4), 
  6272 ;;		 -> STR_3(4), STR_2(4), STR_1(4), 
  6273 ;; Return value:  Size  Location     Type
  6274 ;;                  1    wreg      void 
  6275 ;; Registers used:
  6276 ;;		wreg, fsr0l, fsr0h, status,2, status,0, pclath, cstack
  6277 ;; Tracked objects:
  6278 ;;		On entry : 0/0
  6279 ;;		On exit  : 0/0
  6280 ;;		Unchanged: 0/0
  6281 ;; Data sizes:     COMMON   BANK0   BANK1   BANK3   BANK2
  6282 ;;      Params:         0       0       0       0       0
  6283 ;;      Locals:         1       0       0       0       0
  6284 ;;      Temps:          1       0       0       0       0
  6285 ;;      Totals:         2       0       0       0       0
  6286 ;;Total ram usage:        2 bytes
  6287 ;; Hardware stack levels used:    1
  6288 ;; Hardware stack levels required when called:    2
  6289 ;; This function calls:
  6290 ;;		_lcd_dwr
  6291 ;; This function is called by:
  6292 ;;		_main
  6293 ;; This function uses a non-reentrant model
  6294 ;;
  6295                           
  6296                           
  6297                           ;psect for function _lcd_msg
  6298  11C1                     _lcd_msg:	
  6299                           
  6300                           ;incstack = 0
  6301                           ; Regs used in _lcd_msg: [wreg-fsr0h+status,2+status,0+pclath+cstack]
  6302                           ;lcd_msg@c stored from wreg
  6303  11C1  00F4               	movwf	lcd_msg@c
  6304  11C2                     l2900:	
  6305                           
  6306                           ;LCD.c: 60:     while(*c != 0)
  6307  11C2  29D3               	goto	l2906
  6308  11C3                     l2902:	
  6309                           
  6310                           ;LCD.c: 61:         lcd_dwr(*c++);
  6311  11C3  0874               	movf	lcd_msg@c,w
  6312  11C4  0084               	movwf	4
  6313  11C5  160A  118A  2000  160A  118A  	fcall	stringdir
  6314  11CA  160A  118A  2174  160A  118A  	fcall	_lcd_dwr
  6315  11CF                     l2904:	
  6316  11CF  3001               	movlw	1
  6317  11D0  00F3               	movwf	??_lcd_msg
  6318  11D1  0873               	movf	??_lcd_msg,w
  6319  11D2  07F4               	addwf	lcd_msg@c,f
  6320  11D3                     l2906:	
  6321                           
  6322                           ;LCD.c: 60:     while(*c != 0)
  6323  11D3  0874               	movf	lcd_msg@c,w
  6324  11D4  0084               	movwf	4
  6325  11D5  160A  118A  2000  160A  118A  	fcall	stringdir
  6326  11DA  3A00               	xorlw	0
  6327  11DB  1D03               	skipz
  6328  11DC  29DE               	goto	u3571
  6329  11DD  29DF               	goto	u3570
  6330  11DE                     u3571:	
  6331  11DE  29C3               	goto	l2902
  6332  11DF                     u3570:	
  6333  11DF                     l247:	
  6334  11DF  0008               	return
  6335  11E0                     __end_of_lcd_msg:	
  6336                           
  6337                           	psect	text11
  6338  1174                     __ptext11:	
  6339 ;; *************** function _lcd_dwr *****************
  6340 ;; Defined at:
  6341 ;;		line 48 in file "LCD.c"
  6342 ;; Parameters:    Size  Location     Type
  6343 ;;  x               1    wreg     unsigned char 
  6344 ;; Auto vars:     Size  Location     Type
  6345 ;;  x               1    2[COMMON] unsigned char 
  6346 ;; Return value:  Size  Location     Type
  6347 ;;                  1    wreg      void 
  6348 ;; Registers used:
  6349 ;;		wreg, status,2, status,0, pclath, cstack
  6350 ;; Tracked objects:
  6351 ;;		On entry : 0/0
  6352 ;;		On exit  : 0/0
  6353 ;;		Unchanged: 0/0
  6354 ;; Data sizes:     COMMON   BANK0   BANK1   BANK3   BANK2
  6355 ;;      Params:         0       0       0       0       0
  6356 ;;      Locals:         1       0       0       0       0
  6357 ;;      Temps:          0       0       0       0       0
  6358 ;;      Totals:         1       0       0       0       0
  6359 ;;Total ram usage:        1 bytes
  6360 ;; Hardware stack levels used:    1
  6361 ;; Hardware stack levels required when called:    1
  6362 ;; This function calls:
  6363 ;;		_lcd_lat
  6364 ;;		_lcd_ready
  6365 ;; This function is called by:
  6366 ;;		_main
  6367 ;;		_lcd_msg
  6368 ;; This function uses a non-reentrant model
  6369 ;;
  6370                           
  6371                           
  6372                           ;psect for function _lcd_dwr
  6373  1174                     _lcd_dwr:	
  6374                           
  6375                           ;incstack = 0
  6376                           ; Regs used in _lcd_dwr: [wreg+status,2+status,0+pclath+cstack]
  6377                           ;lcd_dwr@x stored from wreg
  6378  1174  00F2               	movwf	lcd_dwr@x
  6379  1175                     l2686:	
  6380                           
  6381                           ;LCD.c: 49:     lcd_ready();
  6382  1175  160A  118A  2207  160A  118A  	fcall	_lcd_ready
  6383  117A                     l2688:	
  6384                           
  6385                           ;LCD.c: 50:     PORTB = x;
  6386  117A  0872               	movf	lcd_dwr@x,w
  6387  117B  1283               	bcf	3,5	;RP0=0, select bank0
  6388  117C  1303               	bcf	3,6	;RP1=0, select bank0
  6389  117D  0086               	movwf	6	;volatile
  6390  117E                     l2690:	
  6391                           
  6392                           ;LCD.c: 51:     RD7 = 1;
  6393  117E  1788               	bsf	8,7	;volatile
  6394  117F                     l2692:	
  6395                           
  6396                           ;LCD.c: 52:     RD2 = 0;
  6397  117F  1108               	bcf	8,2	;volatile
  6398  1180                     l2694:	
  6399                           
  6400                           ;LCD.c: 53:     lcd_lat();
  6401  1180  120A  158A  2002  160A  118A  	fcall	_lcd_lat
  6402  1185                     l241:	
  6403  1185  0008               	return
  6404  1186                     __end_of_lcd_dwr:	
  6405                           
  6406                           	psect	text12
  6407  11A2                     __ptext12:	
  6408 ;; *************** function _lcd_init *****************
  6409 ;; Defined at:
  6410 ;;		line 64 in file "LCD.c"
  6411 ;; Parameters:    Size  Location     Type
  6412 ;;		None
  6413 ;; Auto vars:     Size  Location     Type
  6414 ;;		None
  6415 ;; Return value:  Size  Location     Type
  6416 ;;                  1    wreg      void 
  6417 ;; Registers used:
  6418 ;;		wreg, status,2, status,0, pclath, cstack
  6419 ;; Tracked objects:
  6420 ;;		On entry : 0/0
  6421 ;;		On exit  : 0/0
  6422 ;;		Unchanged: 0/0
  6423 ;; Data sizes:     COMMON   BANK0   BANK1   BANK3   BANK2
  6424 ;;      Params:         0       0       0       0       0
  6425 ;;      Locals:         0       0       0       0       0
  6426 ;;      Temps:          0       0       0       0       0
  6427 ;;      Totals:         0       0       0       0       0
  6428 ;;Total ram usage:        0 bytes
  6429 ;; Hardware stack levels used:    1
  6430 ;; Hardware stack levels required when called:    2
  6431 ;; This function calls:
  6432 ;;		_lcd_cmd
  6433 ;; This function is called by:
  6434 ;;		_main
  6435 ;; This function uses a non-reentrant model
  6436 ;;
  6437                           
  6438                           
  6439                           ;psect for function _lcd_init
  6440  11A2                     _lcd_init:	
  6441  11A2                     l2866:	
  6442                           ;incstack = 0
  6443                           ; Regs used in _lcd_init: [wreg+status,2+status,0+pclath+cstack]
  6444                           
  6445                           
  6446                           ;LCD.c: 66:     lcd_cmd(0x38);
  6447  11A2  3038               	movlw	56
  6448  11A3  160A  118A  2162  160A  118A  	fcall	_lcd_cmd
  6449                           
  6450                           ;LCD.c: 67:     lcd_cmd(0x0C);
  6451  11A8  300C               	movlw	12
  6452  11A9  160A  118A  2162  160A  118A  	fcall	_lcd_cmd
  6453                           
  6454                           ;LCD.c: 68:     lcd_cmd(0x01);
  6455  11AE  3001               	movlw	1
  6456  11AF  160A  118A  2162  160A  118A  	fcall	_lcd_cmd
  6457                           
  6458                           ;LCD.c: 69:     lcd_cmd(0x06);
  6459  11B4  3006               	movlw	6
  6460  11B5  160A  118A  2162  160A  118A  	fcall	_lcd_cmd
  6461                           
  6462                           ;LCD.c: 70:     lcd_cmd(0x80);
  6463  11BA  3080               	movlw	128
  6464  11BB  160A  118A  2162  160A  118A  	fcall	_lcd_cmd
  6465  11C0                     l250:	
  6466  11C0  0008               	return
  6467  11C1                     __end_of_lcd_init:	
  6468                           
  6469                           	psect	text13
  6470  13E8                     __ptext13:	
  6471 ;; *************** function _initOsc *****************
  6472 ;; Defined at:
  6473 ;;		line 8 in file "Oscilador.c"
  6474 ;; Parameters:    Size  Location     Type
  6475 ;;  frec            1    wreg     unsigned char 
  6476 ;; Auto vars:     Size  Location     Type
  6477 ;;  frec            1    2[COMMON] unsigned char 
  6478 ;; Return value:  Size  Location     Type
  6479 ;;                  1    wreg      void 
  6480 ;; Registers used:
  6481 ;;		wreg, fsr0l, fsr0h, status,2, status,0
  6482 ;; Tracked objects:
  6483 ;;		On entry : 0/0
  6484 ;;		On exit  : 0/0
  6485 ;;		Unchanged: 0/0
  6486 ;; Data sizes:     COMMON   BANK0   BANK1   BANK3   BANK2
  6487 ;;      Params:         0       0       0       0       0
  6488 ;;      Locals:         1       0       0       0       0
  6489 ;;      Temps:          2       0       0       0       0
  6490 ;;      Totals:         3       0       0       0       0
  6491 ;;Total ram usage:        3 bytes
  6492 ;; Hardware stack levels used:    1
  6493 ;; This function calls:
  6494 ;;		Nothing
  6495 ;; This function is called by:
  6496 ;;		_main
  6497 ;; This function uses a non-reentrant model
  6498 ;;
  6499                           
  6500                           
  6501                           ;psect for function _initOsc
  6502  13E8                     _initOsc:	
  6503                           
  6504                           ;incstack = 0
  6505                           ; Regs used in _initOsc: [wreg-fsr0h+status,2+status,0]
  6506                           ;initOsc@frec stored from wreg
  6507  13E8  00F2               	movwf	initOsc@frec
  6508  13E9                     l2846:	
  6509                           
  6510                           ;Oscilador.c: 9:     switch(frec){
  6511  13E9  2C20               	goto	l2850
  6512  13EA                     l267:	
  6513                           ;Oscilador.c: 10:         case 0:
  6514                           
  6515                           
  6516                           ;Oscilador.c: 11:             OSCCONbits.IRCF0 = 0;
  6517  13EA  1683               	bsf	3,5	;RP0=1, select bank1
  6518  13EB  1303               	bcf	3,6	;RP1=0, select bank1
  6519  13EC  120F               	bcf	15,4	;volatile
  6520                           
  6521                           ;Oscilador.c: 12:             OSCCONbits.IRCF1 = 0;
  6522  13ED  128F               	bcf	15,5	;volatile
  6523                           
  6524                           ;Oscilador.c: 13:             OSCCONbits.IRCF2 = 0;
  6525  13EE  130F               	bcf	15,6	;volatile
  6526                           
  6527                           ;Oscilador.c: 14:             break;
  6528  13EF  2C42               	goto	l268
  6529  13F0                     l269:	
  6530                           ;Oscilador.c: 15:         case 1:
  6531                           
  6532                           
  6533                           ;Oscilador.c: 16:             OSCCONbits.IRCF0 = 1;
  6534  13F0  1683               	bsf	3,5	;RP0=1, select bank1
  6535  13F1  1303               	bcf	3,6	;RP1=0, select bank1
  6536  13F2  160F               	bsf	15,4	;volatile
  6537                           
  6538                           ;Oscilador.c: 17:             OSCCONbits.IRCF1 = 0;
  6539  13F3  128F               	bcf	15,5	;volatile
  6540                           
  6541                           ;Oscilador.c: 18:             OSCCONbits.IRCF2 = 0;
  6542  13F4  130F               	bcf	15,6	;volatile
  6543                           
  6544                           ;Oscilador.c: 19:             break;
  6545  13F5  2C42               	goto	l268
  6546  13F6                     l270:	
  6547                           ;Oscilador.c: 20:         case 2:
  6548                           
  6549                           
  6550                           ;Oscilador.c: 21:             OSCCONbits.IRCF0 = 0;
  6551  13F6  1683               	bsf	3,5	;RP0=1, select bank1
  6552  13F7  1303               	bcf	3,6	;RP1=0, select bank1
  6553  13F8  120F               	bcf	15,4	;volatile
  6554                           
  6555                           ;Oscilador.c: 22:             OSCCONbits.IRCF1 = 1;
  6556  13F9  168F               	bsf	15,5	;volatile
  6557                           
  6558                           ;Oscilador.c: 23:             OSCCONbits.IRCF2 = 0;
  6559  13FA  130F               	bcf	15,6	;volatile
  6560                           
  6561                           ;Oscilador.c: 24:             break;
  6562  13FB  2C42               	goto	l268
  6563  13FC                     l271:	
  6564                           ;Oscilador.c: 25:         case 3:
  6565                           
  6566                           
  6567                           ;Oscilador.c: 26:             OSCCONbits.IRCF0 = 1;
  6568  13FC  1683               	bsf	3,5	;RP0=1, select bank1
  6569  13FD  1303               	bcf	3,6	;RP1=0, select bank1
  6570  13FE  160F               	bsf	15,4	;volatile
  6571                           
  6572                           ;Oscilador.c: 27:             OSCCONbits.IRCF1 = 1;
  6573  13FF  168F               	bsf	15,5	;volatile
  6574                           
  6575                           ;Oscilador.c: 28:             OSCCONbits.IRCF2 = 0;
  6576  1400  130F               	bcf	15,6	;volatile
  6577                           
  6578                           ;Oscilador.c: 29:             break;
  6579  1401  2C42               	goto	l268
  6580  1402                     l272:	
  6581                           ;Oscilador.c: 30:         case 4:
  6582                           
  6583                           
  6584                           ;Oscilador.c: 31:             OSCCONbits.IRCF0 = 0;
  6585  1402  1683               	bsf	3,5	;RP0=1, select bank1
  6586  1403  1303               	bcf	3,6	;RP1=0, select bank1
  6587  1404  120F               	bcf	15,4	;volatile
  6588                           
  6589                           ;Oscilador.c: 32:             OSCCONbits.IRCF1 = 0;
  6590  1405  128F               	bcf	15,5	;volatile
  6591                           
  6592                           ;Oscilador.c: 33:             OSCCONbits.IRCF2 = 1;
  6593  1406  170F               	bsf	15,6	;volatile
  6594                           
  6595                           ;Oscilador.c: 34:             break;
  6596  1407  2C42               	goto	l268
  6597  1408                     l273:	
  6598                           ;Oscilador.c: 35:         case 5:
  6599                           
  6600                           
  6601                           ;Oscilador.c: 36:             OSCCONbits.IRCF0 = 1;
  6602  1408  1683               	bsf	3,5	;RP0=1, select bank1
  6603  1409  1303               	bcf	3,6	;RP1=0, select bank1
  6604  140A  160F               	bsf	15,4	;volatile
  6605                           
  6606                           ;Oscilador.c: 37:             OSCCONbits.IRCF1 = 0;
  6607  140B  128F               	bcf	15,5	;volatile
  6608                           
  6609                           ;Oscilador.c: 38:             OSCCONbits.IRCF2 = 1;
  6610  140C  170F               	bsf	15,6	;volatile
  6611                           
  6612                           ;Oscilador.c: 39:             break;
  6613  140D  2C42               	goto	l268
  6614  140E                     l274:	
  6615                           ;Oscilador.c: 40:         case 6:
  6616                           
  6617                           
  6618                           ;Oscilador.c: 41:             OSCCONbits.IRCF0 = 0;
  6619  140E  1683               	bsf	3,5	;RP0=1, select bank1
  6620  140F  1303               	bcf	3,6	;RP1=0, select bank1
  6621  1410  120F               	bcf	15,4	;volatile
  6622                           
  6623                           ;Oscilador.c: 42:             OSCCONbits.IRCF1 = 1;
  6624  1411  168F               	bsf	15,5	;volatile
  6625                           
  6626                           ;Oscilador.c: 43:             OSCCONbits.IRCF2 = 1;
  6627  1412  170F               	bsf	15,6	;volatile
  6628                           
  6629                           ;Oscilador.c: 44:             break;
  6630  1413  2C42               	goto	l268
  6631  1414                     l275:	
  6632                           ;Oscilador.c: 45:         case 7:
  6633                           
  6634                           
  6635                           ;Oscilador.c: 46:             OSCCONbits.IRCF0 = 1;
  6636  1414  1683               	bsf	3,5	;RP0=1, select bank1
  6637  1415  1303               	bcf	3,6	;RP1=0, select bank1
  6638  1416  160F               	bsf	15,4	;volatile
  6639                           
  6640                           ;Oscilador.c: 47:             OSCCONbits.IRCF1 = 1;
  6641  1417  168F               	bsf	15,5	;volatile
  6642                           
  6643                           ;Oscilador.c: 48:             OSCCONbits.IRCF2 = 1;
  6644  1418  170F               	bsf	15,6	;volatile
  6645                           
  6646                           ;Oscilador.c: 49:             break;
  6647  1419  2C42               	goto	l268
  6648  141A                     l276:	
  6649                           ;Oscilador.c: 50:         default:
  6650                           
  6651                           
  6652                           ;Oscilador.c: 51:             OSCCONbits.IRCF0 = 0;
  6653  141A  1683               	bsf	3,5	;RP0=1, select bank1
  6654  141B  1303               	bcf	3,6	;RP1=0, select bank1
  6655  141C  120F               	bcf	15,4	;volatile
  6656                           
  6657                           ;Oscilador.c: 52:             OSCCONbits.IRCF1 = 1;
  6658  141D  168F               	bsf	15,5	;volatile
  6659                           
  6660                           ;Oscilador.c: 53:             OSCCONbits.IRCF2 = 1;
  6661  141E  170F               	bsf	15,6	;volatile
  6662                           
  6663                           ;Oscilador.c: 54:             break;
  6664  141F  2C42               	goto	l268
  6665  1420                     l2850:	
  6666  1420  0872               	movf	initOsc@frec,w
  6667  1421  00F0               	movwf	??_initOsc
  6668  1422  01F1               	clrf	??_initOsc+1
  6669                           
  6670                           ; Switch on 2 bytes has been partitioned into a top level switch of size 1, and 1 sub-sw
      +                          itches
  6671                           ; Switch size 1, requested type "simple"
  6672                           ; Number of cases is 1, Range of values is 0 to 0
  6673                           ; switch strategies available:
  6674                           ; Name         Instructions Cycles
  6675                           ; simple_byte            4     3 (average)
  6676                           ; direct_byte           11     8 (fixed)
  6677                           ; jumptable            260     6 (fixed)
  6678                           ;	Chosen strategy is simple_byte
  6679  1423  0871               	movf	??_initOsc+1,w
  6680  1424  3A00               	xorlw	0	; case 0
  6681  1425  1903               	skipnz
  6682  1426  2C28               	goto	l3542
  6683  1427  2C1A               	goto	l276
  6684  1428                     l3542:	
  6685                           
  6686                           ; Switch size 1, requested type "simple"
  6687                           ; Number of cases is 8, Range of values is 0 to 7
  6688                           ; switch strategies available:
  6689                           ; Name         Instructions Cycles
  6690                           ; simple_byte           25    13 (average)
  6691                           ; direct_byte           32     8 (fixed)
  6692                           ; jumptable            260     6 (fixed)
  6693                           ;	Chosen strategy is simple_byte
  6694  1428  0870               	movf	??_initOsc,w
  6695  1429  3A00               	xorlw	0	; case 0
  6696  142A  1903               	skipnz
  6697  142B  2BEA               	goto	l267
  6698  142C  3A01               	xorlw	1	; case 1
  6699  142D  1903               	skipnz
  6700  142E  2BF0               	goto	l269
  6701  142F  3A03               	xorlw	3	; case 2
  6702  1430  1903               	skipnz
  6703  1431  2BF6               	goto	l270
  6704  1432  3A01               	xorlw	1	; case 3
  6705  1433  1903               	skipnz
  6706  1434  2BFC               	goto	l271
  6707  1435  3A07               	xorlw	7	; case 4
  6708  1436  1903               	skipnz
  6709  1437  2C02               	goto	l272
  6710  1438  3A01               	xorlw	1	; case 5
  6711  1439  1903               	skipnz
  6712  143A  2C08               	goto	l273
  6713  143B  3A03               	xorlw	3	; case 6
  6714  143C  1903               	skipnz
  6715  143D  2C0E               	goto	l274
  6716  143E  3A01               	xorlw	1	; case 7
  6717  143F  1903               	skipnz
  6718  1440  2C14               	goto	l275
  6719  1441  2C1A               	goto	l276
  6720  1442                     l268:	
  6721                           
  6722                           ;Oscilador.c: 57:     OSCCONbits.SCS = 1;
  6723  1442  140F               	bsf	15,0	;volatile
  6724  1443                     l277:	
  6725  1443  0008               	return
  6726  1444                     __end_of_initOsc:	
  6727                           
  6728                           	psect	text14
  6729  1186                     __ptext14:	
  6730 ;; *************** function _init *****************
  6731 ;; Defined at:
  6732 ;;		line 315 in file "MASTER_Proyecto.c"
  6733 ;; Parameters:    Size  Location     Type
  6734 ;;		None
  6735 ;; Auto vars:     Size  Location     Type
  6736 ;;		None
  6737 ;; Return value:  Size  Location     Type
  6738 ;;                  1    wreg      void 
  6739 ;; Registers used:
  6740 ;;		wreg, status,2, status,0, pclath, cstack
  6741 ;; Tracked objects:
  6742 ;;		On entry : 0/0
  6743 ;;		On exit  : 0/0
  6744 ;;		Unchanged: 0/0
  6745 ;; Data sizes:     COMMON   BANK0   BANK1   BANK3   BANK2
  6746 ;;      Params:         0       0       0       0       0
  6747 ;;      Locals:         0       0       0       0       0
  6748 ;;      Temps:          0       0       0       0       0
  6749 ;;      Totals:         0       0       0       0       0
  6750 ;;Total ram usage:        0 bytes
  6751 ;; Hardware stack levels used:    1
  6752 ;; Hardware stack levels required when called:    2
  6753 ;; This function calls:
  6754 ;;		_I2C_Master_Init
  6755 ;; This function is called by:
  6756 ;;		_main
  6757 ;; This function uses a non-reentrant model
  6758 ;;
  6759                           
  6760                           
  6761                           ;psect for function _init
  6762  1186                     _init:	
  6763  1186                     l2856:	
  6764                           ;incstack = 0
  6765                           ; Regs used in _init: [wreg+status,2+status,0+pclath+cstack]
  6766                           
  6767                           
  6768                           ;MASTER_Proyecto.c: 316:     TRISA = 0;
  6769  1186  1683               	bsf	3,5	;RP0=1, select bank1
  6770  1187  1303               	bcf	3,6	;RP1=0, select bank1
  6771  1188  0185               	clrf	5	;volatile
  6772                           
  6773                           ;MASTER_Proyecto.c: 317:     TRISB = 0;
  6774  1189  0186               	clrf	6	;volatile
  6775                           
  6776                           ;MASTER_Proyecto.c: 318:     TRISC = 0;
  6777  118A  0187               	clrf	7	;volatile
  6778                           
  6779                           ;MASTER_Proyecto.c: 319:     TRISD = 0;
  6780  118B  0188               	clrf	8	;volatile
  6781  118C                     l2858:	
  6782                           
  6783                           ;MASTER_Proyecto.c: 320:     TRISE = 0b00000110;
  6784  118C  3006               	movlw	6
  6785  118D  0089               	movwf	9	;volatile
  6786  118E                     l2860:	
  6787                           
  6788                           ;MASTER_Proyecto.c: 321:     ANSEL = 0;
  6789  118E  1683               	bsf	3,5	;RP0=1, select bank3
  6790  118F  1703               	bsf	3,6	;RP1=1, select bank3
  6791  1190  0188               	clrf	8	;volatile
  6792  1191                     l2862:	
  6793                           
  6794                           ;MASTER_Proyecto.c: 322:     ANSELH = 0;
  6795  1191  0189               	clrf	9	;volatile
  6796  1192                     l2864:	
  6797                           
  6798                           ;MASTER_Proyecto.c: 323:     I2C_Master_Init(100000);
  6799  1192  3000               	movlw	0
  6800  1193  1283               	bcf	3,5	;RP0=0, select bank0
  6801  1194  1303               	bcf	3,6	;RP1=0, select bank0
  6802  1195  00A3               	movwf	I2C_Master_Init@c+3
  6803  1196  3001               	movlw	1
  6804  1197  00A2               	movwf	I2C_Master_Init@c+2
  6805  1198  3086               	movlw	134
  6806  1199  00A1               	movwf	I2C_Master_Init@c+1
  6807  119A  30A0               	movlw	160
  6808  119B  00A0               	movwf	I2C_Master_Init@c
  6809  119C  160A  118A  228B  160A  118A  	fcall	_I2C_Master_Init
  6810  11A1                     l145:	
  6811  11A1  0008               	return
  6812  11A2                     __end_of_init:	
  6813                           
  6814                           	psect	text15
  6815  128B                     __ptext15:	
  6816 ;; *************** function _I2C_Master_Init *****************
  6817 ;; Defined at:
  6818 ;;		line 7 in file "I2C.c"
  6819 ;; Parameters:    Size  Location     Type
  6820 ;;  c               4    0[BANK0 ] const unsigned long 
  6821 ;; Auto vars:     Size  Location     Type
  6822 ;;		None
  6823 ;; Return value:  Size  Location     Type
  6824 ;;                  1    wreg      void 
  6825 ;; Registers used:
  6826 ;;		wreg, status,2, status,0, pclath, cstack
  6827 ;; Tracked objects:
  6828 ;;		On entry : 0/0
  6829 ;;		On exit  : 0/0
  6830 ;;		Unchanged: 0/0
  6831 ;; Data sizes:     COMMON   BANK0   BANK1   BANK3   BANK2
  6832 ;;      Params:         0       4       0       0       0
  6833 ;;      Locals:         0       0       0       0       0
  6834 ;;      Temps:          0       4       0       0       0
  6835 ;;      Totals:         0       8       0       0       0
  6836 ;;Total ram usage:        8 bytes
  6837 ;; Hardware stack levels used:    1
  6838 ;; Hardware stack levels required when called:    1
  6839 ;; This function calls:
  6840 ;;		___lldiv
  6841 ;; This function is called by:
  6842 ;;		_init
  6843 ;; This function uses a non-reentrant model
  6844 ;;
  6845                           
  6846                           
  6847                           ;psect for function _I2C_Master_Init
  6848  128B                     _I2C_Master_Init:	
  6849  128B                     l2696:	
  6850                           ;incstack = 0
  6851                           ; Regs used in _I2C_Master_Init: [wreg+status,2+status,0+pclath+cstack]
  6852                           
  6853                           
  6854                           ;I2C.c: 7: void I2C_Master_Init(const unsigned long c);I2C.c: 8: {;I2C.c: 9:     SSPCON 
      +                          = 0b00101000;
  6855  128B  3028               	movlw	40
  6856  128C  1283               	bcf	3,5	;RP0=0, select bank0
  6857  128D  1303               	bcf	3,6	;RP1=0, select bank0
  6858  128E  0094               	movwf	20	;volatile
  6859  128F                     l2698:	
  6860                           
  6861                           ;I2C.c: 10:     SSPCON2 = 0;
  6862  128F  1683               	bsf	3,5	;RP0=1, select bank1
  6863  1290  1303               	bcf	3,6	;RP1=0, select bank1
  6864  1291  0191               	clrf	17	;volatile
  6865  1292                     l2700:	
  6866                           
  6867                           ;I2C.c: 11:     SSPADD = (8000000/(4*c))-1;
  6868  1292  1283               	bcf	3,5	;RP0=0, select bank0
  6869  1293  1303               	bcf	3,6	;RP1=0, select bank0
  6870  1294  0820               	movf	I2C_Master_Init@c,w
  6871  1295  00A4               	movwf	??_I2C_Master_Init
  6872  1296  0821               	movf	I2C_Master_Init@c+1,w
  6873  1297  00A5               	movwf	??_I2C_Master_Init+1
  6874  1298  0822               	movf	I2C_Master_Init@c+2,w
  6875  1299  00A6               	movwf	??_I2C_Master_Init+2
  6876  129A  0823               	movf	I2C_Master_Init@c+3,w
  6877  129B  00A7               	movwf	??_I2C_Master_Init+3
  6878  129C  3002               	movlw	2
  6879  129D                     u3135:	
  6880  129D  1003               	clrc
  6881  129E  0DA4               	rlf	??_I2C_Master_Init,f
  6882  129F  0DA5               	rlf	??_I2C_Master_Init+1,f
  6883  12A0  0DA6               	rlf	??_I2C_Master_Init+2,f
  6884  12A1  0DA7               	rlf	??_I2C_Master_Init+3,f
  6885  12A2                     u3130:	
  6886  12A2  3EFF               	addlw	-1
  6887  12A3  1D03               	skipz
  6888  12A4  2A9D               	goto	u3135
  6889  12A5  0827               	movf	??_I2C_Master_Init+3,w
  6890  12A6  00F3               	movwf	___lldiv@divisor+3
  6891  12A7  0826               	movf	??_I2C_Master_Init+2,w
  6892  12A8  00F2               	movwf	___lldiv@divisor+2
  6893  12A9  0825               	movf	??_I2C_Master_Init+1,w
  6894  12AA  00F1               	movwf	___lldiv@divisor+1
  6895  12AB  0824               	movf	??_I2C_Master_Init,w
  6896  12AC  00F0               	movwf	___lldiv@divisor
  6897  12AD  3000               	movlw	0
  6898  12AE  00F7               	movwf	___lldiv@dividend+3
  6899  12AF  307A               	movlw	122
  6900  12B0  00F6               	movwf	___lldiv@dividend+2
  6901  12B1  3012               	movlw	18
  6902  12B2  00F5               	movwf	___lldiv@dividend+1
  6903  12B3  3000               	movlw	0
  6904  12B4  00F4               	movwf	___lldiv@dividend
  6905  12B5  160A  118A  24A0  160A  118A  	fcall	___lldiv
  6906  12BA  0870               	movf	?___lldiv,w
  6907  12BB  3EFF               	addlw	255
  6908  12BC  1683               	bsf	3,5	;RP0=1, select bank1
  6909  12BD  1303               	bcf	3,6	;RP1=0, select bank1
  6910  12BE  0093               	movwf	19	;volatile
  6911  12BF                     l2702:	
  6912                           
  6913                           ;I2C.c: 12:     SSPSTAT = 0;
  6914  12BF  0194               	clrf	20	;volatile
  6915  12C0                     l2704:	
  6916                           
  6917                           ;I2C.c: 13:     TRISCbits.TRISC3 = 1;
  6918  12C0  1587               	bsf	7,3	;volatile
  6919  12C1                     l2706:	
  6920                           
  6921                           ;I2C.c: 14:     TRISCbits.TRISC4 = 1;
  6922  12C1  1607               	bsf	7,4	;volatile
  6923  12C2                     l189:	
  6924  12C2  0008               	return
  6925  12C3                     __end_of_I2C_Master_Init:	
  6926                           
  6927                           	psect	text16
  6928  14A0                     __ptext16:	
  6929 ;; *************** function ___lldiv *****************
  6930 ;; Defined at:
  6931 ;;		line 5 in file "C:\Program Files (x86)\Microchip\xc8\v2.10\pic\sources\c90\common\__lldiv.c"
  6932 ;; Parameters:    Size  Location     Type
  6933 ;;  divisor         4    0[COMMON] unsigned long 
  6934 ;;  dividend        4    4[COMMON] unsigned long 
  6935 ;; Auto vars:     Size  Location     Type
  6936 ;;  quotient        4    9[COMMON] unsigned long 
  6937 ;;  counter         1   13[COMMON] unsigned char 
  6938 ;; Return value:  Size  Location     Type
  6939 ;;                  4    0[COMMON] unsigned long 
  6940 ;; Registers used:
  6941 ;;		wreg, status,2, status,0
  6942 ;; Tracked objects:
  6943 ;;		On entry : 0/0
  6944 ;;		On exit  : 0/0
  6945 ;;		Unchanged: 0/0
  6946 ;; Data sizes:     COMMON   BANK0   BANK1   BANK3   BANK2
  6947 ;;      Params:         8       0       0       0       0
  6948 ;;      Locals:         5       0       0       0       0
  6949 ;;      Temps:          1       0       0       0       0
  6950 ;;      Totals:        14       0       0       0       0
  6951 ;;Total ram usage:       14 bytes
  6952 ;; Hardware stack levels used:    1
  6953 ;; This function calls:
  6954 ;;		Nothing
  6955 ;; This function is called by:
  6956 ;;		_I2C_Master_Init
  6957 ;; This function uses a non-reentrant model
  6958 ;;
  6959                           
  6960                           
  6961                           ;psect for function ___lldiv
  6962  14A0                     ___lldiv:	
  6963  14A0                     l2306:	
  6964                           ;incstack = 0
  6965                           ; Regs used in ___lldiv: [wreg+status,2+status,0]
  6966                           
  6967  14A0  3000               	movlw	0
  6968  14A1  00FC               	movwf	___lldiv@quotient+3
  6969  14A2  3000               	movlw	0
  6970  14A3  00FB               	movwf	___lldiv@quotient+2
  6971  14A4  3000               	movlw	0
  6972  14A5  00FA               	movwf	___lldiv@quotient+1
  6973  14A6  3000               	movlw	0
  6974  14A7  00F9               	movwf	___lldiv@quotient
  6975  14A8  0873               	movf	___lldiv@divisor+3,w
  6976  14A9  0472               	iorwf	___lldiv@divisor+2,w
  6977  14AA  0471               	iorwf	___lldiv@divisor+1,w
  6978  14AB  0470               	iorwf	___lldiv@divisor,w
  6979  14AC  1903               	skipnz
  6980  14AD  2CAF               	goto	u2201
  6981  14AE  2CB0               	goto	u2200
  6982  14AF                     u2201:	
  6983  14AF  2CFD               	goto	l2326
  6984  14B0                     u2200:	
  6985  14B0                     l2308:	
  6986  14B0  01FD               	clrf	___lldiv@counter
  6987  14B1  0AFD               	incf	___lldiv@counter,f
  6988  14B2  2CC0               	goto	l2312
  6989  14B3                     l2310:	
  6990  14B3  3001               	movlw	1
  6991  14B4  00F8               	movwf	??___lldiv
  6992  14B5                     u2215:	
  6993  14B5  1003               	clrc
  6994  14B6  0DF0               	rlf	___lldiv@divisor,f
  6995  14B7  0DF1               	rlf	___lldiv@divisor+1,f
  6996  14B8  0DF2               	rlf	___lldiv@divisor+2,f
  6997  14B9  0DF3               	rlf	___lldiv@divisor+3,f
  6998  14BA  0BF8               	decfsz	??___lldiv,f
  6999  14BB  2CB5               	goto	u2215
  7000  14BC  3001               	movlw	1
  7001  14BD  00F8               	movwf	??___lldiv
  7002  14BE  0878               	movf	??___lldiv,w
  7003  14BF  07FD               	addwf	___lldiv@counter,f
  7004  14C0                     l2312:	
  7005  14C0  1FF3               	btfss	___lldiv@divisor+3,7
  7006  14C1  2CC3               	goto	u2221
  7007  14C2  2CC4               	goto	u2220
  7008  14C3                     u2221:	
  7009  14C3  2CB3               	goto	l2310
  7010  14C4                     u2220:	
  7011  14C4                     l2314:	
  7012  14C4  3001               	movlw	1
  7013  14C5  00F8               	movwf	??___lldiv
  7014  14C6                     u2235:	
  7015  14C6  1003               	clrc
  7016  14C7  0DF9               	rlf	___lldiv@quotient,f
  7017  14C8  0DFA               	rlf	___lldiv@quotient+1,f
  7018  14C9  0DFB               	rlf	___lldiv@quotient+2,f
  7019  14CA  0DFC               	rlf	___lldiv@quotient+3,f
  7020  14CB  0BF8               	decfsz	??___lldiv,f
  7021  14CC  2CC6               	goto	u2235
  7022  14CD                     l2316:	
  7023  14CD  0873               	movf	___lldiv@divisor+3,w
  7024  14CE  0277               	subwf	___lldiv@dividend+3,w
  7025  14CF  1D03               	skipz
  7026  14D0  2CDB               	goto	u2245
  7027  14D1  0872               	movf	___lldiv@divisor+2,w
  7028  14D2  0276               	subwf	___lldiv@dividend+2,w
  7029  14D3  1D03               	skipz
  7030  14D4  2CDB               	goto	u2245
  7031  14D5  0871               	movf	___lldiv@divisor+1,w
  7032  14D6  0275               	subwf	___lldiv@dividend+1,w
  7033  14D7  1D03               	skipz
  7034  14D8  2CDB               	goto	u2245
  7035  14D9  0870               	movf	___lldiv@divisor,w
  7036  14DA  0274               	subwf	___lldiv@dividend,w
  7037  14DB                     u2245:	
  7038  14DB  1C03               	skipc
  7039  14DC  2CDE               	goto	u2241
  7040  14DD  2CDF               	goto	u2240
  7041  14DE                     u2241:	
  7042  14DE  2CEE               	goto	l2322
  7043  14DF                     u2240:	
  7044  14DF                     l2318:	
  7045  14DF  0870               	movf	___lldiv@divisor,w
  7046  14E0  02F4               	subwf	___lldiv@dividend,f
  7047  14E1  0871               	movf	___lldiv@divisor+1,w
  7048  14E2  1C03               	skipc
  7049  14E3  0F71               	incfsz	___lldiv@divisor+1,w
  7050  14E4  02F5               	subwf	___lldiv@dividend+1,f
  7051  14E5  0872               	movf	___lldiv@divisor+2,w
  7052  14E6  1C03               	skipc
  7053  14E7  0F72               	incfsz	___lldiv@divisor+2,w
  7054  14E8  02F6               	subwf	___lldiv@dividend+2,f
  7055  14E9  0873               	movf	___lldiv@divisor+3,w
  7056  14EA  1C03               	skipc
  7057  14EB  0F73               	incfsz	___lldiv@divisor+3,w
  7058  14EC  02F7               	subwf	___lldiv@dividend+3,f
  7059  14ED                     l2320:	
  7060  14ED  1479               	bsf	___lldiv@quotient,0
  7061  14EE                     l2322:	
  7062  14EE  3001               	movlw	1
  7063  14EF                     u2255:	
  7064  14EF  1003               	clrc
  7065  14F0  0CF3               	rrf	___lldiv@divisor+3,f
  7066  14F1  0CF2               	rrf	___lldiv@divisor+2,f
  7067  14F2  0CF1               	rrf	___lldiv@divisor+1,f
  7068  14F3  0CF0               	rrf	___lldiv@divisor,f
  7069  14F4  3EFF               	addlw	-1
  7070  14F5  1D03               	skipz
  7071  14F6  2CEF               	goto	u2255
  7072  14F7                     l2324:	
  7073  14F7  3001               	movlw	1
  7074  14F8  02FD               	subwf	___lldiv@counter,f
  7075  14F9  1D03               	btfss	3,2
  7076  14FA  2CFC               	goto	u2261
  7077  14FB  2CFD               	goto	u2260
  7078  14FC                     u2261:	
  7079  14FC  2CC4               	goto	l2314
  7080  14FD                     u2260:	
  7081  14FD                     l2326:	
  7082  14FD  087C               	movf	___lldiv@quotient+3,w
  7083  14FE  00F3               	movwf	?___lldiv+3
  7084  14FF  087B               	movf	___lldiv@quotient+2,w
  7085  1500  00F2               	movwf	?___lldiv+2
  7086  1501  087A               	movf	___lldiv@quotient+1,w
  7087  1502  00F1               	movwf	?___lldiv+1
  7088  1503  0879               	movf	___lldiv@quotient,w
  7089  1504  00F0               	movwf	?___lldiv
  7090  1505                     l424:	
  7091  1505  0008               	return
  7092  1506                     __end_of___lldiv:	
  7093                           
  7094                           	psect	text17
  7095  12C3                     __ptext17:	
  7096 ;; *************** function ___lwmod *****************
  7097 ;; Defined at:
  7098 ;;		line 5 in file "C:\Program Files (x86)\Microchip\xc8\v2.10\pic\sources\c90\common\lwmod.c"
  7099 ;; Parameters:    Size  Location     Type
  7100 ;;  divisor         2    0[COMMON] unsigned int 
  7101 ;;  dividend        2    2[COMMON] unsigned int 
  7102 ;; Auto vars:     Size  Location     Type
  7103 ;;  counter         1    5[COMMON] unsigned char 
  7104 ;; Return value:  Size  Location     Type
  7105 ;;                  2    0[COMMON] unsigned int 
  7106 ;; Registers used:
  7107 ;;		wreg, status,2, status,0
  7108 ;; Tracked objects:
  7109 ;;		On entry : 0/0
  7110 ;;		On exit  : 0/0
  7111 ;;		Unchanged: 0/0
  7112 ;; Data sizes:     COMMON   BANK0   BANK1   BANK3   BANK2
  7113 ;;      Params:         4       0       0       0       0
  7114 ;;      Locals:         1       0       0       0       0
  7115 ;;      Temps:          1       0       0       0       0
  7116 ;;      Totals:         6       0       0       0       0
  7117 ;;Total ram usage:        6 bytes
  7118 ;; Hardware stack levels used:    1
  7119 ;; This function calls:
  7120 ;;		Nothing
  7121 ;; This function is called by:
  7122 ;;		_main
  7123 ;; This function uses a non-reentrant model
  7124 ;;
  7125                           
  7126                           
  7127                           ;psect for function ___lwmod
  7128  12C3                     ___lwmod:	
  7129  12C3                     l3112:	
  7130                           ;incstack = 0
  7131                           ; Regs used in ___lwmod: [wreg+status,2+status,0]
  7132                           
  7133  12C3  0870               	movf	___lwmod@divisor,w
  7134  12C4  0471               	iorwf	___lwmod@divisor+1,w
  7135  12C5  1903               	btfsc	3,2
  7136  12C6  2AC8               	goto	u3891
  7137  12C7  2AC9               	goto	u3890
  7138  12C8                     u3891:	
  7139  12C8  2AF8               	goto	l3130
  7140  12C9                     u3890:	
  7141  12C9                     l3114:	
  7142  12C9  01F5               	clrf	___lwmod@counter
  7143  12CA  0AF5               	incf	___lwmod@counter,f
  7144  12CB  2AD7               	goto	l3120
  7145  12CC                     l3116:	
  7146  12CC  3001               	movlw	1
  7147  12CD                     u3905:	
  7148  12CD  1003               	clrc
  7149  12CE  0DF0               	rlf	___lwmod@divisor,f
  7150  12CF  0DF1               	rlf	___lwmod@divisor+1,f
  7151  12D0  3EFF               	addlw	-1
  7152  12D1  1D03               	skipz
  7153  12D2  2ACD               	goto	u3905
  7154  12D3                     l3118:	
  7155  12D3  3001               	movlw	1
  7156  12D4  00F4               	movwf	??___lwmod
  7157  12D5  0874               	movf	??___lwmod,w
  7158  12D6  07F5               	addwf	___lwmod@counter,f
  7159  12D7                     l3120:	
  7160  12D7  1FF1               	btfss	___lwmod@divisor+1,7
  7161  12D8  2ADA               	goto	u3911
  7162  12D9  2ADB               	goto	u3910
  7163  12DA                     u3911:	
  7164  12DA  2ACC               	goto	l3116
  7165  12DB                     u3910:	
  7166  12DB                     l3122:	
  7167  12DB  0871               	movf	___lwmod@divisor+1,w
  7168  12DC  0273               	subwf	___lwmod@dividend+1,w
  7169  12DD  1D03               	skipz
  7170  12DE  2AE1               	goto	u3925
  7171  12DF  0870               	movf	___lwmod@divisor,w
  7172  12E0  0272               	subwf	___lwmod@dividend,w
  7173  12E1                     u3925:	
  7174  12E1  1C03               	skipc
  7175  12E2  2AE4               	goto	u3921
  7176  12E3  2AE5               	goto	u3920
  7177  12E4                     u3921:	
  7178  12E4  2AEB               	goto	l3126
  7179  12E5                     u3920:	
  7180  12E5                     l3124:	
  7181  12E5  0870               	movf	___lwmod@divisor,w
  7182  12E6  02F2               	subwf	___lwmod@dividend,f
  7183  12E7  0871               	movf	___lwmod@divisor+1,w
  7184  12E8  1C03               	skipc
  7185  12E9  03F3               	decf	___lwmod@dividend+1,f
  7186  12EA  02F3               	subwf	___lwmod@dividend+1,f
  7187  12EB                     l3126:	
  7188  12EB  3001               	movlw	1
  7189  12EC                     u3935:	
  7190  12EC  1003               	clrc
  7191  12ED  0CF1               	rrf	___lwmod@divisor+1,f
  7192  12EE  0CF0               	rrf	___lwmod@divisor,f
  7193  12EF  3EFF               	addlw	-1
  7194  12F0  1D03               	skipz
  7195  12F1  2AEC               	goto	u3935
  7196  12F2                     l3128:	
  7197  12F2  3001               	movlw	1
  7198  12F3  02F5               	subwf	___lwmod@counter,f
  7199  12F4  1D03               	btfss	3,2
  7200  12F5  2AF7               	goto	u3941
  7201  12F6  2AF8               	goto	u3940
  7202  12F7                     u3941:	
  7203  12F7  2ADB               	goto	l3122
  7204  12F8                     u3940:	
  7205  12F8                     l3130:	
  7206  12F8  0873               	movf	___lwmod@dividend+1,w
  7207  12F9  00F1               	movwf	?___lwmod+1
  7208  12FA  0872               	movf	___lwmod@dividend,w
  7209  12FB  00F0               	movwf	?___lwmod
  7210  12FC                     l670:	
  7211  12FC  0008               	return
  7212  12FD                     __end_of___lwmod:	
  7213                           
  7214                           	psect	text18
  7215  12FD                     __ptext18:	
  7216 ;; *************** function ___lwdiv *****************
  7217 ;; Defined at:
  7218 ;;		line 5 in file "C:\Program Files (x86)\Microchip\xc8\v2.10\pic\sources\c90\common\lwdiv.c"
  7219 ;; Parameters:    Size  Location     Type
  7220 ;;  divisor         2    0[COMMON] unsigned int 
  7221 ;;  dividend        2    2[COMMON] unsigned int 
  7222 ;; Auto vars:     Size  Location     Type
  7223 ;;  quotient        2    5[COMMON] unsigned int 
  7224 ;;  counter         1    7[COMMON] unsigned char 
  7225 ;; Return value:  Size  Location     Type
  7226 ;;                  2    0[COMMON] unsigned int 
  7227 ;; Registers used:
  7228 ;;		wreg, status,2, status,0
  7229 ;; Tracked objects:
  7230 ;;		On entry : 0/0
  7231 ;;		On exit  : 0/0
  7232 ;;		Unchanged: 0/0
  7233 ;; Data sizes:     COMMON   BANK0   BANK1   BANK3   BANK2
  7234 ;;      Params:         4       0       0       0       0
  7235 ;;      Locals:         3       0       0       0       0
  7236 ;;      Temps:          1       0       0       0       0
  7237 ;;      Totals:         8       0       0       0       0
  7238 ;;Total ram usage:        8 bytes
  7239 ;; Hardware stack levels used:    1
  7240 ;; This function calls:
  7241 ;;		Nothing
  7242 ;; This function is called by:
  7243 ;;		_main
  7244 ;; This function uses a non-reentrant model
  7245 ;;
  7246                           
  7247                           
  7248                           ;psect for function ___lwdiv
  7249  12FD                     ___lwdiv:	
  7250  12FD                     l3086:	
  7251                           ;incstack = 0
  7252                           ; Regs used in ___lwdiv: [wreg+status,2+status,0]
  7253                           
  7254  12FD  01F5               	clrf	___lwdiv@quotient
  7255  12FE  01F6               	clrf	___lwdiv@quotient+1
  7256  12FF                     l3088:	
  7257  12FF  0870               	movf	___lwdiv@divisor,w
  7258  1300  0471               	iorwf	___lwdiv@divisor+1,w
  7259  1301  1903               	btfsc	3,2
  7260  1302  2B04               	goto	u3821
  7261  1303  2B05               	goto	u3820
  7262  1304                     u3821:	
  7263  1304  2B3C               	goto	l3108
  7264  1305                     u3820:	
  7265  1305                     l3090:	
  7266  1305  01F7               	clrf	___lwdiv@counter
  7267  1306  0AF7               	incf	___lwdiv@counter,f
  7268  1307  2B13               	goto	l3096
  7269  1308                     l3092:	
  7270  1308  3001               	movlw	1
  7271  1309                     u3835:	
  7272  1309  1003               	clrc
  7273  130A  0DF0               	rlf	___lwdiv@divisor,f
  7274  130B  0DF1               	rlf	___lwdiv@divisor+1,f
  7275  130C  3EFF               	addlw	-1
  7276  130D  1D03               	skipz
  7277  130E  2B09               	goto	u3835
  7278  130F                     l3094:	
  7279  130F  3001               	movlw	1
  7280  1310  00F4               	movwf	??___lwdiv
  7281  1311  0874               	movf	??___lwdiv,w
  7282  1312  07F7               	addwf	___lwdiv@counter,f
  7283  1313                     l3096:	
  7284  1313  1FF1               	btfss	___lwdiv@divisor+1,7
  7285  1314  2B16               	goto	u3841
  7286  1315  2B17               	goto	u3840
  7287  1316                     u3841:	
  7288  1316  2B08               	goto	l3092
  7289  1317                     u3840:	
  7290  1317                     l3098:	
  7291  1317  3001               	movlw	1
  7292  1318                     u3855:	
  7293  1318  1003               	clrc
  7294  1319  0DF5               	rlf	___lwdiv@quotient,f
  7295  131A  0DF6               	rlf	___lwdiv@quotient+1,f
  7296  131B  3EFF               	addlw	-1
  7297  131C  1D03               	skipz
  7298  131D  2B18               	goto	u3855
  7299  131E  0871               	movf	___lwdiv@divisor+1,w
  7300  131F  0273               	subwf	___lwdiv@dividend+1,w
  7301  1320  1D03               	skipz
  7302  1321  2B24               	goto	u3865
  7303  1322  0870               	movf	___lwdiv@divisor,w
  7304  1323  0272               	subwf	___lwdiv@dividend,w
  7305  1324                     u3865:	
  7306  1324  1C03               	skipc
  7307  1325  2B27               	goto	u3861
  7308  1326  2B28               	goto	u3860
  7309  1327                     u3861:	
  7310  1327  2B2F               	goto	l3104
  7311  1328                     u3860:	
  7312  1328                     l3100:	
  7313  1328  0870               	movf	___lwdiv@divisor,w
  7314  1329  02F2               	subwf	___lwdiv@dividend,f
  7315  132A  0871               	movf	___lwdiv@divisor+1,w
  7316  132B  1C03               	skipc
  7317  132C  03F3               	decf	___lwdiv@dividend+1,f
  7318  132D  02F3               	subwf	___lwdiv@dividend+1,f
  7319  132E                     l3102:	
  7320  132E  1475               	bsf	___lwdiv@quotient,0
  7321  132F                     l3104:	
  7322  132F  3001               	movlw	1
  7323  1330                     u3875:	
  7324  1330  1003               	clrc
  7325  1331  0CF1               	rrf	___lwdiv@divisor+1,f
  7326  1332  0CF0               	rrf	___lwdiv@divisor,f
  7327  1333  3EFF               	addlw	-1
  7328  1334  1D03               	skipz
  7329  1335  2B30               	goto	u3875
  7330  1336                     l3106:	
  7331  1336  3001               	movlw	1
  7332  1337  02F7               	subwf	___lwdiv@counter,f
  7333  1338  1D03               	btfss	3,2
  7334  1339  2B3B               	goto	u3881
  7335  133A  2B3C               	goto	u3880
  7336  133B                     u3881:	
  7337  133B  2B17               	goto	l3098
  7338  133C                     u3880:	
  7339  133C                     l3108:	
  7340  133C  0876               	movf	___lwdiv@quotient+1,w
  7341  133D  00F1               	movwf	?___lwdiv+1
  7342  133E  0875               	movf	___lwdiv@quotient,w
  7343  133F  00F0               	movwf	?___lwdiv
  7344  1340                     l660:	
  7345  1340  0008               	return
  7346  1341                     __end_of___lwdiv:	
  7347                           
  7348                           	psect	text19
  7349  156D                     __ptext19:	
  7350 ;; *************** function ___fltol *****************
  7351 ;; Defined at:
  7352 ;;		line 43 in file "C:\Program Files (x86)\Microchip\xc8\v2.10\pic\sources\c90\common\fltol.c"
  7353 ;; Parameters:    Size  Location     Type
  7354 ;;  f1              4    0[COMMON] unsigned int 
  7355 ;; Auto vars:     Size  Location     Type
  7356 ;;  exp1            1   10[COMMON] unsigned char 
  7357 ;;  sign1           1    9[COMMON] unsigned char 
  7358 ;; Return value:  Size  Location     Type
  7359 ;;                  4    0[COMMON] long 
  7360 ;; Registers used:
  7361 ;;		wreg, status,2, status,0
  7362 ;; Tracked objects:
  7363 ;;		On entry : 0/0
  7364 ;;		On exit  : 0/0
  7365 ;;		Unchanged: 0/0
  7366 ;; Data sizes:     COMMON   BANK0   BANK1   BANK3   BANK2
  7367 ;;      Params:         4       0       0       0       0
  7368 ;;      Locals:         2       0       0       0       0
  7369 ;;      Temps:          5       0       0       0       0
  7370 ;;      Totals:        11       0       0       0       0
  7371 ;;Total ram usage:       11 bytes
  7372 ;; Hardware stack levels used:    1
  7373 ;; This function calls:
  7374 ;;		Nothing
  7375 ;; This function is called by:
  7376 ;;		_main
  7377 ;; This function uses a non-reentrant model
  7378 ;;
  7379                           
  7380                           
  7381                           ;psect for function ___fltol
  7382  156D                     ___fltol:	
  7383  156D                     l3050:	
  7384                           ;incstack = 0
  7385                           ; Regs used in ___fltol: [wreg+status,2+status,0]
  7386                           
  7387  156D  1003               	clrc
  7388  156E  0D72               	rlf	___fltol@f1+2,w
  7389  156F  0D73               	rlf	___fltol@f1+3,w
  7390  1570  00F4               	movwf	??___fltol
  7391  1571  0874               	movf	??___fltol,w
  7392  1572  00FA               	movwf	___fltol@exp1
  7393  1573  087A               	movf	___fltol@exp1,w
  7394  1574  1D03               	btfss	3,2
  7395  1575  2D77               	goto	u3721
  7396  1576  2D78               	goto	u3720
  7397  1577                     u3721:	
  7398  1577  2D81               	goto	l3056
  7399  1578                     u3720:	
  7400  1578                     l3052:	
  7401  1578  3000               	movlw	0
  7402  1579  00F3               	movwf	?___fltol+3
  7403  157A  3000               	movlw	0
  7404  157B  00F2               	movwf	?___fltol+2
  7405  157C  3000               	movlw	0
  7406  157D  00F1               	movwf	?___fltol+1
  7407  157E  3000               	movlw	0
  7408  157F  00F0               	movwf	?___fltol
  7409  1580  2DE6               	goto	l574
  7410  1581                     l3056:	
  7411  1581  0870               	movf	___fltol@f1,w
  7412  1582  00F4               	movwf	??___fltol
  7413  1583  0871               	movf	___fltol@f1+1,w
  7414  1584  00F5               	movwf	??___fltol+1
  7415  1585  0872               	movf	___fltol@f1+2,w
  7416  1586  00F6               	movwf	??___fltol+2
  7417  1587  0873               	movf	___fltol@f1+3,w
  7418  1588  00F7               	movwf	??___fltol+3
  7419  1589  301F               	movlw	31
  7420  158A                     u3735:	
  7421  158A  1003               	clrc
  7422  158B  0CF7               	rrf	??___fltol+3,f
  7423  158C  0CF6               	rrf	??___fltol+2,f
  7424  158D  0CF5               	rrf	??___fltol+1,f
  7425  158E  0CF4               	rrf	??___fltol,f
  7426  158F                     u3730:	
  7427  158F  3EFF               	addlw	-1
  7428  1590  1D03               	skipz
  7429  1591  2D8A               	goto	u3735
  7430  1592  0874               	movf	??___fltol,w
  7431  1593  00F8               	movwf	??___fltol+4
  7432  1594  0878               	movf	??___fltol+4,w
  7433  1595  00F9               	movwf	___fltol@sign1
  7434  1596                     l3058:	
  7435  1596  17F2               	bsf	___fltol@f1+2,7
  7436  1597                     l3060:	
  7437  1597  30FF               	movlw	255
  7438  1598  05F0               	andwf	___fltol@f1,f
  7439  1599  30FF               	movlw	255
  7440  159A  05F1               	andwf	___fltol@f1+1,f
  7441  159B  30FF               	movlw	255
  7442  159C  05F2               	andwf	___fltol@f1+2,f
  7443  159D  3000               	movlw	0
  7444  159E  05F3               	andwf	___fltol@f1+3,f
  7445  159F                     l3062:	
  7446  159F  3096               	movlw	150
  7447  15A0  02FA               	subwf	___fltol@exp1,f
  7448  15A1                     l3064:	
  7449  15A1  1FFA               	btfss	___fltol@exp1,7
  7450  15A2  2DA4               	goto	u3741
  7451  15A3  2DA5               	goto	u3740
  7452  15A4                     u3741:	
  7453  15A4  2DBF               	goto	l3074
  7454  15A5                     u3740:	
  7455  15A5                     l3066:	
  7456  15A5  087A               	movf	___fltol@exp1,w
  7457  15A6  3A80               	xorlw	128
  7458  15A7  3E97               	addlw	151
  7459  15A8  1803               	skipnc
  7460  15A9  2DAB               	goto	u3751
  7461  15AA  2DAC               	goto	u3750
  7462  15AB                     u3751:	
  7463  15AB  2DAD               	goto	l3072
  7464  15AC                     u3750:	
  7465  15AC  2D78               	goto	l3052
  7466  15AD                     l3072:	
  7467  15AD  3001               	movlw	1
  7468  15AE                     u3765:	
  7469  15AE  1003               	clrc
  7470  15AF  0CF3               	rrf	___fltol@f1+3,f
  7471  15B0  0CF2               	rrf	___fltol@f1+2,f
  7472  15B1  0CF1               	rrf	___fltol@f1+1,f
  7473  15B2  0CF0               	rrf	___fltol@f1,f
  7474  15B3  3EFF               	addlw	-1
  7475  15B4  1D03               	skipz
  7476  15B5  2DAE               	goto	u3765
  7477  15B6  3001               	movlw	1
  7478  15B7  00F4               	movwf	??___fltol
  7479  15B8  0874               	movf	??___fltol,w
  7480  15B9  07FA               	addwf	___fltol@exp1,f
  7481  15BA  1D03               	btfss	3,2
  7482  15BB  2DBD               	goto	u3771
  7483  15BC  2DBE               	goto	u3770
  7484  15BD                     u3771:	
  7485  15BD  2DAD               	goto	l3072
  7486  15BE                     u3770:	
  7487  15BE  2DD6               	goto	l3082
  7488  15BF                     l3074:	
  7489  15BF  3020               	movlw	32
  7490  15C0  027A               	subwf	___fltol@exp1,w
  7491  15C1  1C03               	skipc
  7492  15C2  2DC4               	goto	u3781
  7493  15C3  2DC5               	goto	u3780
  7494  15C4                     u3781:	
  7495  15C4  2DD1               	goto	l581
  7496  15C5                     u3780:	
  7497  15C5  2D78               	goto	l3052
  7498  15C6                     l3080:	
  7499  15C6  3001               	movlw	1
  7500  15C7  00F4               	movwf	??___fltol
  7501  15C8                     u3795:	
  7502  15C8  1003               	clrc
  7503  15C9  0DF0               	rlf	___fltol@f1,f
  7504  15CA  0DF1               	rlf	___fltol@f1+1,f
  7505  15CB  0DF2               	rlf	___fltol@f1+2,f
  7506  15CC  0DF3               	rlf	___fltol@f1+3,f
  7507  15CD  0BF4               	decfsz	??___fltol,f
  7508  15CE  2DC8               	goto	u3795
  7509  15CF  3001               	movlw	1
  7510  15D0  02FA               	subwf	___fltol@exp1,f
  7511  15D1                     l581:	
  7512  15D1  087A               	movf	___fltol@exp1,w
  7513  15D2  1D03               	btfss	3,2
  7514  15D3  2DD5               	goto	u3801
  7515  15D4  2DD6               	goto	u3800
  7516  15D5                     u3801:	
  7517  15D5  2DC6               	goto	l3080
  7518  15D6                     u3800:	
  7519  15D6                     l3082:	
  7520  15D6  0879               	movf	___fltol@sign1,w
  7521  15D7  1903               	btfsc	3,2
  7522  15D8  2DDA               	goto	u3811
  7523  15D9  2DDB               	goto	u3810
  7524  15DA                     u3811:	
  7525  15DA  2DE6               	goto	l584
  7526  15DB                     u3810:	
  7527  15DB                     l3084:	
  7528  15DB  09F0               	comf	___fltol@f1,f
  7529  15DC  09F1               	comf	___fltol@f1+1,f
  7530  15DD  09F2               	comf	___fltol@f1+2,f
  7531  15DE  09F3               	comf	___fltol@f1+3,f
  7532  15DF  0AF0               	incf	___fltol@f1,f
  7533  15E0  1903               	skipnz
  7534  15E1  0AF1               	incf	___fltol@f1+1,f
  7535  15E2  1903               	skipnz
  7536  15E3  0AF2               	incf	___fltol@f1+2,f
  7537  15E4  1903               	skipnz
  7538  15E5  0AF3               	incf	___fltol@f1+3,f
  7539  15E6                     l584:	
  7540  15E6                     l574:	
  7541  15E6  0008               	return
  7542  15E7                     __end_of___fltol:	
  7543                           
  7544                           	psect	text20
  7545  0043                     __ptext20:	
  7546 ;; *************** function ___fldiv *****************
  7547 ;; Defined at:
  7548 ;;		line 8 in file "C:\Program Files (x86)\Microchip\xc8\v2.10\pic\sources\c90\common\sprcdiv.c"
  7549 ;; Parameters:    Size  Location     Type
  7550 ;;  a               4    5[BANK0 ] long 
  7551 ;;  b               4    9[BANK0 ] long 
  7552 ;; Auto vars:     Size  Location     Type
  7553 ;;  grs             4   25[BANK0 ] unsigned long 
  7554 ;;  rem             4   18[BANK0 ] unsigned long 
  7555 ;;  new_exp         2   23[BANK0 ] int 
  7556 ;;  aexp            1   30[BANK0 ] unsigned char 
  7557 ;;  bexp            1   29[BANK0 ] unsigned char 
  7558 ;;  sign            1   22[BANK0 ] unsigned char 
  7559 ;; Return value:  Size  Location     Type
  7560 ;;                  4    5[BANK0 ] unsigned char 
  7561 ;; Registers used:
  7562 ;;		wreg, status,2, status,0, btemp+1
  7563 ;; Tracked objects:
  7564 ;;		On entry : 0/0
  7565 ;;		On exit  : 0/0
  7566 ;;		Unchanged: 0/0
  7567 ;; Data sizes:     COMMON   BANK0   BANK1   BANK3   BANK2
  7568 ;;      Params:         0       8       0       0       0
  7569 ;;      Locals:         0      13       0       0       0
  7570 ;;      Temps:          0       5       0       0       0
  7571 ;;      Totals:         0      26       0       0       0
  7572 ;;Total ram usage:       26 bytes
  7573 ;; Hardware stack levels used:    1
  7574 ;; This function calls:
  7575 ;;		Nothing
  7576 ;; This function is called by:
  7577 ;;		_main
  7578 ;; This function uses a non-reentrant model
  7579 ;;
  7580                           
  7581                           
  7582                           ;psect for function ___fldiv
  7583  0043                     ___fldiv:	
  7584  0043                     l3134:	
  7585                           ;incstack = 0
  7586                           ; Regs used in ___fldiv: [wreg+status,2+status,0+btemp+1]
  7587                           
  7588  0043  1283               	bcf	3,5	;RP0=0, select bank0
  7589  0044  1303               	bcf	3,6	;RP1=0, select bank0
  7590  0045  082C               	movf	___fldiv@b+3,w
  7591  0046  3980               	andlw	128
  7592  0047  00AD               	movwf	??___fldiv
  7593  0048  082D               	movf	??___fldiv,w
  7594  0049  00B6               	movwf	___fldiv@sign
  7595  004A                     l3136:	
  7596  004A  082C               	movf	___fldiv@b+3,w
  7597  004B  00AD               	movwf	??___fldiv
  7598  004C  072D               	addwf	??___fldiv,w
  7599  004D  00AE               	movwf	??___fldiv+1
  7600  004E  082E               	movf	??___fldiv+1,w
  7601  004F  00BD               	movwf	___fldiv@bexp
  7602  0050                     l3138:	
  7603  0050  1FAB               	btfss	___fldiv@b+2,7
  7604  0051  2853               	goto	u3951
  7605  0052  2854               	goto	u3950
  7606  0053                     u3951:	
  7607  0053  2855               	goto	l3142
  7608  0054                     u3950:	
  7609  0054                     l3140:	
  7610  0054  143D               	bsf	___fldiv@bexp,0
  7611  0055                     l3142:	
  7612  0055  083D               	movf	___fldiv@bexp,w
  7613  0056  1903               	btfsc	3,2
  7614  0057  2859               	goto	u3961
  7615  0058  285A               	goto	u3960
  7616  0059                     u3961:	
  7617  0059  286A               	goto	l3152
  7618  005A                     u3960:	
  7619  005A                     l3144:	
  7620  005A  0A3D               	incf	___fldiv@bexp,w
  7621  005B  1D03               	btfss	3,2
  7622  005C  285E               	goto	u3971
  7623  005D  285F               	goto	u3970
  7624  005E                     u3971:	
  7625  005E  2867               	goto	l3148
  7626  005F                     u3970:	
  7627  005F                     l3146:	
  7628  005F  3000               	movlw	0
  7629  0060  00AC               	movwf	___fldiv@b+3
  7630  0061  3000               	movlw	0
  7631  0062  00AB               	movwf	___fldiv@b+2
  7632  0063  3000               	movlw	0
  7633  0064  00AA               	movwf	___fldiv@b+1
  7634  0065  3000               	movlw	0
  7635  0066  00A9               	movwf	___fldiv@b
  7636  0067                     l3148:	
  7637  0067  17AB               	bsf	___fldiv@b+2,7
  7638  0068                     l3150:	
  7639  0068  01AC               	clrf	___fldiv@b+3
  7640  0069  2872               	goto	l3154
  7641  006A                     l3152:	
  7642  006A  3000               	movlw	0
  7643  006B  00AC               	movwf	___fldiv@b+3
  7644  006C  3000               	movlw	0
  7645  006D  00AB               	movwf	___fldiv@b+2
  7646  006E  3000               	movlw	0
  7647  006F  00AA               	movwf	___fldiv@b+1
  7648  0070  3000               	movlw	0
  7649  0071  00A9               	movwf	___fldiv@b
  7650  0072                     l3154:	
  7651  0072  0828               	movf	___fldiv@a+3,w
  7652  0073  3980               	andlw	128
  7653  0074  00AD               	movwf	??___fldiv
  7654  0075  082D               	movf	??___fldiv,w
  7655  0076  06B6               	xorwf	___fldiv@sign,f
  7656  0077                     l3156:	
  7657  0077  0828               	movf	___fldiv@a+3,w
  7658  0078  00AD               	movwf	??___fldiv
  7659  0079  072D               	addwf	??___fldiv,w
  7660  007A  00AE               	movwf	??___fldiv+1
  7661  007B  082E               	movf	??___fldiv+1,w
  7662  007C  00BE               	movwf	___fldiv@aexp
  7663  007D                     l3158:	
  7664  007D  1FA7               	btfss	___fldiv@a+2,7
  7665  007E  2880               	goto	u3981
  7666  007F  2881               	goto	u3980
  7667  0080                     u3981:	
  7668  0080  2882               	goto	l3162
  7669  0081                     u3980:	
  7670  0081                     l3160:	
  7671  0081  143E               	bsf	___fldiv@aexp,0
  7672  0082                     l3162:	
  7673  0082  083E               	movf	___fldiv@aexp,w
  7674  0083  1903               	btfsc	3,2
  7675  0084  2886               	goto	u3991
  7676  0085  2887               	goto	u3990
  7677  0086                     u3991:	
  7678  0086  2897               	goto	l3172
  7679  0087                     u3990:	
  7680  0087                     l3164:	
  7681  0087  0A3E               	incf	___fldiv@aexp,w
  7682  0088  1D03               	btfss	3,2
  7683  0089  288B               	goto	u4001
  7684  008A  288C               	goto	u4000
  7685  008B                     u4001:	
  7686  008B  2894               	goto	l3168
  7687  008C                     u4000:	
  7688  008C                     l3166:	
  7689  008C  3000               	movlw	0
  7690  008D  00A8               	movwf	___fldiv@a+3
  7691  008E  3000               	movlw	0
  7692  008F  00A7               	movwf	___fldiv@a+2
  7693  0090  3000               	movlw	0
  7694  0091  00A6               	movwf	___fldiv@a+1
  7695  0092  3000               	movlw	0
  7696  0093  00A5               	movwf	___fldiv@a
  7697  0094                     l3168:	
  7698  0094  17A7               	bsf	___fldiv@a+2,7
  7699  0095                     l3170:	
  7700  0095  01A8               	clrf	___fldiv@a+3
  7701  0096  289F               	goto	l737
  7702  0097                     l3172:	
  7703  0097  3000               	movlw	0
  7704  0098  00A8               	movwf	___fldiv@a+3
  7705  0099  3000               	movlw	0
  7706  009A  00A7               	movwf	___fldiv@a+2
  7707  009B  3000               	movlw	0
  7708  009C  00A6               	movwf	___fldiv@a+1
  7709  009D  3000               	movlw	0
  7710  009E  00A5               	movwf	___fldiv@a
  7711  009F                     l737:	
  7712  009F  0828               	movf	___fldiv@a+3,w
  7713  00A0  0427               	iorwf	___fldiv@a+2,w
  7714  00A1  0426               	iorwf	___fldiv@a+1,w
  7715  00A2  0425               	iorwf	___fldiv@a,w
  7716  00A3  1D03               	skipz
  7717  00A4  28A6               	goto	u4011
  7718  00A5  28A7               	goto	u4010
  7719  00A6                     u4011:	
  7720  00A6  28C0               	goto	l3182
  7721  00A7                     u4010:	
  7722  00A7                     l3174:	
  7723  00A7  3000               	movlw	0
  7724  00A8  00AC               	movwf	___fldiv@b+3
  7725  00A9  3000               	movlw	0
  7726  00AA  00AB               	movwf	___fldiv@b+2
  7727  00AB  3000               	movlw	0
  7728  00AC  00AA               	movwf	___fldiv@b+1
  7729  00AD  3000               	movlw	0
  7730  00AE  00A9               	movwf	___fldiv@b
  7731  00AF  3080               	movlw	128
  7732  00B0  04AB               	iorwf	___fldiv@b+2,f
  7733  00B1  307F               	movlw	127
  7734  00B2  04AC               	iorwf	___fldiv@b+3,f
  7735  00B3                     l3176:	
  7736  00B3  0836               	movf	___fldiv@sign,w
  7737  00B4  00AD               	movwf	??___fldiv
  7738  00B5  082D               	movf	??___fldiv,w
  7739  00B6  04AC               	iorwf	___fldiv@b+3,f
  7740  00B7                     l3178:	
  7741  00B7  082C               	movf	___fldiv@b+3,w
  7742  00B8  00A8               	movwf	?___fldiv+3
  7743  00B9  082B               	movf	___fldiv@b+2,w
  7744  00BA  00A7               	movwf	?___fldiv+2
  7745  00BB  082A               	movf	___fldiv@b+1,w
  7746  00BC  00A6               	movwf	?___fldiv+1
  7747  00BD  0829               	movf	___fldiv@b,w
  7748  00BE  00A5               	movwf	?___fldiv
  7749  00BF  2A1F               	goto	l739
  7750  00C0                     l3182:	
  7751  00C0  083D               	movf	___fldiv@bexp,w
  7752  00C1  1D03               	btfss	3,2
  7753  00C2  28C4               	goto	u4021
  7754  00C3  28C5               	goto	u4020
  7755  00C4                     u4021:	
  7756  00C4  28CE               	goto	l3188
  7757  00C5                     u4020:	
  7758  00C5                     l3184:	
  7759  00C5  3000               	movlw	0
  7760  00C6  00A8               	movwf	?___fldiv+3
  7761  00C7  3000               	movlw	0
  7762  00C8  00A7               	movwf	?___fldiv+2
  7763  00C9  3000               	movlw	0
  7764  00CA  00A6               	movwf	?___fldiv+1
  7765  00CB  3000               	movlw	0
  7766  00CC  00A5               	movwf	?___fldiv
  7767  00CD  2A1F               	goto	l739
  7768  00CE                     l3188:	
  7769  00CE  083D               	movf	___fldiv@bexp,w
  7770  00CF  00AD               	movwf	??___fldiv
  7771  00D0  01AE               	clrf	??___fldiv+1
  7772  00D1  082E               	movf	??___fldiv+1,w
  7773  00D2  00B0               	movwf	??___fldiv+3
  7774  00D3  083E               	movf	___fldiv@aexp,w
  7775  00D4  022D               	subwf	??___fldiv,w
  7776  00D5  00AF               	movwf	??___fldiv+2
  7777  00D6  1C03               	skipc
  7778  00D7  03B0               	decf	??___fldiv+3,f
  7779  00D8  082F               	movf	??___fldiv+2,w
  7780  00D9  3E7F               	addlw	127
  7781  00DA  00B7               	movwf	___fldiv@new_exp
  7782  00DB  0830               	movf	??___fldiv+3,w
  7783  00DC  1803               	skipnc
  7784  00DD  3E01               	addlw	1
  7785  00DE  3E00               	addlw	0
  7786  00DF  00B8               	movwf	___fldiv@new_exp+1
  7787  00E0                     l3190:	
  7788  00E0  082C               	movf	___fldiv@b+3,w
  7789  00E1  00B5               	movwf	___fldiv@rem+3
  7790  00E2  082B               	movf	___fldiv@b+2,w
  7791  00E3  00B4               	movwf	___fldiv@rem+2
  7792  00E4  082A               	movf	___fldiv@b+1,w
  7793  00E5  00B3               	movwf	___fldiv@rem+1
  7794  00E6  0829               	movf	___fldiv@b,w
  7795  00E7  00B2               	movwf	___fldiv@rem
  7796  00E8                     l3192:	
  7797  00E8  3000               	movlw	0
  7798  00E9  00AC               	movwf	___fldiv@b+3
  7799  00EA  3000               	movlw	0
  7800  00EB  00AB               	movwf	___fldiv@b+2
  7801  00EC  3000               	movlw	0
  7802  00ED  00AA               	movwf	___fldiv@b+1
  7803  00EE  3000               	movlw	0
  7804  00EF  00A9               	movwf	___fldiv@b
  7805  00F0                     l3194:	
  7806  00F0  3000               	movlw	0
  7807  00F1  00BC               	movwf	___fldiv@grs+3
  7808  00F2  3000               	movlw	0
  7809  00F3  00BB               	movwf	___fldiv@grs+2
  7810  00F4  3000               	movlw	0
  7811  00F5  00BA               	movwf	___fldiv@grs+1
  7812  00F6  3000               	movlw	0
  7813  00F7  00B9               	movwf	___fldiv@grs
  7814  00F8                     l3196:	
  7815  00F8  01BE               	clrf	___fldiv@aexp
  7816  00F9  2944               	goto	l3216
  7817  00FA                     l3198:	
  7818  00FA  083E               	movf	___fldiv@aexp,w
  7819  00FB  1903               	btfsc	3,2
  7820  00FC  28FE               	goto	u4031
  7821  00FD  28FF               	goto	u4030
  7822  00FE                     u4031:	
  7823  00FE  291F               	goto	l3208
  7824  00FF                     u4030:	
  7825  00FF                     l3200:	
  7826  00FF  3001               	movlw	1
  7827  0100  00AD               	movwf	??___fldiv
  7828  0101                     u4045:	
  7829  0101  1003               	clrc
  7830  0102  0DB2               	rlf	___fldiv@rem,f
  7831  0103  0DB3               	rlf	___fldiv@rem+1,f
  7832  0104  0DB4               	rlf	___fldiv@rem+2,f
  7833  0105  0DB5               	rlf	___fldiv@rem+3,f
  7834  0106  0BAD               	decfsz	??___fldiv,f
  7835  0107  2901               	goto	u4045
  7836  0108  3001               	movlw	1
  7837  0109  00AD               	movwf	??___fldiv
  7838  010A                     u4055:	
  7839  010A  1003               	clrc
  7840  010B  0DA9               	rlf	___fldiv@b,f
  7841  010C  0DAA               	rlf	___fldiv@b+1,f
  7842  010D  0DAB               	rlf	___fldiv@b+2,f
  7843  010E  0DAC               	rlf	___fldiv@b+3,f
  7844  010F  0BAD               	decfsz	??___fldiv,f
  7845  0110  290A               	goto	u4055
  7846  0111                     l3202:	
  7847  0111  1FBC               	btfss	___fldiv@grs+3,7
  7848  0112  2914               	goto	u4061
  7849  0113  2915               	goto	u4060
  7850  0114                     u4061:	
  7851  0114  2916               	goto	l3206
  7852  0115                     u4060:	
  7853  0115                     l3204:	
  7854  0115  1429               	bsf	___fldiv@b,0
  7855  0116                     l3206:	
  7856  0116  3001               	movlw	1
  7857  0117  00AD               	movwf	??___fldiv
  7858  0118                     u4075:	
  7859  0118  1003               	clrc
  7860  0119  0DB9               	rlf	___fldiv@grs,f
  7861  011A  0DBA               	rlf	___fldiv@grs+1,f
  7862  011B  0DBB               	rlf	___fldiv@grs+2,f
  7863  011C  0DBC               	rlf	___fldiv@grs+3,f
  7864  011D  0BAD               	decfsz	??___fldiv,f
  7865  011E  2918               	goto	u4075
  7866  011F                     l3208:	
  7867  011F  0828               	movf	___fldiv@a+3,w
  7868  0120  0235               	subwf	___fldiv@rem+3,w
  7869  0121  1D03               	skipz
  7870  0122  292D               	goto	u4085
  7871  0123  0827               	movf	___fldiv@a+2,w
  7872  0124  0234               	subwf	___fldiv@rem+2,w
  7873  0125  1D03               	skipz
  7874  0126  292D               	goto	u4085
  7875  0127  0826               	movf	___fldiv@a+1,w
  7876  0128  0233               	subwf	___fldiv@rem+1,w
  7877  0129  1D03               	skipz
  7878  012A  292D               	goto	u4085
  7879  012B  0825               	movf	___fldiv@a,w
  7880  012C  0232               	subwf	___fldiv@rem,w
  7881  012D                     u4085:	
  7882  012D  1C03               	skipc
  7883  012E  2930               	goto	u4081
  7884  012F  2931               	goto	u4080
  7885  0130                     u4081:	
  7886  0130  2940               	goto	l3214
  7887  0131                     u4080:	
  7888  0131                     l3210:	
  7889  0131  173C               	bsf	___fldiv@grs+3,6
  7890  0132                     l3212:	
  7891  0132  0825               	movf	___fldiv@a,w
  7892  0133  02B2               	subwf	___fldiv@rem,f
  7893  0134  0826               	movf	___fldiv@a+1,w
  7894  0135  1C03               	skipc
  7895  0136  0F26               	incfsz	___fldiv@a+1,w
  7896  0137  02B3               	subwf	___fldiv@rem+1,f
  7897  0138  0827               	movf	___fldiv@a+2,w
  7898  0139  1C03               	skipc
  7899  013A  0F27               	incfsz	___fldiv@a+2,w
  7900  013B  02B4               	subwf	___fldiv@rem+2,f
  7901  013C  0828               	movf	___fldiv@a+3,w
  7902  013D  1C03               	skipc
  7903  013E  0F28               	incfsz	___fldiv@a+3,w
  7904  013F  02B5               	subwf	___fldiv@rem+3,f
  7905  0140                     l3214:	
  7906  0140  3001               	movlw	1
  7907  0141  00AD               	movwf	??___fldiv
  7908  0142  082D               	movf	??___fldiv,w
  7909  0143  07BE               	addwf	___fldiv@aexp,f
  7910  0144                     l3216:	
  7911  0144  301A               	movlw	26
  7912  0145  023E               	subwf	___fldiv@aexp,w
  7913  0146  1C03               	skipc
  7914  0147  2949               	goto	u4091
  7915  0148  294A               	goto	u4090
  7916  0149                     u4091:	
  7917  0149  28FA               	goto	l3198
  7918  014A                     u4090:	
  7919  014A                     l3218:	
  7920  014A  0835               	movf	___fldiv@rem+3,w
  7921  014B  0434               	iorwf	___fldiv@rem+2,w
  7922  014C  0433               	iorwf	___fldiv@rem+1,w
  7923  014D  0432               	iorwf	___fldiv@rem,w
  7924  014E  1903               	skipnz
  7925  014F  2951               	goto	u4101
  7926  0150  2952               	goto	u4100
  7927  0151                     u4101:	
  7928  0151  2971               	goto	l3232
  7929  0152                     u4100:	
  7930  0152                     l3220:	
  7931  0152  1439               	bsf	___fldiv@grs,0
  7932  0153  2971               	goto	l3232
  7933  0154                     l3222:	
  7934  0154  3001               	movlw	1
  7935  0155  00AD               	movwf	??___fldiv
  7936  0156                     u4115:	
  7937  0156  1003               	clrc
  7938  0157  0DA9               	rlf	___fldiv@b,f
  7939  0158  0DAA               	rlf	___fldiv@b+1,f
  7940  0159  0DAB               	rlf	___fldiv@b+2,f
  7941  015A  0DAC               	rlf	___fldiv@b+3,f
  7942  015B  0BAD               	decfsz	??___fldiv,f
  7943  015C  2956               	goto	u4115
  7944  015D                     l3224:	
  7945  015D  1FBC               	btfss	___fldiv@grs+3,7
  7946  015E  2960               	goto	u4121
  7947  015F  2961               	goto	u4120
  7948  0160                     u4121:	
  7949  0160  2962               	goto	l3228
  7950  0161                     u4120:	
  7951  0161                     l3226:	
  7952  0161  1429               	bsf	___fldiv@b,0
  7953  0162                     l3228:	
  7954  0162  3001               	movlw	1
  7955  0163  00AD               	movwf	??___fldiv
  7956  0164                     u4135:	
  7957  0164  1003               	clrc
  7958  0165  0DB9               	rlf	___fldiv@grs,f
  7959  0166  0DBA               	rlf	___fldiv@grs+1,f
  7960  0167  0DBB               	rlf	___fldiv@grs+2,f
  7961  0168  0DBC               	rlf	___fldiv@grs+3,f
  7962  0169  0BAD               	decfsz	??___fldiv,f
  7963  016A  2964               	goto	u4135
  7964  016B                     l3230:	
  7965  016B  30FF               	movlw	255
  7966  016C  07B7               	addwf	___fldiv@new_exp,f
  7967  016D  1803               	skipnc
  7968  016E  0AB8               	incf	___fldiv@new_exp+1,f
  7969  016F  30FF               	movlw	255
  7970  0170  07B8               	addwf	___fldiv@new_exp+1,f
  7971  0171                     l3232:	
  7972  0171  1FAB               	btfss	___fldiv@b+2,7
  7973  0172  2974               	goto	u4141
  7974  0173  2975               	goto	u4140
  7975  0174                     u4141:	
  7976  0174  2954               	goto	l3222
  7977  0175                     u4140:	
  7978  0175                     l3234:	
  7979  0175  01BE               	clrf	___fldiv@aexp
  7980  0176                     l3236:	
  7981  0176  1FBC               	btfss	___fldiv@grs+3,7
  7982  0177  2979               	goto	u4151
  7983  0178  297A               	goto	u4150
  7984  0179                     u4151:	
  7985  0179  2996               	goto	l3244
  7986  017A                     u4150:	
  7987  017A                     l3238:	
  7988  017A  30FF               	movlw	255
  7989  017B  0539               	andwf	___fldiv@grs,w
  7990  017C  00AD               	movwf	??___fldiv
  7991  017D  30FF               	movlw	255
  7992  017E  053A               	andwf	___fldiv@grs+1,w
  7993  017F  00AE               	movwf	??___fldiv+1
  7994  0180  30FF               	movlw	255
  7995  0181  053B               	andwf	___fldiv@grs+2,w
  7996  0182  00AF               	movwf	??___fldiv+2
  7997  0183  307F               	movlw	127
  7998  0184  053C               	andwf	___fldiv@grs+3,w
  7999  0185  00B0               	movwf	??___fldiv+3
  8000  0186  0830               	movf	??___fldiv+3,w
  8001  0187  042F               	iorwf	??___fldiv+2,w
  8002  0188  042E               	iorwf	??___fldiv+1,w
  8003  0189  042D               	iorwf	??___fldiv,w
  8004  018A  1903               	skipnz
  8005  018B  298D               	goto	u4161
  8006  018C  298E               	goto	u4160
  8007  018D                     u4161:	
  8008  018D  2991               	goto	l753
  8009  018E                     u4160:	
  8010  018E                     l3240:	
  8011  018E  01BE               	clrf	___fldiv@aexp
  8012  018F  0ABE               	incf	___fldiv@aexp,f
  8013  0190  2996               	goto	l3244
  8014  0191                     l753:	
  8015  0191  1C29               	btfss	___fldiv@b,0
  8016  0192  2994               	goto	u4171
  8017  0193  2995               	goto	u4170
  8018  0194                     u4171:	
  8019  0194  2996               	goto	l3244
  8020  0195                     u4170:	
  8021  0195  298E               	goto	l3240
  8022  0196                     l3244:	
  8023  0196  083E               	movf	___fldiv@aexp,w
  8024  0197  1903               	btfsc	3,2
  8025  0198  299A               	goto	u4181
  8026  0199  299B               	goto	u4180
  8027  019A                     u4181:	
  8028  019A  29CC               	goto	l3254
  8029  019B                     u4180:	
  8030  019B                     l3246:	
  8031  019B  3001               	movlw	1
  8032  019C  07A9               	addwf	___fldiv@b,f
  8033  019D  3000               	movlw	0
  8034  019E  1803               	skipnc
  8035  019F  3001               	movlw	1
  8036  01A0  07AA               	addwf	___fldiv@b+1,f
  8037  01A1  3000               	movlw	0
  8038  01A2  1803               	skipnc
  8039  01A3  3001               	movlw	1
  8040  01A4  07AB               	addwf	___fldiv@b+2,f
  8041  01A5  3000               	movlw	0
  8042  01A6  1803               	skipnc
  8043  01A7  3001               	movlw	1
  8044  01A8  07AC               	addwf	___fldiv@b+3,f
  8045  01A9                     l3248:	
  8046  01A9  1C2C               	btfss	___fldiv@b+3,0
  8047  01AA  29AC               	goto	u4191
  8048  01AB  29AD               	goto	u4190
  8049  01AC                     u4191:	
  8050  01AC  29CC               	goto	l3254
  8051  01AD                     u4190:	
  8052  01AD                     l3250:	
  8053  01AD  0829               	movf	___fldiv@b,w
  8054  01AE  00AD               	movwf	??___fldiv
  8055  01AF  082A               	movf	___fldiv@b+1,w
  8056  01B0  00AE               	movwf	??___fldiv+1
  8057  01B1  082B               	movf	___fldiv@b+2,w
  8058  01B2  00AF               	movwf	??___fldiv+2
  8059  01B3  082C               	movf	___fldiv@b+3,w
  8060  01B4  00B0               	movwf	??___fldiv+3
  8061  01B5  3001               	movlw	1
  8062  01B6  00B1               	movwf	??___fldiv+4
  8063  01B7                     u4205:	
  8064  01B7  0D30               	rlf	??___fldiv+3,w
  8065  01B8  0CB0               	rrf	??___fldiv+3,f
  8066  01B9  0CAF               	rrf	??___fldiv+2,f
  8067  01BA  0CAE               	rrf	??___fldiv+1,f
  8068  01BB  0CAD               	rrf	??___fldiv,f
  8069  01BC                     u4200:	
  8070  01BC  0BB1               	decfsz	??___fldiv+4,f
  8071  01BD  29B7               	goto	u4205
  8072  01BE  0830               	movf	??___fldiv+3,w
  8073  01BF  00AC               	movwf	___fldiv@b+3
  8074  01C0  082F               	movf	??___fldiv+2,w
  8075  01C1  00AB               	movwf	___fldiv@b+2
  8076  01C2  082E               	movf	??___fldiv+1,w
  8077  01C3  00AA               	movwf	___fldiv@b+1
  8078  01C4  082D               	movf	??___fldiv,w
  8079  01C5  00A9               	movwf	___fldiv@b
  8080  01C6                     l3252:	
  8081  01C6  3001               	movlw	1
  8082  01C7  07B7               	addwf	___fldiv@new_exp,f
  8083  01C8  1803               	skipnc
  8084  01C9  0AB8               	incf	___fldiv@new_exp+1,f
  8085  01CA  3000               	movlw	0
  8086  01CB  07B8               	addwf	___fldiv@new_exp+1,f
  8087  01CC                     l3254:	
  8088  01CC  0838               	movf	___fldiv@new_exp+1,w
  8089  01CD  3A80               	xorlw	128
  8090  01CE  00FF               	movwf	btemp+1
  8091  01CF  3080               	movlw	128
  8092  01D0  027F               	subwf	btemp+1,w
  8093  01D1  1D03               	skipz
  8094  01D2  29D5               	goto	u4215
  8095  01D3  30FF               	movlw	255
  8096  01D4  0237               	subwf	___fldiv@new_exp,w
  8097  01D5                     u4215:	
  8098  01D5  1C03               	skipc
  8099  01D6  29D8               	goto	u4211
  8100  01D7  29D9               	goto	u4210
  8101  01D8                     u4211:	
  8102  01D8  29E7               	goto	l3258
  8103  01D9                     u4210:	
  8104  01D9                     l3256:	
  8105  01D9  30FF               	movlw	255
  8106  01DA  1283               	bcf	3,5	;RP0=0, select bank0
  8107  01DB  1303               	bcf	3,6	;RP1=0, select bank0
  8108  01DC  00B7               	movwf	___fldiv@new_exp
  8109  01DD  3000               	movlw	0
  8110  01DE  00B8               	movwf	___fldiv@new_exp+1
  8111  01DF  3000               	movlw	0
  8112  01E0  00AC               	movwf	___fldiv@b+3
  8113  01E1  3000               	movlw	0
  8114  01E2  00AB               	movwf	___fldiv@b+2
  8115  01E3  3000               	movlw	0
  8116  01E4  00AA               	movwf	___fldiv@b+1
  8117  01E5  3000               	movlw	0
  8118  01E6  00A9               	movwf	___fldiv@b
  8119  01E7                     l3258:	
  8120  01E7  1283               	bcf	3,5	;RP0=0, select bank0
  8121  01E8  1303               	bcf	3,6	;RP1=0, select bank0
  8122  01E9  0838               	movf	___fldiv@new_exp+1,w
  8123  01EA  3A80               	xorlw	128
  8124  01EB  00FF               	movwf	btemp+1
  8125  01EC  3080               	movlw	128
  8126  01ED  027F               	subwf	btemp+1,w
  8127  01EE  1D03               	skipz
  8128  01EF  29F2               	goto	u4225
  8129  01F0  3001               	movlw	1
  8130  01F1  0237               	subwf	___fldiv@new_exp,w
  8131  01F2                     u4225:	
  8132  01F2  1803               	skipnc
  8133  01F3  29F5               	goto	u4221
  8134  01F4  29F6               	goto	u4220
  8135  01F5                     u4221:	
  8136  01F5  2A03               	goto	l759
  8137  01F6                     u4220:	
  8138  01F6                     l3260:	
  8139  01F6  1283               	bcf	3,5	;RP0=0, select bank0
  8140  01F7  1303               	bcf	3,6	;RP1=0, select bank0
  8141  01F8  01B7               	clrf	___fldiv@new_exp
  8142  01F9  01B8               	clrf	___fldiv@new_exp+1
  8143  01FA                     l3262:	
  8144  01FA  3000               	movlw	0
  8145  01FB  00AC               	movwf	___fldiv@b+3
  8146  01FC  3000               	movlw	0
  8147  01FD  00AB               	movwf	___fldiv@b+2
  8148  01FE  3000               	movlw	0
  8149  01FF  00AA               	movwf	___fldiv@b+1
  8150  0200  3000               	movlw	0
  8151  0201  00A9               	movwf	___fldiv@b
  8152  0202                     l3264:	
  8153  0202  01B6               	clrf	___fldiv@sign
  8154  0203                     l759:	
  8155  0203  1283               	bcf	3,5	;RP0=0, select bank0
  8156  0204  1303               	bcf	3,6	;RP1=0, select bank0
  8157  0205  0837               	movf	___fldiv@new_exp,w
  8158  0206  00AD               	movwf	??___fldiv
  8159  0207  082D               	movf	??___fldiv,w
  8160  0208  00BD               	movwf	___fldiv@bexp
  8161  0209                     l3266:	
  8162  0209  1C3D               	btfss	___fldiv@bexp,0
  8163  020A  2A0C               	goto	u4231
  8164  020B  2A0D               	goto	u4230
  8165  020C                     u4231:	
  8166  020C  2A0F               	goto	l3270
  8167  020D                     u4230:	
  8168  020D                     l3268:	
  8169  020D  17AB               	bsf	___fldiv@b+2,7
  8170  020E  2A13               	goto	l761
  8171  020F                     l3270:	
  8172  020F  307F               	movlw	127
  8173  0210  00AD               	movwf	??___fldiv
  8174  0211  082D               	movf	??___fldiv,w
  8175  0212  05AB               	andwf	___fldiv@b+2,f
  8176  0213                     l761:	
  8177  0213  083D               	movf	___fldiv@bexp,w
  8178  0214  00AD               	movwf	??___fldiv
  8179  0215  1003               	clrc
  8180  0216  0C2D               	rrf	??___fldiv,w
  8181  0217  00AE               	movwf	??___fldiv+1
  8182  0218  082E               	movf	??___fldiv+1,w
  8183  0219  00AC               	movwf	___fldiv@b+3
  8184  021A  0836               	movf	___fldiv@sign,w
  8185  021B  00AD               	movwf	??___fldiv
  8186  021C  082D               	movf	??___fldiv,w
  8187  021D  04AC               	iorwf	___fldiv@b+3,f
  8188  021E  28B7               	goto	l3178
  8189  021F                     l739:	
  8190  021F  0008               	return
  8191  0220                     __end_of___fldiv:	
  8192                           
  8193                           	psect	text21
  8194  138F                     __ptext21:	
  8195 ;; *************** function ___awmod *****************
  8196 ;; Defined at:
  8197 ;;		line 5 in file "C:\Program Files (x86)\Microchip\xc8\v2.10\pic\sources\c90\common\awmod.c"
  8198 ;; Parameters:    Size  Location     Type
  8199 ;;  divisor         2    0[COMMON] int 
  8200 ;;  dividend        2    2[COMMON] int 
  8201 ;; Auto vars:     Size  Location     Type
  8202 ;;  sign            1    6[COMMON] unsigned char 
  8203 ;;  counter         1    5[COMMON] unsigned char 
  8204 ;; Return value:  Size  Location     Type
  8205 ;;                  2    0[COMMON] int 
  8206 ;; Registers used:
  8207 ;;		wreg, status,2, status,0
  8208 ;; Tracked objects:
  8209 ;;		On entry : 0/0
  8210 ;;		On exit  : 0/0
  8211 ;;		Unchanged: 0/0
  8212 ;; Data sizes:     COMMON   BANK0   BANK1   BANK3   BANK2
  8213 ;;      Params:         4       0       0       0       0
  8214 ;;      Locals:         2       0       0       0       0
  8215 ;;      Temps:          1       0       0       0       0
  8216 ;;      Totals:         7       0       0       0       0
  8217 ;;Total ram usage:        7 bytes
  8218 ;; Hardware stack levels used:    1
  8219 ;; This function calls:
  8220 ;;		Nothing
  8221 ;; This function is called by:
  8222 ;;		_main
  8223 ;; This function uses a non-reentrant model
  8224 ;;
  8225                           
  8226                           
  8227                           ;psect for function ___awmod
  8228  138F                     ___awmod:	
  8229  138F                     l3012:	
  8230                           ;incstack = 0
  8231                           ; Regs used in ___awmod: [wreg+status,2+status,0]
  8232                           
  8233  138F  01F6               	clrf	___awmod@sign
  8234  1390                     l3014:	
  8235  1390  1FF3               	btfss	___awmod@dividend+1,7
  8236  1391  2B93               	goto	u3631
  8237  1392  2B94               	goto	u3630
  8238  1393                     u3631:	
  8239  1393  2B9B               	goto	l3020
  8240  1394                     u3630:	
  8241  1394                     l3016:	
  8242  1394  09F2               	comf	___awmod@dividend,f
  8243  1395  09F3               	comf	___awmod@dividend+1,f
  8244  1396  0AF2               	incf	___awmod@dividend,f
  8245  1397  1903               	skipnz
  8246  1398  0AF3               	incf	___awmod@dividend+1,f
  8247  1399                     l3018:	
  8248  1399  01F6               	clrf	___awmod@sign
  8249  139A  0AF6               	incf	___awmod@sign,f
  8250  139B                     l3020:	
  8251  139B  1FF1               	btfss	___awmod@divisor+1,7
  8252  139C  2B9E               	goto	u3641
  8253  139D  2B9F               	goto	u3640
  8254  139E                     u3641:	
  8255  139E  2BA4               	goto	l3024
  8256  139F                     u3640:	
  8257  139F                     l3022:	
  8258  139F  09F0               	comf	___awmod@divisor,f
  8259  13A0  09F1               	comf	___awmod@divisor+1,f
  8260  13A1  0AF0               	incf	___awmod@divisor,f
  8261  13A2  1903               	skipnz
  8262  13A3  0AF1               	incf	___awmod@divisor+1,f
  8263  13A4                     l3024:	
  8264  13A4  0870               	movf	___awmod@divisor,w
  8265  13A5  0471               	iorwf	___awmod@divisor+1,w
  8266  13A6  1903               	btfsc	3,2
  8267  13A7  2BA9               	goto	u3651
  8268  13A8  2BAA               	goto	u3650
  8269  13A9                     u3651:	
  8270  13A9  2BD9               	goto	l3042
  8271  13AA                     u3650:	
  8272  13AA                     l3026:	
  8273  13AA  01F5               	clrf	___awmod@counter
  8274  13AB  0AF5               	incf	___awmod@counter,f
  8275  13AC  2BB8               	goto	l3032
  8276  13AD                     l3028:	
  8277  13AD  3001               	movlw	1
  8278  13AE                     u3665:	
  8279  13AE  1003               	clrc
  8280  13AF  0DF0               	rlf	___awmod@divisor,f
  8281  13B0  0DF1               	rlf	___awmod@divisor+1,f
  8282  13B1  3EFF               	addlw	-1
  8283  13B2  1D03               	skipz
  8284  13B3  2BAE               	goto	u3665
  8285  13B4                     l3030:	
  8286  13B4  3001               	movlw	1
  8287  13B5  00F4               	movwf	??___awmod
  8288  13B6  0874               	movf	??___awmod,w
  8289  13B7  07F5               	addwf	___awmod@counter,f
  8290  13B8                     l3032:	
  8291  13B8  1FF1               	btfss	___awmod@divisor+1,7
  8292  13B9  2BBB               	goto	u3671
  8293  13BA  2BBC               	goto	u3670
  8294  13BB                     u3671:	
  8295  13BB  2BAD               	goto	l3028
  8296  13BC                     u3670:	
  8297  13BC                     l3034:	
  8298  13BC  0871               	movf	___awmod@divisor+1,w
  8299  13BD  0273               	subwf	___awmod@dividend+1,w
  8300  13BE  1D03               	skipz
  8301  13BF  2BC2               	goto	u3685
  8302  13C0  0870               	movf	___awmod@divisor,w
  8303  13C1  0272               	subwf	___awmod@dividend,w
  8304  13C2                     u3685:	
  8305  13C2  1C03               	skipc
  8306  13C3  2BC5               	goto	u3681
  8307  13C4  2BC6               	goto	u3680
  8308  13C5                     u3681:	
  8309  13C5  2BCC               	goto	l3038
  8310  13C6                     u3680:	
  8311  13C6                     l3036:	
  8312  13C6  0870               	movf	___awmod@divisor,w
  8313  13C7  02F2               	subwf	___awmod@dividend,f
  8314  13C8  0871               	movf	___awmod@divisor+1,w
  8315  13C9  1C03               	skipc
  8316  13CA  03F3               	decf	___awmod@dividend+1,f
  8317  13CB  02F3               	subwf	___awmod@dividend+1,f
  8318  13CC                     l3038:	
  8319  13CC  3001               	movlw	1
  8320  13CD                     u3695:	
  8321  13CD  1003               	clrc
  8322  13CE  0CF1               	rrf	___awmod@divisor+1,f
  8323  13CF  0CF0               	rrf	___awmod@divisor,f
  8324  13D0  3EFF               	addlw	-1
  8325  13D1  1D03               	skipz
  8326  13D2  2BCD               	goto	u3695
  8327  13D3                     l3040:	
  8328  13D3  3001               	movlw	1
  8329  13D4  02F5               	subwf	___awmod@counter,f
  8330  13D5  1D03               	btfss	3,2
  8331  13D6  2BD8               	goto	u3701
  8332  13D7  2BD9               	goto	u3700
  8333  13D8                     u3701:	
  8334  13D8  2BBC               	goto	l3034
  8335  13D9                     u3700:	
  8336  13D9                     l3042:	
  8337  13D9  0876               	movf	___awmod@sign,w
  8338  13DA  1903               	btfsc	3,2
  8339  13DB  2BDD               	goto	u3711
  8340  13DC  2BDE               	goto	u3710
  8341  13DD                     u3711:	
  8342  13DD  2BE3               	goto	l3046
  8343  13DE                     u3710:	
  8344  13DE                     l3044:	
  8345  13DE  09F2               	comf	___awmod@dividend,f
  8346  13DF  09F3               	comf	___awmod@dividend+1,f
  8347  13E0  0AF2               	incf	___awmod@dividend,f
  8348  13E1  1903               	skipnz
  8349  13E2  0AF3               	incf	___awmod@dividend+1,f
  8350  13E3                     l3046:	
  8351  13E3  0873               	movf	___awmod@dividend+1,w
  8352  13E4  00F1               	movwf	?___awmod+1
  8353  13E5  0872               	movf	___awmod@dividend,w
  8354  13E6  00F0               	movwf	?___awmod
  8355  13E7                     l554:	
  8356  13E7  0008               	return
  8357  13E8                     __end_of___awmod:	
  8358                           
  8359                           	psect	text22
  8360  0004                     __ptext22:	
  8361 ;; *************** function _Val_STR *****************
  8362 ;; Defined at:
  8363 ;;		line 329 in file "MASTER_Proyecto.c"
  8364 ;; Parameters:    Size  Location     Type
  8365 ;;  num             1    wreg     unsigned char 
  8366 ;; Auto vars:     Size  Location     Type
  8367 ;;  num             1    2[COMMON] unsigned char 
  8368 ;; Return value:  Size  Location     Type
  8369 ;;                  1    wreg      unsigned char 
  8370 ;; Registers used:
  8371 ;;		wreg, fsr0l, fsr0h, status,2, status,0
  8372 ;; Tracked objects:
  8373 ;;		On entry : 0/0
  8374 ;;		On exit  : 0/0
  8375 ;;		Unchanged: 0/0
  8376 ;; Data sizes:     COMMON   BANK0   BANK1   BANK3   BANK2
  8377 ;;      Params:         0       0       0       0       0
  8378 ;;      Locals:         1       0       0       0       0
  8379 ;;      Temps:          2       0       0       0       0
  8380 ;;      Totals:         3       0       0       0       0
  8381 ;;Total ram usage:        3 bytes
  8382 ;; Hardware stack levels used:    1
  8383 ;; This function calls:
  8384 ;;		Nothing
  8385 ;; This function is called by:
  8386 ;;		_main
  8387 ;; This function uses a non-reentrant model
  8388 ;;
  8389                           
  8390                           
  8391                           ;psect for function _Val_STR
  8392  0004                     _Val_STR:	
  8393                           
  8394                           ;incstack = 0
  8395                           ; Regs used in _Val_STR: [wreg-fsr0h+status,2+status,0]
  8396                           ;Val_STR@num stored from wreg
  8397  0004  00F2               	movwf	Val_STR@num
  8398  0005                     l2958:	
  8399                           
  8400                           ;MASTER_Proyecto.c: 330:     switch(num){
  8401  0005  281A               	goto	l3002
  8402  0006                     l2960:	
  8403                           
  8404                           ;MASTER_Proyecto.c: 332:             return '0';
  8405  0006  3030               	movlw	48
  8406  0007  2842               	goto	l150
  8407  0008                     l2964:	
  8408                           
  8409                           ;MASTER_Proyecto.c: 335:             return '1';
  8410  0008  3031               	movlw	49
  8411  0009  2842               	goto	l150
  8412  000A                     l2968:	
  8413                           
  8414                           ;MASTER_Proyecto.c: 338:             return '2';
  8415  000A  3032               	movlw	50
  8416  000B  2842               	goto	l150
  8417  000C                     l2972:	
  8418                           
  8419                           ;MASTER_Proyecto.c: 341:             return '3';
  8420  000C  3033               	movlw	51
  8421  000D  2842               	goto	l150
  8422  000E                     l2976:	
  8423                           
  8424                           ;MASTER_Proyecto.c: 344:             return '4';
  8425  000E  3034               	movlw	52
  8426  000F  2842               	goto	l150
  8427  0010                     l2980:	
  8428                           
  8429                           ;MASTER_Proyecto.c: 347:             return '5';
  8430  0010  3035               	movlw	53
  8431  0011  2842               	goto	l150
  8432  0012                     l2984:	
  8433                           
  8434                           ;MASTER_Proyecto.c: 350:             return '6';
  8435  0012  3036               	movlw	54
  8436  0013  2842               	goto	l150
  8437  0014                     l2988:	
  8438                           
  8439                           ;MASTER_Proyecto.c: 353:             return '7';
  8440  0014  3037               	movlw	55
  8441  0015  2842               	goto	l150
  8442  0016                     l2992:	
  8443                           
  8444                           ;MASTER_Proyecto.c: 356:             return '8';
  8445  0016  3038               	movlw	56
  8446  0017  2842               	goto	l150
  8447  0018                     l2996:	
  8448                           
  8449                           ;MASTER_Proyecto.c: 359:             return '9';
  8450  0018  3039               	movlw	57
  8451  0019  2842               	goto	l150
  8452  001A                     l3002:	
  8453  001A  0872               	movf	Val_STR@num,w
  8454  001B  00F0               	movwf	??_Val_STR
  8455  001C  01F1               	clrf	??_Val_STR+1
  8456                           
  8457                           ; Switch on 2 bytes has been partitioned into a top level switch of size 1, and 1 sub-sw
      +                          itches
  8458                           ; Switch size 1, requested type "simple"
  8459                           ; Number of cases is 1, Range of values is 0 to 0
  8460                           ; switch strategies available:
  8461                           ; Name         Instructions Cycles
  8462                           ; simple_byte            4     3 (average)
  8463                           ; direct_byte           11     8 (fixed)
  8464                           ; jumptable            260     6 (fixed)
  8465                           ;	Chosen strategy is simple_byte
  8466  001D  0871               	movf	??_Val_STR+1,w
  8467  001E  3A00               	xorlw	0	; case 0
  8468  001F  1903               	skipnz
  8469  0020  2822               	goto	l3544
  8470  0021  2842               	goto	l150
  8471  0022                     l3544:	
  8472                           
  8473                           ; Switch size 1, requested type "simple"
  8474                           ; Number of cases is 10, Range of values is 0 to 9
  8475                           ; switch strategies available:
  8476                           ; Name         Instructions Cycles
  8477                           ; simple_byte           31    16 (average)
  8478                           ; direct_byte           38     8 (fixed)
  8479                           ; jumptable            260     6 (fixed)
  8480                           ;	Chosen strategy is simple_byte
  8481  0022  0870               	movf	??_Val_STR,w
  8482  0023  3A00               	xorlw	0	; case 0
  8483  0024  1903               	skipnz
  8484  0025  2806               	goto	l2960
  8485  0026  3A01               	xorlw	1	; case 1
  8486  0027  1903               	skipnz
  8487  0028  2808               	goto	l2964
  8488  0029  3A03               	xorlw	3	; case 2
  8489  002A  1903               	skipnz
  8490  002B  280A               	goto	l2968
  8491  002C  3A01               	xorlw	1	; case 3
  8492  002D  1903               	skipnz
  8493  002E  280C               	goto	l2972
  8494  002F  3A07               	xorlw	7	; case 4
  8495  0030  1903               	skipnz
  8496  0031  280E               	goto	l2976
  8497  0032  3A01               	xorlw	1	; case 5
  8498  0033  1903               	skipnz
  8499  0034  2810               	goto	l2980
  8500  0035  3A03               	xorlw	3	; case 6
  8501  0036  1903               	skipnz
  8502  0037  2812               	goto	l2984
  8503  0038  3A01               	xorlw	1	; case 7
  8504  0039  1903               	skipnz
  8505  003A  2814               	goto	l2988
  8506  003B  3A0F               	xorlw	15	; case 8
  8507  003C  1903               	skipnz
  8508  003D  2816               	goto	l2992
  8509  003E  3A01               	xorlw	1	; case 9
  8510  003F  1903               	skipnz
  8511  0040  2818               	goto	l2996
  8512  0041  2842               	goto	l150
  8513  0042                     l150:	
  8514  0042  0008               	return
  8515  0043                     __end_of_Val_STR:	
  8516                           
  8517                           	psect	text23
  8518  1149                     __ptext23:	
  8519 ;; *************** function _UART_Write *****************
  8520 ;; Defined at:
  8521 ;;		line 42 in file "UART.c"
  8522 ;; Parameters:    Size  Location     Type
  8523 ;;  data            1    wreg     unsigned char 
  8524 ;; Auto vars:     Size  Location     Type
  8525 ;;  data            1    0[COMMON] unsigned char 
  8526 ;; Return value:  Size  Location     Type
  8527 ;;                  1    wreg      void 
  8528 ;; Registers used:
  8529 ;;		wreg
  8530 ;; Tracked objects:
  8531 ;;		On entry : 0/0
  8532 ;;		On exit  : 0/0
  8533 ;;		Unchanged: 0/0
  8534 ;; Data sizes:     COMMON   BANK0   BANK1   BANK3   BANK2
  8535 ;;      Params:         0       0       0       0       0
  8536 ;;      Locals:         1       0       0       0       0
  8537 ;;      Temps:          0       0       0       0       0
  8538 ;;      Totals:         1       0       0       0       0
  8539 ;;Total ram usage:        1 bytes
  8540 ;; Hardware stack levels used:    1
  8541 ;; This function calls:
  8542 ;;		Nothing
  8543 ;; This function is called by:
  8544 ;;		_main
  8545 ;; This function uses a non-reentrant model
  8546 ;;
  8547                           
  8548                           
  8549                           ;psect for function _UART_Write
  8550  1149                     _UART_Write:	
  8551                           
  8552                           ;incstack = 0
  8553                           ; Regs used in _UART_Write: [wreg]
  8554                           ;UART_Write@data stored from wreg
  8555  1149  00F0               	movwf	UART_Write@data
  8556  114A                     l3008:	
  8557  114A                     l299:	
  8558                           ;UART.c: 43:   while(!TXSTAbits.TRMT);
  8559                           
  8560  114A  1683               	bsf	3,5	;RP0=1, select bank1
  8561  114B  1303               	bcf	3,6	;RP1=0, select bank1
  8562  114C  1C98               	btfss	24,1	;volatile
  8563  114D  294F               	goto	u3621
  8564  114E  2950               	goto	u3620
  8565  114F                     u3621:	
  8566  114F  294A               	goto	l299
  8567  1150                     u3620:	
  8568  1150                     l3010:	
  8569                           
  8570                           ;UART.c: 44:   TXREG = data;
  8571  1150  0870               	movf	UART_Write@data,w
  8572  1151  1283               	bcf	3,5	;RP0=0, select bank0
  8573  1152  1303               	bcf	3,6	;RP1=0, select bank0
  8574  1153  0099               	movwf	25	;volatile
  8575  1154                     l302:	
  8576  1154  0008               	return
  8577  1155                     __end_of_UART_Write:	
  8578                           
  8579                           	psect	text24
  8580  1506                     __ptext24:	
  8581 ;; *************** function _UART_Init *****************
  8582 ;; Defined at:
  8583 ;;		line 18 in file "UART.c"
  8584 ;; Parameters:    Size  Location     Type
  8585 ;;  baudrate        4    6[BANK0 ] const long 
  8586 ;; Auto vars:     Size  Location     Type
  8587 ;;		None
  8588 ;; Return value:  Size  Location     Type
  8589 ;;                  1    wreg      unsigned char 
  8590 ;; Registers used:
  8591 ;;		wreg, status,2, status,0, pclath, cstack
  8592 ;; Tracked objects:
  8593 ;;		On entry : 0/0
  8594 ;;		On exit  : 0/0
  8595 ;;		Unchanged: 0/0
  8596 ;; Data sizes:     COMMON   BANK0   BANK1   BANK3   BANK2
  8597 ;;      Params:         0       4       0       0       0
  8598 ;;      Locals:         0       0       0       0       0
  8599 ;;      Temps:          0      12       0       0       0
  8600 ;;      Totals:         0      16       0       0       0
  8601 ;;Total ram usage:       16 bytes
  8602 ;; Hardware stack levels used:    1
  8603 ;; Hardware stack levels required when called:    1
  8604 ;; This function calls:
  8605 ;;		___aldiv
  8606 ;; This function is called by:
  8607 ;;		_main
  8608 ;; This function uses a non-reentrant model
  8609 ;;
  8610                           
  8611                           
  8612                           ;psect for function _UART_Init
  8613  1506                     _UART_Init:	
  8614  1506                     l2868:	
  8615                           ;incstack = 0
  8616                           ; Regs used in _UART_Init: [wreg+status,2+status,0+pclath+cstack]
  8617                           
  8618                           
  8619                           ;UART.c: 19:  SPBRG = (8000000 - baudrate*16)/(baudrate*16);
  8620  1506  1283               	bcf	3,5	;RP0=0, select bank0
  8621  1507  1303               	bcf	3,6	;RP1=0, select bank0
  8622  1508  0826               	movf	UART_Init@baudrate,w
  8623  1509  00AA               	movwf	??_UART_Init
  8624  150A  0827               	movf	UART_Init@baudrate+1,w
  8625  150B  00AB               	movwf	??_UART_Init+1
  8626  150C  0828               	movf	UART_Init@baudrate+2,w
  8627  150D  00AC               	movwf	??_UART_Init+2
  8628  150E  0829               	movf	UART_Init@baudrate+3,w
  8629  150F  00AD               	movwf	??_UART_Init+3
  8630  1510  3004               	movlw	4
  8631  1511                     u3515:	
  8632  1511  1003               	clrc
  8633  1512  0DAA               	rlf	??_UART_Init,f
  8634  1513  0DAB               	rlf	??_UART_Init+1,f
  8635  1514  0DAC               	rlf	??_UART_Init+2,f
  8636  1515  0DAD               	rlf	??_UART_Init+3,f
  8637  1516                     u3510:	
  8638  1516  3EFF               	addlw	-1
  8639  1517  1D03               	skipz
  8640  1518  2D11               	goto	u3515
  8641  1519  082D               	movf	??_UART_Init+3,w
  8642  151A  00F3               	movwf	___aldiv@divisor+3
  8643  151B  082C               	movf	??_UART_Init+2,w
  8644  151C  00F2               	movwf	___aldiv@divisor+2
  8645  151D  082B               	movf	??_UART_Init+1,w
  8646  151E  00F1               	movwf	___aldiv@divisor+1
  8647  151F  082A               	movf	??_UART_Init,w
  8648  1520  00F0               	movwf	___aldiv@divisor
  8649  1521  0826               	movf	UART_Init@baudrate,w
  8650  1522  00AE               	movwf	??_UART_Init+4
  8651  1523  0827               	movf	UART_Init@baudrate+1,w
  8652  1524  00AF               	movwf	??_UART_Init+5
  8653  1525  0828               	movf	UART_Init@baudrate+2,w
  8654  1526  00B0               	movwf	??_UART_Init+6
  8655  1527  0829               	movf	UART_Init@baudrate+3,w
  8656  1528  00B1               	movwf	??_UART_Init+7
  8657  1529  3004               	movlw	4
  8658  152A                     u3525:	
  8659  152A  1003               	clrc
  8660  152B  0DAE               	rlf	??_UART_Init+4,f
  8661  152C  0DAF               	rlf	??_UART_Init+5,f
  8662  152D  0DB0               	rlf	??_UART_Init+6,f
  8663  152E  0DB1               	rlf	??_UART_Init+7,f
  8664  152F                     u3520:	
  8665  152F  3EFF               	addlw	-1
  8666  1530  1D03               	skipz
  8667  1531  2D2A               	goto	u3525
  8668  1532  3000               	movlw	0
  8669  1533  00B2               	movwf	??_UART_Init+8
  8670  1534  3012               	movlw	18
  8671  1535  00B3               	movwf	??_UART_Init+9
  8672  1536  307A               	movlw	122
  8673  1537  00B4               	movwf	??_UART_Init+10
  8674  1538  3000               	movlw	0
  8675  1539  00B5               	movwf	??_UART_Init+11
  8676  153A  082E               	movf	??_UART_Init+4,w
  8677  153B  02B2               	subwf	??_UART_Init+8,f
  8678  153C  082F               	movf	??_UART_Init+5,w
  8679  153D  1C03               	skipc
  8680  153E  0F2F               	incfsz	??_UART_Init+5,w
  8681  153F  2D41               	goto	u3531
  8682  1540  2D42               	goto	u3532
  8683  1541                     u3531:	
  8684  1541  02B3               	subwf	??_UART_Init+9,f
  8685  1542                     u3532:	
  8686  1542  0830               	movf	??_UART_Init+6,w
  8687  1543  1C03               	skipc
  8688  1544  0F30               	incfsz	??_UART_Init+6,w
  8689  1545  2D47               	goto	u3533
  8690  1546  2D48               	goto	u3534
  8691  1547                     u3533:	
  8692  1547  02B4               	subwf	??_UART_Init+10,f
  8693  1548                     u3534:	
  8694  1548  0831               	movf	??_UART_Init+7,w
  8695  1549  1C03               	skipc
  8696  154A  0F31               	incfsz	??_UART_Init+7,w
  8697  154B  2D4D               	goto	u3535
  8698  154C  2D4E               	goto	u3536
  8699  154D                     u3535:	
  8700  154D  02B5               	subwf	??_UART_Init+11,f
  8701  154E                     u3536:	
  8702  154E  0835               	movf	??_UART_Init+11,w
  8703  154F  00F7               	movwf	___aldiv@dividend+3
  8704  1550  0834               	movf	??_UART_Init+10,w
  8705  1551  00F6               	movwf	___aldiv@dividend+2
  8706  1552  0833               	movf	??_UART_Init+9,w
  8707  1553  00F5               	movwf	___aldiv@dividend+1
  8708  1554  0832               	movf	??_UART_Init+8,w
  8709  1555  00F4               	movwf	___aldiv@dividend
  8710  1556  160A  118A  25E7  160A  118A  	fcall	___aldiv
  8711  155B  0870               	movf	?___aldiv,w
  8712  155C  1683               	bsf	3,5	;RP0=1, select bank1
  8713  155D  1303               	bcf	3,6	;RP1=0, select bank1
  8714  155E  0099               	movwf	25	;volatile
  8715  155F                     l2870:	
  8716                           
  8717                           ;UART.c: 20:     TXSTAbits.BRGH = 1;
  8718  155F  1518               	bsf	24,2	;volatile
  8719  1560                     l2872:	
  8720                           
  8721                           ;UART.c: 21:     TXSTAbits.SYNC = 0;
  8722  1560  1218               	bcf	24,4	;volatile
  8723  1561                     l2874:	
  8724                           
  8725                           ;UART.c: 22:     RCSTAbits.SPEN = 1;
  8726  1561  1283               	bcf	3,5	;RP0=0, select bank0
  8727  1562  1303               	bcf	3,6	;RP1=0, select bank0
  8728  1563  1798               	bsf	24,7	;volatile
  8729  1564                     l2876:	
  8730                           
  8731                           ;UART.c: 23:     RCSTAbits.CREN = 1;
  8732  1564  1618               	bsf	24,4	;volatile
  8733  1565                     l2878:	
  8734                           
  8735                           ;UART.c: 24:     TXSTAbits.TXEN = 1;
  8736  1565  1683               	bsf	3,5	;RP0=1, select bank1
  8737  1566  1303               	bcf	3,6	;RP1=0, select bank1
  8738  1567  1698               	bsf	24,5	;volatile
  8739  1568                     l2880:	
  8740                           
  8741                           ;UART.c: 25:     TXSTAbits.TX9 = 0;
  8742  1568  1318               	bcf	24,6	;volatile
  8743  1569                     l2882:	
  8744                           
  8745                           ;UART.c: 26:     RCSTAbits.RX9 = 0;
  8746  1569  1283               	bcf	3,5	;RP0=0, select bank0
  8747  156A  1303               	bcf	3,6	;RP1=0, select bank0
  8748  156B  1318               	bcf	24,6	;volatile
  8749  156C                     l292:	
  8750  156C  0008               	return
  8751  156D                     __end_of_UART_Init:	
  8752                           
  8753                           	psect	text25
  8754  15E7                     __ptext25:	
  8755 ;; *************** function ___aldiv *****************
  8756 ;; Defined at:
  8757 ;;		line 5 in file "C:\Program Files (x86)\Microchip\xc8\v2.10\pic\sources\c90\common\aldiv.c"
  8758 ;; Parameters:    Size  Location     Type
  8759 ;;  divisor         4    0[COMMON] long 
  8760 ;;  dividend        4    4[COMMON] long 
  8761 ;; Auto vars:     Size  Location     Type
  8762 ;;  quotient        4    2[BANK0 ] long 
  8763 ;;  sign            1    1[BANK0 ] unsigned char 
  8764 ;;  counter         1    0[BANK0 ] unsigned char 
  8765 ;; Return value:  Size  Location     Type
  8766 ;;                  4    0[COMMON] long 
  8767 ;; Registers used:
  8768 ;;		wreg, status,2, status,0
  8769 ;; Tracked objects:
  8770 ;;		On entry : 0/0
  8771 ;;		On exit  : 0/0
  8772 ;;		Unchanged: 0/0
  8773 ;; Data sizes:     COMMON   BANK0   BANK1   BANK3   BANK2
  8774 ;;      Params:         8       0       0       0       0
  8775 ;;      Locals:         0       6       0       0       0
  8776 ;;      Temps:          1       0       0       0       0
  8777 ;;      Totals:         9       6       0       0       0
  8778 ;;Total ram usage:       15 bytes
  8779 ;; Hardware stack levels used:    1
  8780 ;; This function calls:
  8781 ;;		Nothing
  8782 ;; This function is called by:
  8783 ;;		_UART_Init
  8784 ;; This function uses a non-reentrant model
  8785 ;;
  8786                           
  8787                           
  8788                           ;psect for function ___aldiv
  8789  15E7                     ___aldiv:	
  8790  15E7                     l2712:	
  8791                           ;incstack = 0
  8792                           ; Regs used in ___aldiv: [wreg+status,2+status,0]
  8793                           
  8794  15E7  1283               	bcf	3,5	;RP0=0, select bank0
  8795  15E8  1303               	bcf	3,6	;RP1=0, select bank0
  8796  15E9  01A1               	clrf	___aldiv@sign
  8797  15EA                     l2714:	
  8798  15EA  1FF3               	btfss	___aldiv@divisor+3,7
  8799  15EB  2DED               	goto	u3161
  8800  15EC  2DEE               	goto	u3160
  8801  15ED                     u3161:	
  8802  15ED  2DFB               	goto	l453
  8803  15EE                     u3160:	
  8804  15EE                     l2716:	
  8805  15EE  09F0               	comf	___aldiv@divisor,f
  8806  15EF  09F1               	comf	___aldiv@divisor+1,f
  8807  15F0  09F2               	comf	___aldiv@divisor+2,f
  8808  15F1  09F3               	comf	___aldiv@divisor+3,f
  8809  15F2  0AF0               	incf	___aldiv@divisor,f
  8810  15F3  1903               	skipnz
  8811  15F4  0AF1               	incf	___aldiv@divisor+1,f
  8812  15F5  1903               	skipnz
  8813  15F6  0AF2               	incf	___aldiv@divisor+2,f
  8814  15F7  1903               	skipnz
  8815  15F8  0AF3               	incf	___aldiv@divisor+3,f
  8816  15F9  01A1               	clrf	___aldiv@sign
  8817  15FA  0AA1               	incf	___aldiv@sign,f
  8818  15FB                     l453:	
  8819  15FB  1FF7               	btfss	___aldiv@dividend+3,7
  8820  15FC  2DFE               	goto	u3171
  8821  15FD  2DFF               	goto	u3170
  8822  15FE                     u3171:	
  8823  15FE  2E0E               	goto	l2722
  8824  15FF                     u3170:	
  8825  15FF                     l2718:	
  8826  15FF  09F4               	comf	___aldiv@dividend,f
  8827  1600  09F5               	comf	___aldiv@dividend+1,f
  8828  1601  09F6               	comf	___aldiv@dividend+2,f
  8829  1602  09F7               	comf	___aldiv@dividend+3,f
  8830  1603  0AF4               	incf	___aldiv@dividend,f
  8831  1604  1903               	skipnz
  8832  1605  0AF5               	incf	___aldiv@dividend+1,f
  8833  1606  1903               	skipnz
  8834  1607  0AF6               	incf	___aldiv@dividend+2,f
  8835  1608  1903               	skipnz
  8836  1609  0AF7               	incf	___aldiv@dividend+3,f
  8837  160A                     l2720:	
  8838  160A  3001               	movlw	1
  8839  160B  00F8               	movwf	??___aldiv
  8840  160C  0878               	movf	??___aldiv,w
  8841  160D  06A1               	xorwf	___aldiv@sign,f
  8842  160E                     l2722:	
  8843  160E  3000               	movlw	0
  8844  160F  00A5               	movwf	___aldiv@quotient+3
  8845  1610  3000               	movlw	0
  8846  1611  00A4               	movwf	___aldiv@quotient+2
  8847  1612  3000               	movlw	0
  8848  1613  00A3               	movwf	___aldiv@quotient+1
  8849  1614  3000               	movlw	0
  8850  1615  00A2               	movwf	___aldiv@quotient
  8851  1616                     l2724:	
  8852  1616  0873               	movf	___aldiv@divisor+3,w
  8853  1617  0472               	iorwf	___aldiv@divisor+2,w
  8854  1618  0471               	iorwf	___aldiv@divisor+1,w
  8855  1619  0470               	iorwf	___aldiv@divisor,w
  8856  161A  1903               	skipnz
  8857  161B  2E1D               	goto	u3181
  8858  161C  2E1E               	goto	u3180
  8859  161D                     u3181:	
  8860  161D  2E6B               	goto	l2744
  8861  161E                     u3180:	
  8862  161E                     l2726:	
  8863  161E  01A0               	clrf	___aldiv@counter
  8864  161F  0AA0               	incf	___aldiv@counter,f
  8865  1620  2E2E               	goto	l2730
  8866  1621                     l2728:	
  8867  1621  3001               	movlw	1
  8868  1622  00F8               	movwf	??___aldiv
  8869  1623                     u3195:	
  8870  1623  1003               	clrc
  8871  1624  0DF0               	rlf	___aldiv@divisor,f
  8872  1625  0DF1               	rlf	___aldiv@divisor+1,f
  8873  1626  0DF2               	rlf	___aldiv@divisor+2,f
  8874  1627  0DF3               	rlf	___aldiv@divisor+3,f
  8875  1628  0BF8               	decfsz	??___aldiv,f
  8876  1629  2E23               	goto	u3195
  8877  162A  3001               	movlw	1
  8878  162B  00F8               	movwf	??___aldiv
  8879  162C  0878               	movf	??___aldiv,w
  8880  162D  07A0               	addwf	___aldiv@counter,f
  8881  162E                     l2730:	
  8882  162E  1FF3               	btfss	___aldiv@divisor+3,7
  8883  162F  2E31               	goto	u3201
  8884  1630  2E32               	goto	u3200
  8885  1631                     u3201:	
  8886  1631  2E21               	goto	l2728
  8887  1632                     u3200:	
  8888  1632                     l2732:	
  8889  1632  3001               	movlw	1
  8890  1633  00F8               	movwf	??___aldiv
  8891  1634                     u3215:	
  8892  1634  1003               	clrc
  8893  1635  0DA2               	rlf	___aldiv@quotient,f
  8894  1636  0DA3               	rlf	___aldiv@quotient+1,f
  8895  1637  0DA4               	rlf	___aldiv@quotient+2,f
  8896  1638  0DA5               	rlf	___aldiv@quotient+3,f
  8897  1639  0BF8               	decfsz	??___aldiv,f
  8898  163A  2E34               	goto	u3215
  8899  163B                     l2734:	
  8900  163B  0873               	movf	___aldiv@divisor+3,w
  8901  163C  0277               	subwf	___aldiv@dividend+3,w
  8902  163D  1D03               	skipz
  8903  163E  2E49               	goto	u3225
  8904  163F  0872               	movf	___aldiv@divisor+2,w
  8905  1640  0276               	subwf	___aldiv@dividend+2,w
  8906  1641  1D03               	skipz
  8907  1642  2E49               	goto	u3225
  8908  1643  0871               	movf	___aldiv@divisor+1,w
  8909  1644  0275               	subwf	___aldiv@dividend+1,w
  8910  1645  1D03               	skipz
  8911  1646  2E49               	goto	u3225
  8912  1647  0870               	movf	___aldiv@divisor,w
  8913  1648  0274               	subwf	___aldiv@dividend,w
  8914  1649                     u3225:	
  8915  1649  1C03               	skipc
  8916  164A  2E4C               	goto	u3221
  8917  164B  2E4D               	goto	u3220
  8918  164C                     u3221:	
  8919  164C  2E5C               	goto	l2740
  8920  164D                     u3220:	
  8921  164D                     l2736:	
  8922  164D  0870               	movf	___aldiv@divisor,w
  8923  164E  02F4               	subwf	___aldiv@dividend,f
  8924  164F  0871               	movf	___aldiv@divisor+1,w
  8925  1650  1C03               	skipc
  8926  1651  0F71               	incfsz	___aldiv@divisor+1,w
  8927  1652  02F5               	subwf	___aldiv@dividend+1,f
  8928  1653  0872               	movf	___aldiv@divisor+2,w
  8929  1654  1C03               	skipc
  8930  1655  0F72               	incfsz	___aldiv@divisor+2,w
  8931  1656  02F6               	subwf	___aldiv@dividend+2,f
  8932  1657  0873               	movf	___aldiv@divisor+3,w
  8933  1658  1C03               	skipc
  8934  1659  0F73               	incfsz	___aldiv@divisor+3,w
  8935  165A  02F7               	subwf	___aldiv@dividend+3,f
  8936  165B                     l2738:	
  8937  165B  1422               	bsf	___aldiv@quotient,0
  8938  165C                     l2740:	
  8939  165C  3001               	movlw	1
  8940  165D                     u3235:	
  8941  165D  1003               	clrc
  8942  165E  0CF3               	rrf	___aldiv@divisor+3,f
  8943  165F  0CF2               	rrf	___aldiv@divisor+2,f
  8944  1660  0CF1               	rrf	___aldiv@divisor+1,f
  8945  1661  0CF0               	rrf	___aldiv@divisor,f
  8946  1662  3EFF               	addlw	-1
  8947  1663  1D03               	skipz
  8948  1664  2E5D               	goto	u3235
  8949  1665                     l2742:	
  8950  1665  3001               	movlw	1
  8951  1666  02A0               	subwf	___aldiv@counter,f
  8952  1667  1D03               	btfss	3,2
  8953  1668  2E6A               	goto	u3241
  8954  1669  2E6B               	goto	u3240
  8955  166A                     u3241:	
  8956  166A  2E32               	goto	l2732
  8957  166B                     u3240:	
  8958  166B                     l2744:	
  8959  166B  0821               	movf	___aldiv@sign,w
  8960  166C  1903               	btfsc	3,2
  8961  166D  2E6F               	goto	u3251
  8962  166E  2E70               	goto	u3250
  8963  166F                     u3251:	
  8964  166F  2E7B               	goto	l2748
  8965  1670                     u3250:	
  8966  1670                     l2746:	
  8967  1670  09A2               	comf	___aldiv@quotient,f
  8968  1671  09A3               	comf	___aldiv@quotient+1,f
  8969  1672  09A4               	comf	___aldiv@quotient+2,f
  8970  1673  09A5               	comf	___aldiv@quotient+3,f
  8971  1674  0AA2               	incf	___aldiv@quotient,f
  8972  1675  1903               	skipnz
  8973  1676  0AA3               	incf	___aldiv@quotient+1,f
  8974  1677  1903               	skipnz
  8975  1678  0AA4               	incf	___aldiv@quotient+2,f
  8976  1679  1903               	skipnz
  8977  167A  0AA5               	incf	___aldiv@quotient+3,f
  8978  167B                     l2748:	
  8979  167B  0825               	movf	___aldiv@quotient+3,w
  8980  167C  00F3               	movwf	?___aldiv+3
  8981  167D  0824               	movf	___aldiv@quotient+2,w
  8982  167E  00F2               	movwf	?___aldiv+2
  8983  167F  0823               	movf	___aldiv@quotient+1,w
  8984  1680  00F1               	movwf	?___aldiv+1
  8985  1681  0822               	movf	___aldiv@quotient,w
  8986  1682  00F0               	movwf	?___aldiv
  8987  1683                     l463:	
  8988  1683  0008               	return
  8989  1684                     __end_of___aldiv:	
  8990                           
  8991                           	psect	text26
  8992  125D                     __ptext26:	
  8993 ;; *************** function _LCD_POINT *****************
  8994 ;; Defined at:
  8995 ;;		line 79 in file "LCD.c"
  8996 ;; Parameters:    Size  Location     Type
  8997 ;;  lin             1    wreg     unsigned char 
  8998 ;;  col             1    3[COMMON] unsigned char 
  8999 ;; Auto vars:     Size  Location     Type
  9000 ;;  lin             1    8[COMMON] unsigned char 
  9001 ;; Return value:  Size  Location     Type
  9002 ;;                  1    wreg      void 
  9003 ;; Registers used:
  9004 ;;		wreg, status,2, status,0, pclath, cstack
  9005 ;; Tracked objects:
  9006 ;;		On entry : 0/0
  9007 ;;		On exit  : 0/0
  9008 ;;		Unchanged: 0/0
  9009 ;; Data sizes:     COMMON   BANK0   BANK1   BANK3   BANK2
  9010 ;;      Params:         1       0       0       0       0
  9011 ;;      Locals:         3       0       0       0       0
  9012 ;;      Temps:          2       0       0       0       0
  9013 ;;      Totals:         6       0       0       0       0
  9014 ;;Total ram usage:        6 bytes
  9015 ;; Hardware stack levels used:    1
  9016 ;; Hardware stack levels required when called:    2
  9017 ;; This function calls:
  9018 ;;		_lcd_cmd
  9019 ;; This function is called by:
  9020 ;;		_main
  9021 ;; This function uses a non-reentrant model
  9022 ;;
  9023                           
  9024                           
  9025                           ;psect for function _LCD_POINT
  9026  125D                     _LCD_POINT:	
  9027                           
  9028                           ;incstack = 0
  9029                           ; Regs used in _LCD_POINT: [wreg+status,2+status,0+pclath+cstack]
  9030                           ;LCD_POINT@lin stored from wreg
  9031  125D  00F8               	movwf	LCD_POINT@lin
  9032  125E                     l2884:	
  9033                           
  9034                           ;LCD.c: 81:     if((lin > 2)||(col> 15)){
  9035  125E  3003               	movlw	3
  9036  125F  0278               	subwf	LCD_POINT@lin,w
  9037  1260  1803               	skipnc
  9038  1261  2A63               	goto	u3541
  9039  1262  2A64               	goto	u3540
  9040  1263                     u3541:	
  9041  1263  2A8A               	goto	l256
  9042  1264                     u3540:	
  9043  1264                     l2886:	
  9044  1264  3010               	movlw	16
  9045  1265  0273               	subwf	LCD_POINT@col,w
  9046  1266  1C03               	skipc
  9047  1267  2A69               	goto	u3551
  9048  1268  2A6A               	goto	u3550
  9049  1269                     u3551:	
  9050  1269  2A6B               	goto	l2890
  9051  126A                     u3550:	
  9052  126A  2A8A               	goto	l256
  9053  126B                     l2890:	
  9054                           
  9055                           ;LCD.c: 84:         lcd_cmd((lin == 1) ? (0x80|col): (0xC0|col));
  9056  126B  0378               	decf	LCD_POINT@lin,w
  9057  126C  1903               	btfsc	3,2
  9058  126D  2A6F               	goto	u3561
  9059  126E  2A70               	goto	u3560
  9060  126F                     u3561:	
  9061  126F  2A76               	goto	l2894
  9062  1270                     u3560:	
  9063  1270                     l2892:	
  9064  1270  30C0               	movlw	192
  9065  1271  0473               	iorwf	LCD_POINT@col,w
  9066  1272  00F6               	movwf	_LCD_POINT$278
  9067  1273  3000               	movlw	0
  9068  1274  00F7               	movwf	_LCD_POINT$278+1
  9069  1275  2A7B               	goto	l2896
  9070  1276                     l2894:	
  9071  1276  3080               	movlw	128
  9072  1277  0473               	iorwf	LCD_POINT@col,w
  9073  1278  00F6               	movwf	_LCD_POINT$278
  9074  1279  3000               	movlw	0
  9075  127A  00F7               	movwf	_LCD_POINT$278+1
  9076  127B                     l2896:	
  9077  127B  0876               	movf	_LCD_POINT$278,w
  9078  127C  160A  118A  2162  160A  118A  	fcall	_lcd_cmd
  9079  1281                     l2898:	
  9080                           
  9081                           ;LCD.c: 85:         _delay((unsigned long)((5)*(8000000/4000.0)));
  9082  1281  300D               	movlw	13
  9083  1282  00F5               	movwf	??_LCD_POINT+1
  9084  1283  30FB               	movlw	251
  9085  1284  00F4               	movwf	??_LCD_POINT
  9086  1285                     u4427:	
  9087  1285  0BF4               	decfsz	??_LCD_POINT,f
  9088  1286  2A85               	goto	u4427
  9089  1287  0BF5               	decfsz	??_LCD_POINT+1,f
  9090  1288  2A85               	goto	u4427
  9091  1289  2A8A               	nop2
  9092  128A                     l256:	
  9093  128A  0008               	return
  9094  128B                     __end_of_LCD_POINT:	
  9095                           
  9096                           	psect	text27
  9097  1162                     __ptext27:	
  9098 ;; *************** function _lcd_cmd *****************
  9099 ;; Defined at:
  9100 ;;		line 15 in file "LCD.c"
  9101 ;; Parameters:    Size  Location     Type
  9102 ;;  x               1    wreg     unsigned char 
  9103 ;; Auto vars:     Size  Location     Type
  9104 ;;  x               1    2[COMMON] unsigned char 
  9105 ;; Return value:  Size  Location     Type
  9106 ;;                  1    wreg      void 
  9107 ;; Registers used:
  9108 ;;		wreg, status,2, status,0, pclath, cstack
  9109 ;; Tracked objects:
  9110 ;;		On entry : 0/0
  9111 ;;		On exit  : 0/0
  9112 ;;		Unchanged: 0/0
  9113 ;; Data sizes:     COMMON   BANK0   BANK1   BANK3   BANK2
  9114 ;;      Params:         0       0       0       0       0
  9115 ;;      Locals:         1       0       0       0       0
  9116 ;;      Temps:          0       0       0       0       0
  9117 ;;      Totals:         1       0       0       0       0
  9118 ;;Total ram usage:        1 bytes
  9119 ;; Hardware stack levels used:    1
  9120 ;; Hardware stack levels required when called:    1
  9121 ;; This function calls:
  9122 ;;		_lcd_lat
  9123 ;;		_lcd_ready
  9124 ;; This function is called by:
  9125 ;;		_main
  9126 ;;		_lcd_init
  9127 ;;		_LCD_POINT
  9128 ;; This function uses a non-reentrant model
  9129 ;;
  9130                           
  9131                           
  9132                           ;psect for function _lcd_cmd
  9133  1162                     _lcd_cmd:	
  9134                           
  9135                           ;incstack = 0
  9136                           ; Regs used in _lcd_cmd: [wreg+status,2+status,0+pclath+cstack]
  9137                           ;lcd_cmd@x stored from wreg
  9138  1162  00F2               	movwf	lcd_cmd@x
  9139  1163                     l2676:	
  9140                           
  9141                           ;LCD.c: 16:     lcd_ready();
  9142  1163  160A  118A  2207  160A  118A  	fcall	_lcd_ready
  9143  1168                     l2678:	
  9144                           
  9145                           ;LCD.c: 17:     PORTB = x;
  9146  1168  0872               	movf	lcd_cmd@x,w
  9147  1169  1283               	bcf	3,5	;RP0=0, select bank0
  9148  116A  1303               	bcf	3,6	;RP1=0, select bank0
  9149  116B  0086               	movwf	6	;volatile
  9150  116C                     l2680:	
  9151                           
  9152                           ;LCD.c: 18:     RD7 = 0;
  9153  116C  1388               	bcf	8,7	;volatile
  9154  116D                     l2682:	
  9155                           
  9156                           ;LCD.c: 19:     RD2 = 0;
  9157  116D  1108               	bcf	8,2	;volatile
  9158  116E                     l2684:	
  9159                           
  9160                           ;LCD.c: 20:     lcd_lat();
  9161  116E  120A  158A  2002  160A  118A  	fcall	_lcd_lat
  9162  1173                     l230:	
  9163  1173  0008               	return
  9164  1174                     __end_of_lcd_cmd:	
  9165                           
  9166                           	psect	text28
  9167  1207                     __ptext28:	
  9168 ;; *************** function _lcd_ready *****************
  9169 ;; Defined at:
  9170 ;;		line 28 in file "LCD.c"
  9171 ;; Parameters:    Size  Location     Type
  9172 ;;		None
  9173 ;; Auto vars:     Size  Location     Type
  9174 ;;		None
  9175 ;; Return value:  Size  Location     Type
  9176 ;;                  1    wreg      void 
  9177 ;; Registers used:
  9178 ;;		wreg, status,2, status,0
  9179 ;; Tracked objects:
  9180 ;;		On entry : 0/0
  9181 ;;		On exit  : 0/0
  9182 ;;		Unchanged: 0/0
  9183 ;; Data sizes:     COMMON   BANK0   BANK1   BANK3   BANK2
  9184 ;;      Params:         0       0       0       0       0
  9185 ;;      Locals:         0       0       0       0       0
  9186 ;;      Temps:          2       0       0       0       0
  9187 ;;      Totals:         2       0       0       0       0
  9188 ;;Total ram usage:        2 bytes
  9189 ;; Hardware stack levels used:    1
  9190 ;; This function calls:
  9191 ;;		Nothing
  9192 ;; This function is called by:
  9193 ;;		_lcd_cmd
  9194 ;;		_lcd_dwr
  9195 ;; This function uses a non-reentrant model
  9196 ;;
  9197                           
  9198                           
  9199                           ;psect for function _lcd_ready
  9200  1207                     _lcd_ready:	
  9201  1207                     l2280:	
  9202                           ;incstack = 0
  9203                           ; Regs used in _lcd_ready: [wreg+status,2+status,0]
  9204                           
  9205                           
  9206                           ;LCD.c: 29:     PORTB = 0xFF;
  9207  1207  30FF               	movlw	255
  9208  1208  1283               	bcf	3,5	;RP0=0, select bank0
  9209  1209  1303               	bcf	3,6	;RP1=0, select bank0
  9210  120A  0086               	movwf	6	;volatile
  9211  120B                     l2282:	
  9212                           
  9213                           ;LCD.c: 30:     PORTB &= 0x80;
  9214  120B  3080               	movlw	128
  9215  120C  00F0               	movwf	??_lcd_ready
  9216  120D  0870               	movf	??_lcd_ready,w
  9217  120E  0586               	andwf	6,f	;volatile
  9218  120F                     l2284:	
  9219                           
  9220                           ;LCD.c: 31:     RD7 = 0;
  9221  120F  1388               	bcf	8,7	;volatile
  9222  1210                     l2286:	
  9223                           
  9224                           ;LCD.c: 32:     RD2 = 1;
  9225  1210  1508               	bsf	8,2	;volatile
  9226  1211                     l2288:	
  9227                           
  9228                           ;LCD.c: 33:     RD3 = 0;
  9229  1211  1188               	bcf	8,3	;volatile
  9230  1212                     l2290:	
  9231                           
  9232                           ;LCD.c: 34:     _delay((unsigned long)((30)*(8000000/4000.0)));
  9233  1212  304E               	movlw	78
  9234  1213  00F1               	movwf	??_lcd_ready+1
  9235  1214  30EB               	movlw	235
  9236  1215  00F0               	movwf	??_lcd_ready
  9237  1216                     u4437:	
  9238  1216  0BF0               	decfsz	??_lcd_ready,f
  9239  1217  2A16               	goto	u4437
  9240  1218  0BF1               	decfsz	??_lcd_ready+1,f
  9241  1219  2A16               	goto	u4437
  9242  121A                     l2292:	
  9243                           
  9244                           ;LCD.c: 35:     RD3 = 1;
  9245  121A  1283               	bcf	3,5	;RP0=0, select bank0
  9246  121B  1303               	bcf	3,6	;RP1=0, select bank0
  9247  121C  1588               	bsf	8,3	;volatile
  9248                           
  9249                           ;LCD.c: 36:     if (PORTB == 0x80){
  9250  121D  3080               	movlw	128
  9251  121E  0606               	xorwf	6,w	;volatile
  9252  121F  1D03               	btfss	3,2
  9253  1220  2A22               	goto	u2191
  9254  1221  2A23               	goto	u2190
  9255  1222                     u2191:	
  9256  1222  2A2F               	goto	l238
  9257  1223                     u2190:	
  9258  1223                     l2294:	
  9259                           
  9260                           ;LCD.c: 37:     RD3 = 0;
  9261  1223  1188               	bcf	8,3	;volatile
  9262  1224                     l2296:	
  9263                           
  9264                           ;LCD.c: 38:     _delay((unsigned long)((30)*(8000000/4000.0)));
  9265  1224  304E               	movlw	78
  9266  1225  00F1               	movwf	??_lcd_ready+1
  9267  1226  30EB               	movlw	235
  9268  1227  00F0               	movwf	??_lcd_ready
  9269  1228                     u4447:	
  9270  1228  0BF0               	decfsz	??_lcd_ready,f
  9271  1229  2A28               	goto	u4447
  9272  122A  0BF1               	decfsz	??_lcd_ready+1,f
  9273  122B  2A28               	goto	u4447
  9274  122C                     l2298:	
  9275                           
  9276                           ;LCD.c: 39:     RD3 = 1;
  9277  122C  1283               	bcf	3,5	;RP0=0, select bank0
  9278  122D  1303               	bcf	3,6	;RP1=0, select bank0
  9279  122E  1588               	bsf	8,3	;volatile
  9280  122F                     l238:	
  9281                           ;LCD.c: 40:     }
  9282                           
  9283  122F  0008               	return
  9284  1230                     __end_of_lcd_ready:	
  9285                           
  9286                           	psect	text29
  9287  0802                     __ptext29:	
  9288 ;; *************** function _lcd_lat *****************
  9289 ;; Defined at:
  9290 ;;		line 23 in file "LCD.c"
  9291 ;; Parameters:    Size  Location     Type
  9292 ;;		None
  9293 ;; Auto vars:     Size  Location     Type
  9294 ;;		None
  9295 ;; Return value:  Size  Location     Type
  9296 ;;                  1    wreg      void 
  9297 ;; Registers used:
  9298 ;;		wreg
  9299 ;; Tracked objects:
  9300 ;;		On entry : 0/0
  9301 ;;		On exit  : 0/0
  9302 ;;		Unchanged: 0/0
  9303 ;; Data sizes:     COMMON   BANK0   BANK1   BANK3   BANK2
  9304 ;;      Params:         0       0       0       0       0
  9305 ;;      Locals:         0       0       0       0       0
  9306 ;;      Temps:          2       0       0       0       0
  9307 ;;      Totals:         2       0       0       0       0
  9308 ;;Total ram usage:        2 bytes
  9309 ;; Hardware stack levels used:    1
  9310 ;; This function calls:
  9311 ;;		Nothing
  9312 ;; This function is called by:
  9313 ;;		_lcd_cmd
  9314 ;;		_lcd_dwr
  9315 ;; This function uses a non-reentrant model
  9316 ;;
  9317                           
  9318                           
  9319                           ;psect for function _lcd_lat
  9320  0802                     _lcd_lat:	
  9321  0802                     l2300:	
  9322                           ;incstack = 0
  9323                           ; Regs used in _lcd_lat: [wreg]
  9324                           
  9325                           
  9326                           ;LCD.c: 24:     RD3 = 1;
  9327  0802  1283               	bcf	3,5	;RP0=0, select bank0
  9328  0803  1303               	bcf	3,6	;RP1=0, select bank0
  9329  0804  1588               	bsf	8,3	;volatile
  9330  0805                     l2302:	
  9331                           
  9332                           ;LCD.c: 25:    _delay((unsigned long)((30)*(8000000/4000.0)));
  9333  0805  304E               	movlw	78
  9334  0806  00F1               	movwf	??_lcd_lat+1
  9335  0807  30EB               	movlw	235
  9336  0808  00F0               	movwf	??_lcd_lat
  9337  0809                     u4457:	
  9338  0809  0BF0               	decfsz	??_lcd_lat,f
  9339  080A  2809               	goto	u4457
  9340  080B  0BF1               	decfsz	??_lcd_lat+1,f
  9341  080C  2809               	goto	u4457
  9342  080D                     l2304:	
  9343                           
  9344                           ;LCD.c: 26:    RD3 = 0;
  9345  080D  1283               	bcf	3,5	;RP0=0, select bank0
  9346  080E  1303               	bcf	3,6	;RP1=0, select bank0
  9347  080F  1188               	bcf	8,3	;volatile
  9348  0810                     l233:	
  9349  0810  0008               	return
  9350  0811                     __end_of_lcd_lat:	
  9351                           
  9352                           	psect	text30
  9353  113F                     __ptext30:	
  9354 ;; *************** function _I2C_Master_Write *****************
  9355 ;; Defined at:
  9356 ;;		line 56 in file "I2C.c"
  9357 ;; Parameters:    Size  Location     Type
  9358 ;;  d               2    0[COMMON] unsigned int 
  9359 ;; Auto vars:     Size  Location     Type
  9360 ;;		None
  9361 ;; Return value:  Size  Location     Type
  9362 ;;                  1    wreg      void 
  9363 ;; Registers used:
  9364 ;;		wreg, status,2, status,0, pclath, cstack
  9365 ;; Tracked objects:
  9366 ;;		On entry : 0/0
  9367 ;;		On exit  : 0/0
  9368 ;;		Unchanged: 0/0
  9369 ;; Data sizes:     COMMON   BANK0   BANK1   BANK3   BANK2
  9370 ;;      Params:         2       0       0       0       0
  9371 ;;      Locals:         0       0       0       0       0
  9372 ;;      Temps:          0       0       0       0       0
  9373 ;;      Totals:         2       0       0       0       0
  9374 ;;Total ram usage:        2 bytes
  9375 ;; Hardware stack levels used:    1
  9376 ;; Hardware stack levels required when called:    1
  9377 ;; This function calls:
  9378 ;;		_I2C_Master_Wait
  9379 ;; This function is called by:
  9380 ;;		_main
  9381 ;; This function uses a non-reentrant model
  9382 ;;
  9383                           
  9384                           
  9385                           ;psect for function _I2C_Master_Write
  9386  113F                     _I2C_Master_Write:	
  9387  113F                     l2912:	
  9388                           ;incstack = 0
  9389                           ; Regs used in _I2C_Master_Write: [wreg+status,2+status,0+pclath+cstack]
  9390                           
  9391                           
  9392                           ;I2C.c: 56: void I2C_Master_Write(unsigned d);I2C.c: 57: {;I2C.c: 58:     I2C_Master_Wai
      +                          t();
  9393  113F  160A  118A  2155  160A  118A  	fcall	_I2C_Master_Wait
  9394  1144                     l2914:	
  9395                           
  9396                           ;I2C.c: 59:     SSPBUF = d;
  9397  1144  0870               	movf	I2C_Master_Write@d,w
  9398  1145  1283               	bcf	3,5	;RP0=0, select bank0
  9399  1146  1303               	bcf	3,6	;RP1=0, select bank0
  9400  1147  0093               	movwf	19	;volatile
  9401  1148                     l207:	
  9402  1148  0008               	return
  9403  1149                     __end_of_I2C_Master_Write:	
  9404                           
  9405                           	psect	text31
  9406  1136                     __ptext31:	
  9407 ;; *************** function _I2C_Master_Stop *****************
  9408 ;; Defined at:
  9409 ;;		line 46 in file "I2C.c"
  9410 ;; Parameters:    Size  Location     Type
  9411 ;;		None
  9412 ;; Auto vars:     Size  Location     Type
  9413 ;;		None
  9414 ;; Return value:  Size  Location     Type
  9415 ;;                  1    wreg      void 
  9416 ;; Registers used:
  9417 ;;		wreg, status,2, status,0, pclath, cstack
  9418 ;; Tracked objects:
  9419 ;;		On entry : 0/0
  9420 ;;		On exit  : 0/0
  9421 ;;		Unchanged: 0/0
  9422 ;; Data sizes:     COMMON   BANK0   BANK1   BANK3   BANK2
  9423 ;;      Params:         0       0       0       0       0
  9424 ;;      Locals:         0       0       0       0       0
  9425 ;;      Temps:          0       0       0       0       0
  9426 ;;      Totals:         0       0       0       0       0
  9427 ;;Total ram usage:        0 bytes
  9428 ;; Hardware stack levels used:    1
  9429 ;; Hardware stack levels required when called:    1
  9430 ;; This function calls:
  9431 ;;		_I2C_Master_Wait
  9432 ;; This function is called by:
  9433 ;;		_main
  9434 ;; This function uses a non-reentrant model
  9435 ;;
  9436                           
  9437                           
  9438                           ;psect for function _I2C_Master_Stop
  9439  1136                     _I2C_Master_Stop:	
  9440  1136                     l2932:	
  9441                           ;incstack = 0
  9442                           ; Regs used in _I2C_Master_Stop: [wreg+status,2+status,0+pclath+cstack]
  9443                           
  9444                           
  9445                           ;I2C.c: 48:     I2C_Master_Wait();
  9446  1136  160A  118A  2155  160A  118A  	fcall	_I2C_Master_Wait
  9447  113B                     l2934:	
  9448                           
  9449                           ;I2C.c: 49:     SSPCON2bits.PEN = 1;
  9450  113B  1683               	bsf	3,5	;RP0=1, select bank1
  9451  113C  1303               	bcf	3,6	;RP1=0, select bank1
  9452  113D  1511               	bsf	17,2	;volatile
  9453  113E                     l204:	
  9454  113E  0008               	return
  9455  113F                     __end_of_I2C_Master_Stop:	
  9456                           
  9457                           	psect	text32
  9458  112D                     __ptext32:	
  9459 ;; *************** function _I2C_Master_Start *****************
  9460 ;; Defined at:
  9461 ;;		line 30 in file "I2C.c"
  9462 ;; Parameters:    Size  Location     Type
  9463 ;;		None
  9464 ;; Auto vars:     Size  Location     Type
  9465 ;;		None
  9466 ;; Return value:  Size  Location     Type
  9467 ;;                  1    wreg      void 
  9468 ;; Registers used:
  9469 ;;		wreg, status,2, status,0, pclath, cstack
  9470 ;; Tracked objects:
  9471 ;;		On entry : 0/0
  9472 ;;		On exit  : 0/0
  9473 ;;		Unchanged: 0/0
  9474 ;; Data sizes:     COMMON   BANK0   BANK1   BANK3   BANK2
  9475 ;;      Params:         0       0       0       0       0
  9476 ;;      Locals:         0       0       0       0       0
  9477 ;;      Temps:          0       0       0       0       0
  9478 ;;      Totals:         0       0       0       0       0
  9479 ;;Total ram usage:        0 bytes
  9480 ;; Hardware stack levels used:    1
  9481 ;; Hardware stack levels required when called:    1
  9482 ;; This function calls:
  9483 ;;		_I2C_Master_Wait
  9484 ;; This function is called by:
  9485 ;;		_main
  9486 ;; This function uses a non-reentrant model
  9487 ;;
  9488                           
  9489                           
  9490                           ;psect for function _I2C_Master_Start
  9491  112D                     _I2C_Master_Start:	
  9492  112D                     l2908:	
  9493                           ;incstack = 0
  9494                           ; Regs used in _I2C_Master_Start: [wreg+status,2+status,0+pclath+cstack]
  9495                           
  9496                           
  9497                           ;I2C.c: 32:     I2C_Master_Wait();
  9498  112D  160A  118A  2155  160A  118A  	fcall	_I2C_Master_Wait
  9499  1132                     l2910:	
  9500                           
  9501                           ;I2C.c: 33:     SSPCON2bits.SEN = 1;
  9502  1132  1683               	bsf	3,5	;RP0=1, select bank1
  9503  1133  1303               	bcf	3,6	;RP1=0, select bank1
  9504  1134  1411               	bsf	17,0	;volatile
  9505  1135                     l198:	
  9506  1135  0008               	return
  9507  1136                     __end_of_I2C_Master_Start:	
  9508                           
  9509                           	psect	text33
  9510  1230                     __ptext33:	
  9511 ;; *************** function _I2C_Master_Read *****************
  9512 ;; Defined at:
  9513 ;;		line 65 in file "I2C.c"
  9514 ;; Parameters:    Size  Location     Type
  9515 ;;  a               2    0[COMMON] unsigned short 
  9516 ;; Auto vars:     Size  Location     Type
  9517 ;;  temp            2    4[COMMON] unsigned short 
  9518 ;; Return value:  Size  Location     Type
  9519 ;;                  2    0[COMMON] unsigned short 
  9520 ;; Registers used:
  9521 ;;		wreg, status,2, status,0, pclath, cstack
  9522 ;; Tracked objects:
  9523 ;;		On entry : 0/0
  9524 ;;		On exit  : 0/0
  9525 ;;		Unchanged: 0/0
  9526 ;; Data sizes:     COMMON   BANK0   BANK1   BANK3   BANK2
  9527 ;;      Params:         2       0       0       0       0
  9528 ;;      Locals:         2       0       0       0       0
  9529 ;;      Temps:          2       0       0       0       0
  9530 ;;      Totals:         6       0       0       0       0
  9531 ;;Total ram usage:        6 bytes
  9532 ;; Hardware stack levels used:    1
  9533 ;; Hardware stack levels required when called:    1
  9534 ;; This function calls:
  9535 ;;		_I2C_Master_Wait
  9536 ;; This function is called by:
  9537 ;;		_main
  9538 ;; This function uses a non-reentrant model
  9539 ;;
  9540                           
  9541                           
  9542                           ;psect for function _I2C_Master_Read
  9543  1230                     _I2C_Master_Read:	
  9544  1230                     l2916:	
  9545                           ;incstack = 0
  9546                           ; Regs used in _I2C_Master_Read: [wreg+status,2+status,0+pclath+cstack]
  9547                           
  9548                           
  9549                           ;I2C.c: 65: unsigned short I2C_Master_Read(unsigned short a);I2C.c: 66: {;I2C.c: 67:    
      +                           unsigned short temp;;I2C.c: 68:     I2C_Master_Wait();
  9550  1230  160A  118A  2155  160A  118A  	fcall	_I2C_Master_Wait
  9551  1235                     l2918:	
  9552                           
  9553                           ;I2C.c: 69:     SSPCON2bits.RCEN = 1;
  9554  1235  1683               	bsf	3,5	;RP0=1, select bank1
  9555  1236  1303               	bcf	3,6	;RP1=0, select bank1
  9556  1237  1591               	bsf	17,3	;volatile
  9557                           
  9558                           ;I2C.c: 70:     I2C_Master_Wait();
  9559  1238  160A  118A  2155  160A  118A  	fcall	_I2C_Master_Wait
  9560  123D                     l2920:	
  9561                           
  9562                           ;I2C.c: 71:     temp = SSPBUF;
  9563  123D  1283               	bcf	3,5	;RP0=0, select bank0
  9564  123E  1303               	bcf	3,6	;RP1=0, select bank0
  9565  123F  0813               	movf	19,w	;volatile
  9566  1240  00F2               	movwf	??_I2C_Master_Read
  9567  1241  01F3               	clrf	??_I2C_Master_Read+1
  9568  1242  0872               	movf	??_I2C_Master_Read,w
  9569  1243  00F4               	movwf	I2C_Master_Read@temp
  9570  1244  0873               	movf	??_I2C_Master_Read+1,w
  9571  1245  00F5               	movwf	I2C_Master_Read@temp+1
  9572  1246                     l2922:	
  9573                           
  9574                           ;I2C.c: 72:     I2C_Master_Wait();
  9575  1246  160A  118A  2155  160A  118A  	fcall	_I2C_Master_Wait
  9576  124B                     l2924:	
  9577                           
  9578                           ;I2C.c: 78:     SSPCON2bits.ACKDT = (a)?0:1;
  9579  124B  0870               	movf	I2C_Master_Read@a,w
  9580  124C  0471               	iorwf	I2C_Master_Read@a+1,w
  9581  124D  1903               	btfsc	3,2
  9582  124E  2A50               	goto	u3581
  9583  124F  2A54               	goto	u3580
  9584  1250                     u3581:	
  9585  1250  1683               	bsf	3,5	;RP0=1, select bank1
  9586  1251  1303               	bcf	3,6	;RP1=0, select bank1
  9587  1252  1691               	bsf	17,5	;volatile
  9588  1253  2A57               	goto	u3594
  9589  1254                     u3580:	
  9590  1254  1683               	bsf	3,5	;RP0=1, select bank1
  9591  1255  1303               	bcf	3,6	;RP1=0, select bank1
  9592  1256  1291               	bcf	17,5	;volatile
  9593  1257                     u3594:	
  9594  1257                     l2926:	
  9595                           
  9596                           ;I2C.c: 79:     SSPCON2bits.ACKEN = 1;
  9597  1257  1611               	bsf	17,4	;volatile
  9598  1258                     l2928:	
  9599                           
  9600                           ;I2C.c: 80:     return temp;
  9601  1258  0875               	movf	I2C_Master_Read@temp+1,w
  9602  1259  00F1               	movwf	?_I2C_Master_Read+1
  9603  125A  0874               	movf	I2C_Master_Read@temp,w
  9604  125B  00F0               	movwf	?_I2C_Master_Read
  9605  125C                     l210:	
  9606  125C  0008               	return
  9607  125D                     __end_of_I2C_Master_Read:	
  9608                           
  9609                           	psect	text34
  9610  1155                     __ptext34:	
  9611 ;; *************** function _I2C_Master_Wait *****************
  9612 ;; Defined at:
  9613 ;;		line 23 in file "I2C.c"
  9614 ;; Parameters:    Size  Location     Type
  9615 ;;		None
  9616 ;; Auto vars:     Size  Location     Type
  9617 ;;		None
  9618 ;; Return value:  Size  Location     Type
  9619 ;;                  1    wreg      void 
  9620 ;; Registers used:
  9621 ;;		wreg, status,2
  9622 ;; Tracked objects:
  9623 ;;		On entry : 0/0
  9624 ;;		On exit  : 0/0
  9625 ;;		Unchanged: 0/0
  9626 ;; Data sizes:     COMMON   BANK0   BANK1   BANK3   BANK2
  9627 ;;      Params:         0       0       0       0       0
  9628 ;;      Locals:         0       0       0       0       0
  9629 ;;      Temps:          0       0       0       0       0
  9630 ;;      Totals:         0       0       0       0       0
  9631 ;;Total ram usage:        0 bytes
  9632 ;; Hardware stack levels used:    1
  9633 ;; This function calls:
  9634 ;;		Nothing
  9635 ;; This function is called by:
  9636 ;;		_I2C_Master_Start
  9637 ;;		_I2C_Master_Stop
  9638 ;;		_I2C_Master_Write
  9639 ;;		_I2C_Master_Read
  9640 ;;		_I2C_Master_RepeatedStart
  9641 ;; This function uses a non-reentrant model
  9642 ;;
  9643                           
  9644                           
  9645                           ;psect for function _I2C_Master_Wait
  9646  1155                     _I2C_Master_Wait:	
  9647  1155                     l2708:	
  9648                           ;incstack = 0
  9649                           ; Regs used in _I2C_Master_Wait: [wreg+status,2]
  9650                           
  9651  1155                     l192:	
  9652                           ;I2C.c: 25:     while ((SSPSTAT & 0x04) || (SSPCON2 & 0x1F));
  9653                           
  9654  1155  1683               	bsf	3,5	;RP0=1, select bank1
  9655  1156  1303               	bcf	3,6	;RP1=0, select bank1
  9656  1157  1914               	btfsc	20,2	;volatile
  9657  1158  295A               	goto	u3141
  9658  1159  295B               	goto	u3140
  9659  115A                     u3141:	
  9660  115A  2955               	goto	l192
  9661  115B                     u3140:	
  9662  115B                     l2710:	
  9663  115B  0811               	movf	17,w	;volatile
  9664  115C  391F               	andlw	31
  9665  115D  1D03               	btfss	3,2
  9666  115E  2960               	goto	u3151
  9667  115F  2961               	goto	u3150
  9668  1160                     u3151:	
  9669  1160  2955               	goto	l192
  9670  1161                     u3150:	
  9671  1161                     l195:	
  9672  1161  0008               	return
  9673  1162                     __end_of_I2C_Master_Wait:	
  9674  007E                     btemp	set	126	;btemp
  9675  007E                     wtemp0	set	126


Data Sizes:
    Strings     29
    Constant    48
    Data        1
    BSS         53
    Persistent  0
    Stack       0

Auto Spaces:
    Space          Size  Autos    Used
    COMMON           14     14      14
    BANK0            80     78      79
    BANK1            80     34      79
    BANK3            96      0       8
    BANK2            96      0       0

Pointer List with Targets:

    frexp@eptr	PTR int  size(1) Largest target is 2
		 -> log@exponent(BANK1[2]), 

    eval_poly@d	PTR const  size(1) Largest target is 36
		 -> log@coeff(CODE[36]), 

    lcd_msg@c	PTR unsigned char  size(1) Largest target is 5
		 -> STR_11(CODE[5]), STR_10(CODE[5]), STR_9(CODE[4]), STR_8(CODE[3]), 
		 -> STR_7(CODE[3]), STR_6(CODE[4]), STR_5(CODE[3]), STR_4(CODE[4]), 
		 -> STR_3(CODE[4]), STR_2(CODE[4]), STR_1(CODE[4]), 


Critical Paths under _main in COMMON

    _main->___xxtofl
    _log->___xxtofl
    _log->_frexp
    _frexp->___fleq
    ___flmul->___xxtofl
    ___flmul->_frexp
    ___fladd->___xxtofl
    ___fladd->_frexp
    _lcd_msg->_lcd_dwr
    _lcd_dwr->_lcd_lat
    _lcd_dwr->_lcd_ready
    _lcd_init->_lcd_cmd
    _I2C_Master_Init->___lldiv
    ___fldiv->___xxtofl
    ___fldiv->_frexp
    _UART_Init->___aldiv
    _LCD_POINT->_lcd_cmd
    _lcd_cmd->_lcd_lat
    _lcd_cmd->_lcd_ready

Critical Paths under _main in BANK0

    _main->_log
    _log->___flmul
    _eval_poly->___flmul
    ___flmul->___fladd
    ___fladd->___fldiv
    _init->_I2C_Master_Init
    ___fldiv->_frexp
    _UART_Init->___aldiv

Critical Paths under _main in BANK1

    _main->_log
    _log->_eval_poly

Critical Paths under _main in BANK3

    None.

Critical Paths under _main in BANK2

    None.

Call Graph Tables:

 ---------------------------------------------------------------------------------
 (Depth) Function   	        Calls       Base Space   Used Autos Params    Refs
 ---------------------------------------------------------------------------------
 (0) _main                                                12    12      0   30515
                                             22 BANK1     12    12      0
                    _I2C_Master_Read
                   _I2C_Master_Start
                    _I2C_Master_Stop
                   _I2C_Master_Write
                          _LCD_POINT
                          _UART_Init
                         _UART_Write
                            _Val_STR
                            ___awmod
                            ___fladd
                            ___fldiv
                            ___flmul
                            ___fltol
                            ___lwdiv
                            ___lwmod
                           ___xxtofl
                               _init
                            _initOsc
                            _lcd_cmd
                            _lcd_dwr
                           _lcd_init
                            _lcd_msg
                                _log
 ---------------------------------------------------------------------------------
 (1) _log                                                  7     3      4   15778
                                             77 BANK0      1     1      0
                                             16 BANK1      6     2      4
                            ___fladd
                            ___fldiv (ARG)
                             ___fleq
                             ___flge
                            ___flmul
                           ___xxtofl
                          _eval_poly
                              _frexp
 ---------------------------------------------------------------------------------
 (2) _frexp                                                7     2      5     896
                                             12 COMMON     2     2      0
                                              0 BANK0      5     0      5
                             ___fleq
 ---------------------------------------------------------------------------------
 (3) ___fleq                                              12     4      8     520
                                              0 COMMON    12     4      8
 ---------------------------------------------------------------------------------
 (2) _eval_poly                                           16     9      7    6731
                                              0 BANK1     16     9      7
                            ___fladd
                            ___fldiv (ARG)
                            ___flmul
 ---------------------------------------------------------------------------------
 (3) ___flmul                                             26    18      8    3303
                                             51 BANK0     26    18      8
                          __Umul8_16
                            ___fladd (ARG)
                            ___fldiv (ARG)
                           ___xxtofl (ARG)
                              _frexp (ARG)
 ---------------------------------------------------------------------------------
 (4) __Umul8_16                                            9     7      2     799
                                              0 COMMON     9     7      2
 ---------------------------------------------------------------------------------
 (3) ___fladd                                             20    12      8    3022
                                             31 BANK0     20    12      8
                          __Umul8_16 (ARG)
                            ___fldiv (ARG)
                           ___xxtofl (ARG)
                              _frexp (ARG)
 ---------------------------------------------------------------------------------
 (2) ___xxtofl                                            14    10      4     542
                                              0 COMMON    14    10      4
 ---------------------------------------------------------------------------------
 (2) ___flge                                              12     4      8     460
                                              0 COMMON    12     4      8
 ---------------------------------------------------------------------------------
 (1) _lcd_msg                                              2     2      0     430
                                              3 COMMON     2     2      0
                            _lcd_dwr
 ---------------------------------------------------------------------------------
 (2) _lcd_dwr                                              1     1      0      22
                                              2 COMMON     1     1      0
                            _lcd_lat
                          _lcd_ready
 ---------------------------------------------------------------------------------
 (1) _lcd_init                                             0     0      0      22
                            _lcd_cmd
 ---------------------------------------------------------------------------------
 (1) _initOsc                                              3     3      0      22
                                              0 COMMON     3     3      0
 ---------------------------------------------------------------------------------
 (1) _init                                                 0     0      0     412
                    _I2C_Master_Init
 ---------------------------------------------------------------------------------
 (2) _I2C_Master_Init                                      8     4      4     412
                                              0 BANK0      8     4      4
                            ___lldiv
 ---------------------------------------------------------------------------------
 (3) ___lldiv                                             14     6      8     314
                                              0 COMMON    14     6      8
 ---------------------------------------------------------------------------------
 (1) ___lwmod                                              6     2      4     767
                                              0 COMMON     6     2      4
 ---------------------------------------------------------------------------------
 (1) ___lwdiv                                              8     4      4     618
                                              0 COMMON     8     4      4
 ---------------------------------------------------------------------------------
 (1) ___fltol                                             11     7      4     381
                                              0 COMMON    11     7      4
 ---------------------------------------------------------------------------------
 (1) ___fldiv                                             26    18      8    1561
                                              5 BANK0     26    18      8
                          __Umul8_16 (ARG)
                             ___fleq (ARG)
                             ___flge (ARG)
                           ___xxtofl (ARG)
                              _frexp (ARG)
 ---------------------------------------------------------------------------------
 (1) ___awmod                                              7     3      4     448
                                              0 COMMON     7     3      4
 ---------------------------------------------------------------------------------
 (1) _Val_STR                                              3     3      0      22
                                              0 COMMON     3     3      0
 ---------------------------------------------------------------------------------
 (1) _UART_Write                                           1     1      0      22
                                              0 COMMON     1     1      0
 ---------------------------------------------------------------------------------
 (1) _UART_Init                                           16    12      4     572
                                              6 BANK0     16    12      4
                            ___aldiv
 ---------------------------------------------------------------------------------
 (2) ___aldiv                                             15     7      8     452
                                              0 COMMON     9     1      8
                                              0 BANK0      6     6      0
 ---------------------------------------------------------------------------------
 (1) _LCD_POINT                                            6     5      1    1676
                                              3 COMMON     6     5      1
                            _lcd_cmd
 ---------------------------------------------------------------------------------
 (2) _lcd_cmd                                              1     1      0      22
                                              2 COMMON     1     1      0
                            _lcd_lat
                          _lcd_ready
 ---------------------------------------------------------------------------------
 (3) _lcd_ready                                            2     2      0       0
                                              0 COMMON     2     2      0
 ---------------------------------------------------------------------------------
 (3) _lcd_lat                                              2     2      0       0
                                              0 COMMON     2     2      0
 ---------------------------------------------------------------------------------
 (1) _I2C_Master_Write                                     2     0      2     478
                                              0 COMMON     2     0      2
                    _I2C_Master_Wait
 ---------------------------------------------------------------------------------
 (1) _I2C_Master_Stop                                      0     0      0       0
                    _I2C_Master_Wait
 ---------------------------------------------------------------------------------
 (1) _I2C_Master_Start                                     0     0      0       0
                    _I2C_Master_Wait
 ---------------------------------------------------------------------------------
 (1) _I2C_Master_Read                                      6     4      2     349
                                              0 COMMON     6     4      2
                    _I2C_Master_Wait
 ---------------------------------------------------------------------------------
 (2) _I2C_Master_Wait                                      0     0      0       0
 ---------------------------------------------------------------------------------
 Estimated maximum stack depth 4
 ---------------------------------------------------------------------------------

 Call Graph Graphs:

 _main (ROOT)
   _I2C_Master_Read
     _I2C_Master_Wait
   _I2C_Master_Start
     _I2C_Master_Wait
   _I2C_Master_Stop
     _I2C_Master_Wait
   _I2C_Master_Write
     _I2C_Master_Wait
   _LCD_POINT
     _lcd_cmd
       _lcd_lat
       _lcd_ready
   _UART_Init
     ___aldiv
   _UART_Write
   _Val_STR
   ___awmod
   ___fladd
     __Umul8_16 (ARG)
     ___fldiv (ARG)
       __Umul8_16 (ARG)
       ___fleq (ARG)
       ___flge (ARG)
       ___xxtofl (ARG)
       _frexp (ARG)
         ___fleq
     ___xxtofl (ARG)
     _frexp (ARG)
       ___fleq
   ___fldiv
     __Umul8_16 (ARG)
     ___fleq (ARG)
     ___flge (ARG)
     ___xxtofl (ARG)
     _frexp (ARG)
       ___fleq
   ___flmul
     __Umul8_16
     ___fladd (ARG)
       __Umul8_16 (ARG)
       ___fldiv (ARG)
         __Umul8_16 (ARG)
         ___fleq (ARG)
         ___flge (ARG)
         ___xxtofl (ARG)
         _frexp (ARG)
           ___fleq
       ___xxtofl (ARG)
       _frexp (ARG)
         ___fleq
     ___fldiv (ARG)
       __Umul8_16 (ARG)
       ___fleq (ARG)
       ___flge (ARG)
       ___xxtofl (ARG)
       _frexp (ARG)
         ___fleq
     ___xxtofl (ARG)
     _frexp (ARG)
       ___fleq
   ___fltol
   ___lwdiv
   ___lwmod
   ___xxtofl
   _init
     _I2C_Master_Init
       ___lldiv
   _initOsc
   _lcd_cmd
     _lcd_lat
     _lcd_ready
   _lcd_dwr
     _lcd_lat
     _lcd_ready
   _lcd_init
     _lcd_cmd
       _lcd_lat
       _lcd_ready
   _lcd_msg
     _lcd_dwr
       _lcd_lat
       _lcd_ready
   _log
     ___fladd
       __Umul8_16 (ARG)
       ___fldiv (ARG)
         __Umul8_16 (ARG)
         ___fleq (ARG)
         ___flge (ARG)
         ___xxtofl (ARG)
         _frexp (ARG)
           ___fleq
       ___xxtofl (ARG)
       _frexp (ARG)
         ___fleq
     ___fldiv (ARG)
       __Umul8_16 (ARG)
       ___fleq (ARG)
       ___flge (ARG)
       ___xxtofl (ARG)
       _frexp (ARG)
         ___fleq
     ___fleq (ARG)
     ___flge (ARG)
     ___flmul (ARG)
       __Umul8_16
       ___fladd (ARG)
         __Umul8_16 (ARG)
         ___fldiv (ARG)
           __Umul8_16 (ARG)
           ___fleq (ARG)
           ___flge (ARG)
           ___xxtofl (ARG)
           _frexp (ARG)
             ___fleq
         ___xxtofl (ARG)
         _frexp (ARG)
           ___fleq
       ___fldiv (ARG)
         __Umul8_16 (ARG)
         ___fleq (ARG)
         ___flge (ARG)
         ___xxtofl (ARG)
         _frexp (ARG)
           ___fleq
       ___xxtofl (ARG)
       _frexp (ARG)
         ___fleq
     ___xxtofl (ARG)
     _eval_poly (ARG)
       ___fladd
         __Umul8_16 (ARG)
         ___fldiv (ARG)
           __Umul8_16 (ARG)
           ___fleq (ARG)
           ___flge (ARG)
           ___xxtofl (ARG)
           _frexp (ARG)
             ___fleq
         ___xxtofl (ARG)
         _frexp (ARG)
           ___fleq
       ___fldiv (ARG)
         __Umul8_16 (ARG)
         ___fleq (ARG)
         ___flge (ARG)
         ___xxtofl (ARG)
         _frexp (ARG)
           ___fleq
       ___flmul (ARG)
         __Umul8_16
         ___fladd (ARG)
           __Umul8_16 (ARG)
           ___fldiv (ARG)
             __Umul8_16 (ARG)
             ___fleq (ARG)
             ___flge (ARG)
             ___xxtofl (ARG)
             _frexp (ARG)
               ___fleq
           ___xxtofl (ARG)
           _frexp (ARG)
             ___fleq
         ___fldiv (ARG)
           __Umul8_16 (ARG)
           ___fleq (ARG)
           ___flge (ARG)
           ___xxtofl (ARG)
           _frexp (ARG)
             ___fleq
         ___xxtofl (ARG)
         _frexp (ARG)
           ___fleq
     _frexp (ARG)
       ___fleq

 Address spaces:
Name               Size   Autos  Total    Cost      Usage
BANK3               60      0       8       9        8.3%
BITBANK3            60      0       0       8        0.0%
SFR3                 0      0       0       4        0.0%
BITSFR3              0      0       0       4        0.0%
BANK2               60      0       0      11        0.0%
BITBANK2            60      0       0      10        0.0%
SFR2                 0      0       0       5        0.0%
BITSFR2              0      0       0       5        0.0%
BANK1               50     22      4F       7       98.8%
BITBANK1            50      0       0       6        0.0%
SFR1                 0      0       0       2        0.0%
BITSFR1              0      0       0       2        0.0%
BANK0               50     4E      4F       5       98.8%
BITBANK0            50      0       0       4        0.0%
SFR0                 0      0       0       1        0.0%
BITSFR0              0      0       0       1        0.0%
COMMON               E      E       E       1      100.0%
BITCOMMON            E      0       0       0        0.0%
CODE                 0      0       0       0        0.0%
DATA                 0      0      B4      12        0.0%
ABS                  0      0      B4       3        0.0%
NULL                 0      0       0       0        0.0%
STACK                0      0       0       2        0.0%
EEDATA             100      0       0       0        0.0%


Microchip Technology PIC Macro Assembler V2.10 build 88905656 
Symbol Table                                                                                   Sat Mar 14 00:34:23 2020

                        _C 0190                          _K 00A0               ___fldiv@aexp 003E  
             ___fldiv@bexp 003D                          _i 00BA                          pc 0002  
             ___fldiv@sign 0036                __CFG_CP$OFF 0000                         fsr 0004  
      __Umul8_16@word_mpld 0076                        l210 125C                        l204 113E  
                      l230 1173                        l302 1154                        l150 0042  
                      l207 1148                        l233 0810                        l145 11A1  
                      l241 1185                        l250 11C0                        l138 0736  
                      l238 122F                        l270 13F6                        l271 13FC  
                      l247 11DF                        l192 1155                        l256 128A  
                      l424 1505                        l272 1402                        l273 1408  
                      l274 140E                        l195 1161                        l275 1414  
                      l267 13EA                        l292 156C                        l276 141A  
                      l268 1442                        l453 15FB                        l189 12C2  
                      l277 1443                        l269 13F0                        l198 1135  
                      l702 0BEC                        l463 1683                        l712 0C32  
                      l554 13E7                        l562 16A0                        l706 0C10  
                      l299 114A                        l723 0C92                        l715 0C70  
                      l660 1340                        l724 0C9E                        l581 15D1  
                      l565 170C                        l821 0878                        l557 135D  
                      l574 15E6                        l670 12FC                        l566 1725  
                      l558 1379                        l815 0833                        l559 138E  
                      l584 15E6                        l761 0213                        l753 0191  
                      l737 009F                        l817 08CA                        l681 0A7A  
                      l850 11F4                        l842 0A16                        l739 021F  
                      l828 0894                        l852 1206                        l860 17FF  
                      l829 08A0                        l685 0B21                        l694 0C9E  
                      l759 0203                        l687 0AF8                        l783 0F6B  
                      l777 0FFF                        l866 149F                        l789 0FF3  
                      _GIE 005F                        _RD2 0042                        _RD3 0043  
                      _RD7 0047               __CFG_CPD$OFF 0000                        _log 08CB  
                      fsr0 0004                        indf 0000               ___awmod@sign 0076  
             ___flmul@aexp 0065               ___flmul@bexp 0066               ___flmul@sign 0060  
             ___flmul@temp 006B               ___flmul@prod 0067               LCD_POINT@col 0073  
             LCD_POINT@lin 0078               __CFG_LVP$OFF 0000               ___fltol@exp1 007A  
                     l3010 1150                       l3002 001A                       l2300 0802  
                     l3020 139B                       l3012 138F                       l3100 1328  
                     l2302 0805                       l3030 13B4                       l3022 139F  
                     l3014 1390                       l3102 132E                       l2310 14B3  
                     l2304 080D                       l3008 114A                       l3040 13D3  
                     l3032 13B8                       l3024 13A4                       l3016 1394  
                     l3200 00FF                       l3104 132F                       l3120 12D7  
                     l3112 12C3                       l2320 14ED                       l2312 14C0  
                     l2400 0A9C                       l3034 13BC                       l3026 13AA  
                     l3042 13D9                       l3018 1399                       l3210 0131  
                     l3202 0111                       l3050 156D                       l3106 1336  
                     l3122 12DB                       l3114 12C9                       l3130 12F8  
                     l2322 14EE                       l2314 14C4                       l2306 14A0  
                     l2410 0AB0                       l2402 0AA0                       l2330 1341  
                     l3044 13DE                       l3036 13C6                       l3028 13AD  
                     l3220 0152                       l3212 0132                       l3204 0115  
                     l3140 0054                       l3060 1597                       l3052 1578  
                     l3108 133C                       l3124 12E5                       l3116 12CC  
                     l2324 14F7                       l2316 14CD                       l2308 14B0  
                     l2500 0C25                       l2412 0AB4                       l2404 0AA4  
                     l2420 0AC4                       l2332 1355                       l3300 0264  
                     l3046 13E3                       l3038 13CC                       l3230 016B  
                     l3222 0154                       l3214 0140                       l3206 0116  
                     l3150 0068                       l3142 0055                       l3134 0043  
                     l3062 159F                       l3126 12EB                       l3118 12D3  
                     l2318 14DF                       l2326 14FD                       l2510 0C3C  
                     l2502 0C29                       l2430 0B07                       l2422 0AC5  
                     l2414 0AB8                       l2406 0AA8                       l2350 0A29  
                     l2342 0A17                       l2270 11EA                       l2334 1371  
                     l3310 028A                       l3302 026A                       l2280 1207  
                     l3240 018E                       l3224 015D                       l3232 0171  
                     l3208 011F                       l3216 0144                       l3160 0081  
                     l3144 005A                       l3152 006A                       l3136 004A  
                     l3080 15C6                       l3072 15AD                       l3064 15A1  
                     l3056 1581                       l3128 12F2                       l2520 0C7A  
                     l2512 0C4A                       l2504 0C2F                       l2440 0B25  
                     l2432 0B0B                       l2424 0ADC                       l2416 0ABC  
                     l2408 0AAC                       l2352 0A2E                       l2360 0A3E  
                     l2344 0A1E                       l2272 11EE                       l2600 0DFC  
                     l2336 138B                       l3400 0423                       l3320 02BA  
                     l3312 0298                       l3304 0276                       l2290 1212  
                     l2282 120B                       l3250 01AD                       l3234 0175  
                     l3226 0161                       l3218 014A                       l3170 0095  
                     l3162 0082                       l3154 0072                       l3146 005F  
                     l3138 0050                       l3082 15D6                       l3066 15A5  
                     l3074 15BF                       l3058 1596                       l3090 1305  
                     l2530 0C8E                       l2522 0C82                       l2514 0C4E  
                     l2450 0B4E                       l2442 0B2A                       l2434 0B0C  
                     l2426 0AFC                       l2418 0AC0                       l2370 0A58  
                     l2362 0A46                       l2354 0A33                       l2346 0A24  
                     l2274 11FD                       l2266 11E1                       l2610 0E8C  
                     l2602 0E0C                       l2338 138D                       l3410 0516  
                     l3402 042F                       l3330 02EA                       l3322 02C8  
                     l3314 029D                       l3306 027C                       l2292 121A  
                     l2284 120F                       l3260 01F6                       l3252 01C6  
                     l3244 0196                       l3236 0176                       l3228 0162  
                     l3164 0087                       l3172 0097                       l3156 0077  
                     l3148 0067                       l3084 15DB                       l3092 1308  
                     l2700 1292                       l2532 0C99                       l2524 0C87  
                     l2516 0C6C                       l2508 0C37                       l2460 0B62  
                     l2452 0B52                       l2436 0B15                       l2428 0B05  
                     l2380 0A6F                       l2372 0A5C                       l2364 0A4B  
                     l2356 0A3B                       l2348 0A28                       l2276 1202  
                     l2268 11E3                       l2620 0F20                       l2612 0E9C  
                     l2604 0E29                       l2540 0CAC                       l3420 05C4  
                     l3412 0555                       l3404 0435                       l3340 031A  
                     l3332 02F8                       l3324 02CD                       l3316 02AC  
                     l3308 0281                       l2710 115B                       l2294 1223  
                     l2286 1210                       l3270 020F                       l3262 01FA  
                     l3246 019B                       l3254 01CC                       l3238 017A  
                     l3190 00E0                       l3174 00A7                       l3182 00C0  
                     l3166 008C                       l3158 007D                       l3094 130F  
                     l3086 12FD                       l2702 12BF                       l2534 0C9D  
                     l2526 0C88                       l2518 0C75                       l2470 0BCA  
                     l2462 0B6B                       l2454 0B5B                       l2446 0B33  
                     l2438 0B19                       l2390 0A88                       l2382 0A70  
                     l2374 0A5D                       l2366 0A51                       l2358 0A3C  
                     l2630 0F45                       l2622 0F2E                       l2614 0EC9  
                     l2606 0E42                       l2550 0CC3                       l2542 0CB0  
                     l3430 061A                       l3422 05D7                       l3414 055F  
                     l3406 0492                       l3350 034D                       l3342 0328  
                     l3334 02FD                       l3326 02DC                       l3318 02B1  
                     l2296 1224                       l2288 1211                       l2720 160A  
                     l2712 15E7                       l3264 0202                       l3256 01D9  
                     l3248 01A9                       l3192 00E8                       l3184 00C5  
                     l3176 00B3                       l3168 0094                       l3096 1313  
                     l3088 12FF                       l2704 12C0                       l2800 088E  
                     l2528 0C8C                       l2472 0BCF                       l2456 0B5D  
                     l2448 0B4A                       l2464 0B70                       l2392 0A8C  
                     l2376 0A62                       l2384 0A72                       l2368 0A52  
                     l2640 0F68                       l2624 0F37                       l2632 0F4B  
                     l2616 0EEF                       l2608 0E5F                       l2560 0CDC  
                     l2552 0CC5                       l2544 0CB1                       l2536 0C9F  
                     l3440 0655                       l3432 0627                       l3424 05EA  
                     l3416 059E                       l3408 04A9                       l3360 0375  
                     l3352 0354                       l3344 032D                       l3336 030C  
                     l3328 02E1                       l3280 022B                       l2298 122C  
                     l2730 162E                       l2722 160E                       l2714 15EA  
                     l3266 0209                       l3258 01E7                       l3194 00F0  
                     l3178 00B7                       l3098 1317                       l2706 12C1  
                     l2810 08C1                       l2802 0898                       l2490 0C17  
                     l2482 0C02                       l2466 0B86                       l2474 0BDE  
                     l2458 0B61                       l2394 0A90                       l2386 0A80  
                     l2378 0A67                       l2650 0F87                       l2634 0F4F  
                     l2626 0F3B                       l2618 0F17                       l2570 0CF1  
                     l2562 0CDD                       l2554 0CCD                       l2546 0CB6  
                     l2538 0CA6                       l3450 06E0                       l3442 0694  
                     l3434 062F                       l3426 05FD                       l3418 05B1  
                     l3370 039D                       l3362 037C                       l3354 035E  
                     l3346 033C                       l3338 0311                       l3290 0244  
                     l3282 0230                       l2708 1155                       l2740 165C  
                     l2732 1632                       l2724 1616                       l2716 15EE  
                     l3268 020D                       l3196 00F8                       l3188 00CE  
                     l2900 11C2                       l2812 08C2                       l2804 08A2  
                     l2492 0C19                       l2484 0C0B                       l2476 0BF4  
                     l2468 0BC4                       l2396 0A94                       l2388 0A84  
                     l2660 0FCD                       l2652 0FA0                       l2644 0F70  
                     l2636 0F50                       l2628 0F3C                       l2580 0D0C  
                     l2572 0CF9                       l2564 0CE2                       l2556 0CD2  
                     l2548 0CBB                       l2820 1467                       l3460 0725  
                     l3452 06EA                       l3444 06A7                       l3436 063C  
                     l3428 0613                       l3380 03C9                       l3372 03A4  
                     l3364 0386                       l3356 0364                       l3348 0343  
                     l3292 0245                       l3284 023F                       l3276 0220  
                     l2910 1132                       l2742 1665                       l2734 163B  
                     l2726 161E                       l2718 15FF                       l3198 00FA  
                     l3542 1428                       l2902 11C3                       l2806 08B8  
                     l2494 0C1E                       l2486 0C0F                       l2478 0BF9  
                     l2398 0A98                       l2670 0FEC                       l2662 0FD7  
                     l2646 0F75                       l2654 0FA6                       l2638 0F54  
                     l2590 0D8E                       l2582 0D1C                       l2574 0CFE  
                     l2566 0CE7                       l2558 0CD8                       l2830 149E  
                     l3470 073F                       l3462 072C                       l3454 0703  
                     l3446 06BA                       l3438 0648                       l3390 03F9  
                     l3382 03D5                       l3374 03AE                       l3366 038C  
                     l3358 036B                       l3294 0246                       l3286 0242  
                     l3278 0226                       l2920 123D                       l2912 113F  
                     l2680 116C                       l2736 164D                       l2728 1621  
                     l2744 166B                       l3544 0022                       l2904 11CF  
                     l2760 16C0                       l2752 1684                       l2808 08BD  
                     l2488 0C14                       l2496 0C20                       l2672 0FF7  
                     l2664 0FD9                       l2656 0FB3                       l2648 0F83  
                     l2592 0DAA                       l2584 0D29                       l2576 0D03  
                     l2568 0CEF                       l2840 17F1                       l2832 149F  
                     l2824 1470                       l2816 1444                       l3480 0772  
                     l3472 0748                       l3464 0731                       l3456 0710  
                     l3448 06CD                       l3392 03FF                       l3384 03DB  
                     l3376 03B4                       l3368 0393                       l3296 0252  
                     l3288 0243                       l2922 1246                       l2914 1144  
                     l2682 116D                       l2746 1670                       l2738 165B  
                     l2850 1420                       l2690 117E                       l2906 11D3  
                     l2762 16E4                       l2754 1698                       l2498 0C24  
                     l2666 0FE7                       l2658 0FBE                       l2594 0DC6  
                     l2586 0D46                       l2842 17F7                       l2826 148D  
                     l2818 145F                       l3490 07AF                       l3482 0781  
                     l3474 0756                       l3466 0739                       l3458 071F  
                     l3394 040B                       l3386 03E7                       l3378 03C3  
                     l3298 0258                       l2924 124B                       l2916 1230  
                     l2908 112D                       l2932 1136                       l2684 116E  
                     l2676 1163                       l2748 167B                       l2860 118E  
                     l2692 117F                       l2764 16E8                       l2756 16B4  
                     l2780 083B                       l2772 0812                       l2668 0FEB  
                     l2596 0DCF                       l2588 0D62                       l2836 1726  
                     l2828 149A                       l3492 07B7                       l3484 0789  
                     l3476 075B                       l3468 073A                       l3396 0411  
                     l3388 03ED                       l2926 1257                       l2918 1235  
                     l2934 113B                       l2678 1168                       l2870 155F  
                     l2862 1191                       l2846 13E9                       l2694 1180  
                     l2686 1175                       l2766 1722                       l2758 16BC  
                     l2790 085D                       l2774 0817                       l2598 0DDF  
                     l2838 1755                       l2950 0988                       l2942 08F5  
                     l3494 07C6                       l3486 0798                       l3478 076A  
                     l3398 041D                       l2928 1258                       l2880 1568  
                     l2872 1560                       l2960 0006                       l2696 128B  
                     l2864 1192                       l2856 1186                       l2688 117A  
                     l2768 1724                       l2792 0861                       l2784 0844  
                     l2776 081B                       l2952 098E                       l2944 0910  
                     l2936 08CB                       l3496 07CC                       l3488 07A0  
                     l2890 126B                       l2882 1569                       l2874 1561  
                     l2698 128F                       l2858 118C                       l2866 11A2  
                     l2794 086F                       l2786 0849                       l2778 082B  
                     l2954 09B1                       l2938 08E6                       l2892 1270  
                     l2884 125E                       l2876 1564                       l2868 1506  
                     l2980 0010                       l2972 000C                       l2964 0008  
                     l2796 087F                       l2788 0856                       l2948 091F  
                     l2894 1276                       l2886 1264                       l2878 1565  
                     l2958 0005                       l2798 088A                       l2896 127B  
                     l2992 0016                       l2984 0012                       l2976 000E  
                     l2968 000A                       l2898 1281                       l2996 0018  
                     l2988 0014                       ?_log 00DC                       STR_1 1048  
                     STR_2 104C                       STR_3 1040                       STR_4 1044  
                     STR_5 1050                       STR_6 1044                       STR_7 1050  
                     STR_8 1050                       STR_9 1044                       u2200 14B0  
                     u2201 14AF                       u3010 0F3B                       u3011 0F3A  
                     u2220 14C4                       u2300 0A28                       u3100 0FB3  
                     u2221 14C3                       u2301 0A27                       u3101 0FB2  
                     u3005 0F30                       u2310 0A2E                       u3110 0FCD  
                     u3030 0F4F                       u2215 14B5                       u2311 0A2D  
                     u3111 0FCC                       u3031 0F4E                       u3200 1632  
                     u4000 008C                       u2240 14DF                       u2400 0AE7  
                     u2320 0A33                       u2160 11EE                       u3120 0FEB  
                     u3040 0F54                       u3201 1631                       u4001 008B  
                     u2241 14DE                       u2401 0AE5                       u2321 0A32  
                     u2161 11ED                       u3121 0FEA                       u3105 0FAF  
                     u3041 0F53                       u3025 0F3E                       u4010 00A7  
                     u3130 12A2                       u2410 0AE8                       u2330 0A51  
                     u3050 0F68                       u4011 00A6                       u2235 14C6  
                     u2331 0A50                       u3115 0FC9                       u3051 0F67  
                     u3140 115B                       u3220 164D                       u4100 0152  
                     u4020 00C5                       u2260 14FD                       u3300 16E8  
                     u2500 0B52                       u2420 0AFC                       u2340 0A5C  
                     u2180 1202                       u3060 0F6F                       u3141 115A  
                     u3221 164C                       u4101 0151                       u4021 00C4  
                     u2261 14FC                       u2245 14DB                       u3301 16E7  
                     u2501 0B51                       u2421 0AFB                       u2341 0A5B  
                     u2181 1201                       u3061 0F6E                       u3150 1161  
                     u2190 1223                       u4030 00FF                       u2510 0B61  
                     u2430 0B0B                       u2350 0A62                       u3070 0F75  
                     u2270 1355                       u3151 1160                       u2191 1222  
                     u3215 1634                       u4031 00FE                       u2255 14EF  
                     u3135 129D                       u3311 16F7                       u2511 0B60  
                     u2431 0B0A                       u2351 0A61                       u2175 11F5  
                     u3071 0F74                       u2271 1354                       u3240 166B  
                     u3160 15EE                       u4200 01BC                       u4120 0161  
                     u3320 1722                       u3312 16F8                       u2600 0C0F  
                     u2360 0A67                       u3080 0F87                       u2280 1371  
                     u3241 166A                       u3225 1649                       u3161 15ED  
                     u4121 0160                       u3321 1721                       u3313 16FD  
                     u2601 0C0E                       u2361 0A66                       u3081 0F86  
                     u2281 1370                       u3250 1670                       u3170 15FF  
                     u4210 01D9                       u3314 16FE                       u3410 088E  
                     u3330 0817                       u2610 0C14                       u2530 0B86  
                     u2450 0B21                       u2370 0A80                       u3090 0F96  
                     u2290 138B                       u3251 166F                       u3235 165D  
                     u3171 15FE                       u4211 01D8                       u4115 0156  
                     u3315 1703                       u3411 088D                       u3331 0816  
                     u2611 0C13                       u2531 0B85                       u2451 0B20  
                     u2371 0A7F                       u2291 138A                       u3180 161E  
                     u4220 01F6                       u4140 0175                       u4060 0115  
                     u3316 1704                       u3260 1698                       u3420 0894  
                     u3340 081B                       u2700 0C6C                       u2620 0C1E  
                     u2460 0B25                       u2380 0A84                       u3500 17F7  
                     u3181 161D                       u4221 01F5                       u4205 01B7  
                     u4141 0174                       u4061 0114                       u4045 0101  
                     u3325 171E                       u3261 1697                       u3421 0893  
                     u3405 0883                       u3341 081A                       u2701 0C6B  
                     u2621 0C1D                       u2541 0B9D                       u2533 0B82  
                     u2525 0B64                       u2461 0B24                       u2445 0B0E  
                     u2381 0A83                       u3501 17F6                       u3510 1516  
                     u4230 020D                       u4150 017A                       u3270 16B4  
                     u3430 0898                       u3350 083B                       u2710 0C75  
                     u2630 0C24                       u2550 0BB1                       u2542 0B9E  
                     u2470 0B2A                       u2390 0ADC                       u4231 020C  
                     u4215 01D5                       u4151 0179                       u4135 0164  
                     u4055 010A                       u3271 16B3                       u3431 0897  
                     u3351 083A                       u2711 0C74                       u2631 0C23  
                     u2551 0BB2                       u2543 0BA3                       u2471 0B29  
                     u2391 0ADB                       u3095 0F91                       u2295 1387  
                     u3520 152F                       u4160 018E                       u4080 0131  
                     u3280 16C0                       u3440 08AD                       u2720 0C7A  
                     u2640 0C29                       u2560 0BCF                       u2552 0BB7  
                     u2544 0BA4                       u2800 0CE2                       u3600 08E6  
                     u4240 0343                       u4225 01F2                       u4161 018D  
                     u4081 0130                       u3281 16BF                       u2721 0C79  
                     u2641 0C28                       u2561 0BCE                       u2553 0BB8  
                     u2545 0BA9                       u2481 0B3C                       u2801 0CE1  
                     u3601 08E5                       u4241 0342                       u4170 0195  
                     u4090 014A                       u3450 08BD                       u3370 085C  
                     u2730 0C87                       u2650 0C2F                       u2570 0BF4  
                     u2546 0BAA                       u2490 0B4E                       u2482 0B43  
                     u2810 0CE7                       u3610 0910                       u4250 036B  
                     u3195 1623                       u3531 1541                       u3515 1511  
                     u4171 0194                       u4091 0149                       u4075 0118  
                     u3291 16CF                       u3451 08BC                       u3371 085B  
                     u2731 0C86                       u2651 0C2E                       u2571 0BF3  
                     u2491 0B4D                       u2483 0B4A                       u2395 0AD8  
                     u2811 0CE6                       u3611 090F                       u4251 036A  
                     u4307 02A5                       u3540 1264                       u3532 1542  
                     u3620 1150                       u3700 13D9                       u4180 019B  
                     u3292 16D0                       u3460 08C1                       u2740 0C8C  
                     u2660 0C36                       u2580 0BF9                       u2820 0CFE  
                     u4260 0393                       u3541 1263                       u3533 1547  
                     u3525 152A                       u3621 114F                       u3701 13D8  
                     u4181 019A                       u4085 012D                       u3293 16D5  
                     u3461 08C0                       u3445 08A8                       u3365 084E  
                     u2741 0C8B                       u2661 0C35                       u2581 0BF8  
                     u2901 0E1B                       u2821 0CFD                       u4261 0392  
                     u4317 02D5                       u3550 126A                       u3534 1548  
                     u3710 13DE                       u3630 1394                       u4190 01AD  
                     u3294 16D6                       u3390 087E                       u2750 0C9D  
                     u2670 0C3C                       u2902 0E22                       u2830 0D03  
                     u3470 145F                       u4270 072C                       u3551 1269  
                     u3535 154D                       u3711 13DD                       u3631 1393  
                     u4191 01AC                       u3295 16DB                       u3391 087D  
                     u2751 0C9C                       u2671 0C3B                       u2903 0E29  
                     u2831 0D02                       u3471 145E                       u4407 07BF  
                     u4271 072B                       u4327 0305                       u3560 1270  
                     u3536 154E                       u3640 139F                       u3800 15D6  
                     u3720 1578                       u3296 16DC                       u2680 0C4E  
                     u2760 0CB0                       u4280 0731                       u3561 126F  
                     u3641 139E                       u3801 15D5                       u3721 1577  
                     u3385 0870                       u2681 0C4D                       u2921 0E51  
                     u2841 0D54                       u2761 0CAF                       u4417 07D4  
                     u4281 0730                       u4337 0335                       u3650 13AA  
                     u3810 15DB                       u3730 158F                       u3570 11DF  
                     u2690 0C5D                       u2922 0E58                       u2842 0D5B  
                     u2770 0CB6                       u4290 0736                       u4427 1285  
                     u3651 13A9                       u3811 15DA                       u3571 11DE  
                     u2595 0C04                       u2931 0E7E                       u2923 0E5F  
                     u2915 0E2B                       u2851 0D70                       u2843 0D62  
                     u2771 0CB5                       u4291 0735                       u4347 03BC  
                     _PEIE 005E                       u3580 1254                       u3740 15A5  
                     u3820 1305                       u2932 0E85                       u2852 0D77  
                     u2780 0CBB                       u3581 1250                       u4437 1216  
                     u3741 15A4                       u3821 1304                       u2941 0EAB  
                     u2933 0E8C                       u2861 0D9C                       u2853 0D7E  
                     u2781 0CBA                       u3485 172B                       u4357 0718  
                     u3670 13BC                       u3750 15AC                       u3910 12DB  
                     u2950 0ED5                       u2942 0EB2                       u2862 0DA3  
                     u2790 0CDC                       u4447 1228                       u3671 13BB  
                     u3751 15AB                       u3735 158A                       u3911 12DA  
                     u2695 0C58                       u2943 0EB9                       u2871 0DB8  
                     u2863 0DAA                       u2791 0CDB                       u3495 175E  
                     u4367 0763                       u3680 13C6                       u3840 1317  
                     u3920 12E5                       u2872 0DBF                       u4457 0809  
                     u3681 13C5                       u3665 13AE                       u3841 1316  
                     u3921 12E4                       u3905 12CD                       u2961 0EE1  
                     u2873 0DC6                       u4377 077A                       u3594 1257  
                     u3770 15BE                       u2970 0EFD                       u2962 0EE8  
                     u3771 15BD                       u3835 1309                       u2963 0EEF  
                     u2955 0ED0                       u2891 0DEE                       u4387 0791  
                     u3780 15C5                       u3860 1328                       u3940 12F8  
                     u2892 0DF5                       u3685 13C2                       u3781 15C4  
                     u3765 15AE                       u3861 1327                       u3941 12F7  
                     u3925 12E1                       u2981 0F09                       u2893 0DFC  
                     u2885 0DC8                       u4397 07A8                       u3950 0054  
                     u2982 0F10                       u3695 13CD                       u3951 0053  
                     u3855 1318                       u3935 12EC                       u2983 0F17  
                     u2975 0EF8                       u3960 005A                       u3880 133C  
                     u3961 0059                       u3881 133B                       u3865 1324  
                     u3970 005F                       u3890 12C9                       u3971 005E  
                     u3795 15C8                       u3875 1330                       u3891 12C8  
                     u2995 0F19                       u3980 0081                       u3981 0080  
                     u3990 0087                       u3991 0086               __CFG_WRT$OFF 0000  
       __size_of_LCD_POINT 002E                       _main 0220                       _init 1186  
                     btemp 007E                       log@x 00DC                       start 0000  
            __CFG_IESO$OFF 0000            ___fldiv@new_exp 0037            __end_of_Val_STR 0043  
                    ??_log 006D           ?_I2C_Master_Init 0020           ?_I2C_Master_Read 0070  
         ?_I2C_Master_Wait 0070           ?_I2C_Master_Stop 0070              ___fltol@sign1 0079  
          __end_of___aldiv 1684            __end_of___fladd 0C9F                      ?_main 0070  
                    ?_init 0070            __end_of___fldiv 0220                      STR_10 103B  
                    STR_11 1036              __CFG_WDTE$OFF 0000            __end_of___awmod 13E8  
          __end_of___flmul 1000            __end_of___fltol 15E7                      _ANSEL 0188  
          __end_of___lldiv 1506            __end_of___lwdiv 1341            __end_of___lwmod 12FD  
                    _RCREG 001A                      _SPBRG 0099                      _PORTA 0005  
                    _PORTB 0006                      _PORTC 0007                      _PORTD 0008  
                    _PORTE 0009                      _TRISA 0085                      _TRISB 0086  
                    _TRISC 0087                      _TRISD 0088                      _SSPIE 0463  
                    _TRISE 0089                      _SSPIF 0063                      _TXREG 0019  
           __CFG_FCMEN$OFF 0000            __end_of_lcd_cmd 1174                ?_UART_Write 0070  
       __size_of_UART_Init 0067            __end_of_lcd_lat 0811            __end_of_lcd_dwr 1186  
          __end_of_lcd_msg 11E0            __end_of_invBeta 1036                      _invT0 102E  
          __end_of_initOsc 1444                      _frexp 1444                      _errno 00B0  
               Val_STR@num 0072             __CFG_BOREN$OFF 0000                      pclath 000A  
                    status 0003                      wtemp0 007E             __CFG_MCLRE$OFF 0000  
          __initialization 07DF                log@exponent 00E0               __end_of_main 07DF  
             __end_of_init 11A2          __end_of_LCD_POINT 128B                     ??_main 00E2  
                   ??_init 007E          ?_I2C_Master_Start 0070          ?_I2C_Master_Write 0070  
       ??_I2C_Master_Start 0070         ??_I2C_Master_Write 0072                     ?_frexp 0020  
                   _ANSELH 0189                     _CONT_C 00BB                     _CONT_D 00BC  
                   _CONT_U 00BD                initOsc@frec 0072                     _RES_D1 00BF  
                   _RES_D2 00BE                     _RES_EN 00C2                     _POT_D1 00C1  
                   _POT_D2 00C0                     _SSPADD 0093                     _POT_EN 00C3  
                   _TRISC3 043B                     _TRISC4 043C                     _SSPCON 0014  
                   _SSPBUF 0013           __end_of___xxtofl 08CB             __CFG_PWRTE$OFF 0000  
                ??_Val_STR 0070           __end_of_lcd_init 11C1          __end_of_UART_Init 156D  
                   ___flge 1684                     _adcMax 1006                     ___fleq 1341  
      __size_of_UART_Write 000C                  ??___aldiv 0078                  ??___fladd 0047  
                ??___fldiv 002D                  ??___awmod 0074                  ??___flmul 005B  
                ??___fltol 0074                  ??___lldiv 0078                  ??___lwdiv 0074  
                ??___lwmod 0074                     _estado 00EE            ___awmod@divisor 0070  
          ___awmod@counter 0075                  ??_lcd_cmd 0072                  ??_lcd_lat 0070  
                ??_lcd_dwr 0072                  ??_lcd_msg 0073                  ??_initOsc 0070  
       __size_of__Umul8_16 0027                 ___flge@ff1 0070                 ___flge@ff2 0074  
             ___xxtofl@arg 007A               ___xxtofl@exp 0079               ___xxtofl@val 0070  
               ___fleq@ff1 0070                 ___fleq@ff2 0074           __end_oflog@coeff 102E  
  __end_of__initialization 07FC               eval_poly@res 00D8                 ___fltol@f1 0070  
           __pcstackCOMMON 0070               __pidataBANK1 0003              __end_of_invT0 1032  
            __end_of_frexp 14A0         __size_of_lcd_ready 0029                    ??_frexp 007C  
               __pbssBANK0 006E                 __pbssBANK1 00A0                 __pbssBANK3 0190  
       __size_of_eval_poly 00DA          __end_of__Umul8_16 1207                 __pmaintext 0220  
                  ?___flge 0070                    ?___fleq 0070                  ?___xxtofl 0070  
             ??_UART_Write 0070                    _PESO_EN 006E                    _TEMP_EN 00C6  
                  _SSPCON2 0091                  ?_lcd_init 0070                    _SSPSTAT 0094  
               __stringtab 1000                    _Val_INT 00CA                    _Val_MOV 00C9  
                  _Val_VIB 00C8                    _Val_STR 0004          __end_of_lcd_ready 1230  
                  ___aldiv 15E7            __size_of___flge 00A2            __size_of___fleq 004E  
                  ___fladd 0A17                    ___fldiv 0043                    ___awmod 138F  
                  ___flmul 0C9F                    ___fltol 156D                    ___lldiv 14A0  
       __end_of_UART_Write 1155                    ___lwdiv 12FD                    ___lwmod 12C3  
        __end_of_eval_poly 1800                    __ptext1 08CB                    __ptext2 1444  
                  __ptext3 1341                    __ptext4 1726                    __ptext5 0C9F  
                  __ptext6 11E0                    __ptext7 0A17                    __ptext8 0811  
                  __ptext9 1684                    _lcd_cmd 1162                    _lcd_lat 0802  
                  _lcd_dwr 1174                    _lcd_msg 11C1                    _invBeta 1032  
                  _initOsc 13E8               __size_of_log 014C                 ??___xxtofl 0074  
         ___awmod@dividend 0072           ___aldiv@dividend 0074                  _LCD_POINT 125D  
 __size_of_I2C_Master_Init 0038   __size_of_I2C_Master_Read 002D   __size_of_I2C_Master_Wait 000D  
 __size_of_I2C_Master_Stop 0009                    clrloop0 1126                 ??_lcd_init 0073  
     end_of_initialization 07FC  __size_of_I2C_Master_Start 0009  __size_of_I2C_Master_Write 000A  
          ___lldiv@divisor 0070                  _PESO_EN_1 00C4            ___lldiv@counter 007D  
                _RCSTAbits 0018           ___aldiv@quotient 0022           I2C_Master_Init@c 0020  
         I2C_Master_Read@a 0070                  _TEMP_EN_1 00C5                  _UART_Init 1506  
           UART_Write@data 0070                ___fladd@grs 0052              ___xxtofl@sign 0078  
               ?_LCD_POINT 0073                  _TRISCbits 0087                ___fldiv@grs 0039  
              ___fldiv@rem 0032                ___flmul@grs 0061                  _TXSTAbits 0098  
           __end_of___flge 1726             __end_of_adcMax 100A             __end_of___fleq 138F  
               ?_UART_Init 0026        start_initialization 07DF                 eval_poly@d 00D0  
               eval_poly@n 00D1                 eval_poly@x 00CC                __end_of_log 0A17  
               frexp@value 0020          ??_I2C_Master_Init 0024          ??_I2C_Master_Read 0072  
        ??_I2C_Master_Wait 0070          ??_I2C_Master_Stop 0070   __CFG_FOSC$INTRC_NOCLKOUT 0000  
                 ??___flge 0078                   ??___fleq 0078                  __Umul8_16 11E0  
              __pdataBANK1 00EE                  ___fladd@a 0043                  ___fladd@b 003F  
                ___fldiv@a 0025                  ___fldiv@b 0029                  ___flmul@a 0057  
                ___flmul@b 0053                  ___latbits 0002                ??_LCD_POINT 0074  
            __pcstackBANK0 0020              __pcstackBANK1 00CC          __size_of___xxtofl 00BA  
        __size_of_lcd_init 001F           _I2C_Master_Start 112D           _I2C_Master_Write 113F  
                 ?_Val_STR 0070                  _main$1116 00E6                  _main$1117 00EA  
         ___lwdiv@dividend 0072                   ?___aldiv 0070                   ?___fladd 003F  
                 ?___fldiv 0025                   ?___awmod 0070                   ?___flmul 0053  
                 ?___fltol 0070                   ?___lldiv 0070                 ?__Umul8_16 0070  
                 ?___lwdiv 0070                   ?___lwmod 0070                ??_UART_Init 002A  
                _lcd_ready 1207                  __pstrings 1000                   ?_lcd_cmd 0070  
                 ?_lcd_lat 0070                   ?_lcd_dwr 0070                   ?_lcd_msg 0070  
                 ?_initOsc 0070                  _eval_poly 1726           ___lwdiv@quotient 0075  
           __size_of_frexp 005C            ___aldiv@divisor 0070            ___aldiv@counter 0020  
                clear_ram0 1125                   _PIR1bits 000C                   _RES_cien 00A4  
        UART_Init@baudrate 0026                 ?_lcd_ready 0070                   _POT_cien 00A8  
              __stringbase 1005                 ?_eval_poly 00CC                 _ADC_PESO_V 00AC  
               _ADC_TEMP_V 0194        I2C_Master_Read@temp 0074                 _DECI_1_RES 00B4  
               _DECI_1_POT 00B8                 _DECI_2_RES 00B2                 _DECI_2_POT 00B6  
                 _Val_PESO 00C7                   _Val_TEMP 00CB                  frexp@eptr 0024  
         __size_of_Val_STR 003F                ??__Umul8_16 0072           __size_of___aldiv 009D  
         __size_of___fladd 0288           __size_of___fldiv 01DD           __size_of___awmod 0059  
         __size_of___flmul 0361           __size_of___fltol 007A           __size_of___lldiv 0066  
         __size_of___lwdiv 0044           __size_of___lwmod 003A         __end_of__stringtab 1006  
         __size_of_lcd_cmd 0012           __size_of_lcd_lat 000F           __size_of_lcd_dwr 0012  
         __size_of_lcd_msg 001F            _I2C_Master_Init 128B            _I2C_Master_Read 1230  
                 ___xxtofl 0811            _I2C_Master_Wait 1155            _I2C_Master_Stop 1136  
         __size_of_initOsc 005C            ___lwdiv@divisor 0070            ___lwdiv@counter 0077  
                 __ptext10 11C1                   __ptext11 1174                   __ptext20 0043  
                 __ptext12 11A2                   __ptext21 138F                   __ptext13 13E8  
                 __ptext30 113F                   __ptext22 0004                   __ptext14 1186  
                 __ptext31 1136                   __ptext23 1149                   __ptext15 128B  
                 __ptext32 112D                   __ptext24 1506                   __ptext16 14A0  
                 __ptext33 1230                   __ptext25 15E7                   __ptext17 12C3  
                 __ptext34 1155                   __ptext26 125D                   __ptext18 12FD  
                 __ptext27 1162                   __ptext19 156D                   __ptext28 1207  
                 __ptext29 0802          __CFG_BOR4V$BOR40V 0000                   _lcd_init 11A2  
            __size_of_main 05BF              __size_of_init 001C                   lcd_cmd@x 0072  
                 lcd_dwr@x 0072                   lcd_msg@c 0074                ??_lcd_ready 0070  
                 log@coeff 100A   __end_of_I2C_Master_Start 1136              _LCD_POINT$278 0076  
 __end_of_I2C_Master_Write 1149                ??_eval_poly 00D3           ___lwmod@dividend 0072  
         ___lldiv@dividend 0074                  stringcode 1000                 _OSCCONbits 008F  
  __end_of_I2C_Master_Init 12C3    __end_of_I2C_Master_Read 125D    __end_of_I2C_Master_Wait 1162  
  __end_of_I2C_Master_Stop 113F     __Umul8_16@multiplicand 0070           ___lldiv@quotient 0079  
        I2C_Master_Write@d 0070            ___lwmod@divisor 0070            ___lwmod@counter 0075  
                 stringdir 1000                   stringtab 1000               ___aldiv@sign 0021  
               _UART_Write 1149                _SSPCON2bits 0091              ___fladd@signs 004F  
             ___fladd@aexp 0050               ___fladd@bexp 0051       __Umul8_16@multiplier 0078  
        __Umul8_16@product 0074  
