

Microchip MPLAB XC8 Assembler V2.10 build 88905656 
                                                                                               Wed Mar 11 15:48:56 2020

Microchip MPLAB XC8 C Compiler v2.10 (Free license) build 20190730164152 Og1 
     1                           	processor	16F887
     2                           	opt	pw 120
     3                           	opt	flic
     4                           	psect	cinit,global,class=CODE,merge=1,delta=2
     5                           	psect	bssCOMMON,global,class=COMMON,space=1,delta=1
     6                           	psect	cstackCOMMON,global,class=COMMON,space=1,delta=1
     7                           	psect	maintext,global,class=CODE,split=1,delta=2
     8                           	psect	text1,local,class=CODE,merge=1,delta=2
     9                           	psect	text2,local,class=CODE,merge=1,delta=2
    10                           	psect	text3,local,class=CODE,merge=1,delta=2
    11                           	psect	text4,local,class=CODE,merge=1,delta=2
    12                           	psect	text5,local,class=CODE,merge=1,delta=2
    13                           	psect	text6,local,class=CODE,merge=1,delta=2
    14                           	psect	text7,local,class=CODE,merge=1,delta=2
    15                           	psect	intentry,global,class=CODE,delta=2
    16                           	dabs	1,0x7E,2
    17  0000                     
    18                           ; Version 2.10
    19                           ; Generated 31/07/2019 GMT
    20                           ; 
    21                           ; Copyright © 2019, Microchip Technology Inc. and its subsidiaries ("Microchip")
    22                           ; All rights reserved.
    23                           ; 
    24                           ; This software is developed by Microchip Technology Inc. and its subsidiaries ("Microch
      +                          ip").
    25                           ; 
    26                           ; Redistribution and use in source and binary forms, with or without modification, are
    27                           ; permitted provided that the following conditions are met:
    28                           ; 
    29                           ;     1. Redistributions of source code must retain the above copyright notice, this lis
      +                          t of
    30                           ;        conditions and the following disclaimer.
    31                           ; 
    32                           ;     2. Redistributions in binary form must reproduce the above copyright notice, this 
      +                          list
    33                           ;        of conditions and the following disclaimer in the documentation and/or other
    34                           ;        materials provided with the distribution.
    35                           ; 
    36                           ;     3. Microchip's name may not be used to endorse or promote products derived from th
      +                          is
    37                           ;        software without specific prior written permission.
    38                           ; 
    39                           ; THIS SOFTWARE IS PROVIDED BY MICROCHIP "AS IS" AND ANY EXPRESS OR IMPLIED WARRANTIES,
    40                           ; INCLUDING, BUT NOT LIMITED TO, THE IMPLIED WARRANTIES OF MERCHANTABILITY AND FITNESS F
      +                          OR
    41                           ; PURPOSE ARE DISCLAIMED.  IN NO EVENT SHALL MICROCHIP BE LIABLE FOR ANY DIRECT, INDIREC
      +                          T,
    42                           ; INCIDENTAL, SPECIAL, EXEMPLARY, OR CONSEQUENTIAL DAMAGES (INCLUDING BUT NOT LIMITED TO
    43                           ; PROCUREMENT OF SUBSTITUTE GOODS OR SERVICES; LOSS OF USE, DATA OR PROFITS; OR BUSINESS
    44                           ; INTERRUPTION) HOWSOEVER CAUSED AND ON ANY THEORY OF LIABILITY, WHETHER IN CONTRACT, ST
      +                          RICT
    45                           ; LIABILITY, OR TORT (INCLUDING NEGLIGENCE OR OTHERWISE) ARISING IN ANY WAY OUT OF THE U
      +                          SE OF
    46                           ; THIS SOFTWARE, EVEN IF ADVISED OF THE POSSIBILITY OF SUCH DAMAGE.
    47                           ; 
    48                           ; 
    49                           ; Code-generator required, PIC16F887 Definitions
    50                           ; 
    51                           ; SFR Addresses
    52  0000                     	;# 
    53  0001                     	;# 
    54  0002                     	;# 
    55  0003                     	;# 
    56  0004                     	;# 
    57  0005                     	;# 
    58  0006                     	;# 
    59  0007                     	;# 
    60  0008                     	;# 
    61  0009                     	;# 
    62  000A                     	;# 
    63  000B                     	;# 
    64  000C                     	;# 
    65  000D                     	;# 
    66  000E                     	;# 
    67  000E                     	;# 
    68  000F                     	;# 
    69  0010                     	;# 
    70  0011                     	;# 
    71  0012                     	;# 
    72  0013                     	;# 
    73  0014                     	;# 
    74  0015                     	;# 
    75  0015                     	;# 
    76  0016                     	;# 
    77  0017                     	;# 
    78  0018                     	;# 
    79  0019                     	;# 
    80  001A                     	;# 
    81  001B                     	;# 
    82  001B                     	;# 
    83  001C                     	;# 
    84  001D                     	;# 
    85  001E                     	;# 
    86  001F                     	;# 
    87  0081                     	;# 
    88  0085                     	;# 
    89  0086                     	;# 
    90  0087                     	;# 
    91  0088                     	;# 
    92  0089                     	;# 
    93  008C                     	;# 
    94  008D                     	;# 
    95  008E                     	;# 
    96  008F                     	;# 
    97  0090                     	;# 
    98  0091                     	;# 
    99  0092                     	;# 
   100  0093                     	;# 
   101  0093                     	;# 
   102  0093                     	;# 
   103  0094                     	;# 
   104  0095                     	;# 
   105  0096                     	;# 
   106  0097                     	;# 
   107  0098                     	;# 
   108  0099                     	;# 
   109  009A                     	;# 
   110  009B                     	;# 
   111  009C                     	;# 
   112  009D                     	;# 
   113  009E                     	;# 
   114  009F                     	;# 
   115  0105                     	;# 
   116  0107                     	;# 
   117  0108                     	;# 
   118  0109                     	;# 
   119  010C                     	;# 
   120  010C                     	;# 
   121  010D                     	;# 
   122  010E                     	;# 
   123  010F                     	;# 
   124  0185                     	;# 
   125  0187                     	;# 
   126  0188                     	;# 
   127  0189                     	;# 
   128  018C                     	;# 
   129  018D                     	;# 
   130  0000                     	;# 
   131  0001                     	;# 
   132  0002                     	;# 
   133  0003                     	;# 
   134  0004                     	;# 
   135  0005                     	;# 
   136  0006                     	;# 
   137  0007                     	;# 
   138  0008                     	;# 
   139  0009                     	;# 
   140  000A                     	;# 
   141  000B                     	;# 
   142  000C                     	;# 
   143  000D                     	;# 
   144  000E                     	;# 
   145  000E                     	;# 
   146  000F                     	;# 
   147  0010                     	;# 
   148  0011                     	;# 
   149  0012                     	;# 
   150  0013                     	;# 
   151  0014                     	;# 
   152  0015                     	;# 
   153  0015                     	;# 
   154  0016                     	;# 
   155  0017                     	;# 
   156  0018                     	;# 
   157  0019                     	;# 
   158  001A                     	;# 
   159  001B                     	;# 
   160  001B                     	;# 
   161  001C                     	;# 
   162  001D                     	;# 
   163  001E                     	;# 
   164  001F                     	;# 
   165  0081                     	;# 
   166  0085                     	;# 
   167  0086                     	;# 
   168  0087                     	;# 
   169  0088                     	;# 
   170  0089                     	;# 
   171  008C                     	;# 
   172  008D                     	;# 
   173  008E                     	;# 
   174  008F                     	;# 
   175  0090                     	;# 
   176  0091                     	;# 
   177  0092                     	;# 
   178  0093                     	;# 
   179  0093                     	;# 
   180  0093                     	;# 
   181  0094                     	;# 
   182  0095                     	;# 
   183  0096                     	;# 
   184  0097                     	;# 
   185  0098                     	;# 
   186  0099                     	;# 
   187  009A                     	;# 
   188  009B                     	;# 
   189  009C                     	;# 
   190  009D                     	;# 
   191  009E                     	;# 
   192  009F                     	;# 
   193  0105                     	;# 
   194  0107                     	;# 
   195  0108                     	;# 
   196  0109                     	;# 
   197  010C                     	;# 
   198  010C                     	;# 
   199  010D                     	;# 
   200  010E                     	;# 
   201  010F                     	;# 
   202  0185                     	;# 
   203  0187                     	;# 
   204  0188                     	;# 
   205  0189                     	;# 
   206  018C                     	;# 
   207  018D                     	;# 
   208  0000                     	;# 
   209  0001                     	;# 
   210  0002                     	;# 
   211  0003                     	;# 
   212  0004                     	;# 
   213  0005                     	;# 
   214  0006                     	;# 
   215  0007                     	;# 
   216  0008                     	;# 
   217  0009                     	;# 
   218  000A                     	;# 
   219  000B                     	;# 
   220  000C                     	;# 
   221  000D                     	;# 
   222  000E                     	;# 
   223  000E                     	;# 
   224  000F                     	;# 
   225  0010                     	;# 
   226  0011                     	;# 
   227  0012                     	;# 
   228  0013                     	;# 
   229  0014                     	;# 
   230  0015                     	;# 
   231  0015                     	;# 
   232  0016                     	;# 
   233  0017                     	;# 
   234  0018                     	;# 
   235  0019                     	;# 
   236  001A                     	;# 
   237  001B                     	;# 
   238  001B                     	;# 
   239  001C                     	;# 
   240  001D                     	;# 
   241  001E                     	;# 
   242  001F                     	;# 
   243  0081                     	;# 
   244  0085                     	;# 
   245  0086                     	;# 
   246  0087                     	;# 
   247  0088                     	;# 
   248  0089                     	;# 
   249  008C                     	;# 
   250  008D                     	;# 
   251  008E                     	;# 
   252  008F                     	;# 
   253  0090                     	;# 
   254  0091                     	;# 
   255  0092                     	;# 
   256  0093                     	;# 
   257  0093                     	;# 
   258  0093                     	;# 
   259  0094                     	;# 
   260  0095                     	;# 
   261  0096                     	;# 
   262  0097                     	;# 
   263  0098                     	;# 
   264  0099                     	;# 
   265  009A                     	;# 
   266  009B                     	;# 
   267  009C                     	;# 
   268  009D                     	;# 
   269  009E                     	;# 
   270  009F                     	;# 
   271  0105                     	;# 
   272  0107                     	;# 
   273  0108                     	;# 
   274  0109                     	;# 
   275  010C                     	;# 
   276  010C                     	;# 
   277  010D                     	;# 
   278  010E                     	;# 
   279  010F                     	;# 
   280  0185                     	;# 
   281  0187                     	;# 
   282  0188                     	;# 
   283  0189                     	;# 
   284  018C                     	;# 
   285  018D                     	;# 
   286  0000                     	;# 
   287  0001                     	;# 
   288  0002                     	;# 
   289  0003                     	;# 
   290  0004                     	;# 
   291  0005                     	;# 
   292  0006                     	;# 
   293  0007                     	;# 
   294  0008                     	;# 
   295  0009                     	;# 
   296  000A                     	;# 
   297  000B                     	;# 
   298  000C                     	;# 
   299  000D                     	;# 
   300  000E                     	;# 
   301  000E                     	;# 
   302  000F                     	;# 
   303  0010                     	;# 
   304  0011                     	;# 
   305  0012                     	;# 
   306  0013                     	;# 
   307  0014                     	;# 
   308  0015                     	;# 
   309  0015                     	;# 
   310  0016                     	;# 
   311  0017                     	;# 
   312  0018                     	;# 
   313  0019                     	;# 
   314  001A                     	;# 
   315  001B                     	;# 
   316  001B                     	;# 
   317  001C                     	;# 
   318  001D                     	;# 
   319  001E                     	;# 
   320  001F                     	;# 
   321  0081                     	;# 
   322  0085                     	;# 
   323  0086                     	;# 
   324  0087                     	;# 
   325  0088                     	;# 
   326  0089                     	;# 
   327  008C                     	;# 
   328  008D                     	;# 
   329  008E                     	;# 
   330  008F                     	;# 
   331  0090                     	;# 
   332  0091                     	;# 
   333  0092                     	;# 
   334  0093                     	;# 
   335  0093                     	;# 
   336  0093                     	;# 
   337  0094                     	;# 
   338  0095                     	;# 
   339  0096                     	;# 
   340  0097                     	;# 
   341  0098                     	;# 
   342  0099                     	;# 
   343  009A                     	;# 
   344  009B                     	;# 
   345  009C                     	;# 
   346  009D                     	;# 
   347  009E                     	;# 
   348  009F                     	;# 
   349  0105                     	;# 
   350  0107                     	;# 
   351  0108                     	;# 
   352  0109                     	;# 
   353  010C                     	;# 
   354  010C                     	;# 
   355  010D                     	;# 
   356  010E                     	;# 
   357  010F                     	;# 
   358  0185                     	;# 
   359  0187                     	;# 
   360  0188                     	;# 
   361  0189                     	;# 
   362  018C                     	;# 
   363  018D                     	;# 
   364  0014                     _SSPCON	set	20
   365  0012                     _T2CONbits	set	18
   366  0015                     _CCPR1L	set	21
   367  0017                     _CCP1CONbits	set	23
   368  0008                     _PORTDbits	set	8
   369  0008                     _PORTD	set	8
   370  0007                     _PORTC	set	7
   371  0006                     _PORTB	set	6
   372  0005                     _PORTA	set	5
   373  0013                     _SSPBUF	set	19
   374  0014                     _SSPCONbits	set	20
   375  000C                     _PIR1bits	set	12
   376  0063                     _SSPIF	set	99
   377  005E                     _PEIE	set	94
   378  005F                     _GIE	set	95
   379  0061                     _TMR2IF	set	97
   380  008F                     _OSCCONbits	set	143
   381  0091                     _SSPCON2bits	set	145
   382  0094                     _SSPSTAT	set	148
   383  0093                     _SSPADD	set	147
   384  0091                     _SSPCON2	set	145
   385  0092                     _PR2	set	146
   386  0087                     _TRISCbits	set	135
   387  0088                     _TRISD	set	136
   388  0087                     _TRISC	set	135
   389  0086                     _TRISB	set	134
   390  0085                     _TRISA	set	133
   391  0094                     _SSPSTATbits	set	148
   392  0463                     _SSPIE	set	1123
   393  043C                     _TRISC4	set	1084
   394  043B                     _TRISC3	set	1083
   395  04A0                     _BF	set	1184
   396  0189                     _ANSELH	set	393
   397  0188                     _ANSEL	set	392
   398                           
   399                           ; #config settings
   400  0000                     
   401                           	psect	cinit
   402  000F                     start_initialization:	
   403  000F                     __initialization:	
   404                           
   405                           ; Clear objects allocated to COMMON
   406  000F  01F6               	clrf	__pbssCOMMON& (0+127)
   407  0010  01F7               	clrf	(__pbssCOMMON+1)& (0+127)
   408  0011  01F8               	clrf	(__pbssCOMMON+2)& (0+127)
   409  0012  01F9               	clrf	(__pbssCOMMON+3)& (0+127)
   410  0013  01FA               	clrf	(__pbssCOMMON+4)& (0+127)
   411  0014                     end_of_initialization:	
   412                           ;End of C runtime variable initialization code
   413                           
   414  0014                     __end_of__initialization:	
   415  0014  0183               	clrf	3
   416  0015  120A  118A  28D7   	ljmp	_main	;jump to C main() function
   417                           
   418                           	psect	bssCOMMON
   419  0076                     __pbssCOMMON:	
   420  0076                     _move_servo:	
   421  0076                     	ds	2
   422  0078                     _sensor_signal:	
   423  0078                     	ds	1
   424  0079                     _estado:	
   425  0079                     	ds	1
   426  007A                     _z:	
   427  007A                     	ds	1
   428                           
   429                           	psect	cstackCOMMON
   430  0070                     __pcstackCOMMON:	
   431  0070                     ?_initOsc:	
   432  0070                     ?_init:	
   433                           ; 1 bytes @ 0x0
   434                           
   435  0070                     ?_PWM_setup:	
   436                           ; 1 bytes @ 0x0
   437                           
   438  0070                     ?_zero_deg:	
   439                           ; 1 bytes @ 0x0
   440                           
   441  0070                     ?_final_deg:	
   442                           ; 1 bytes @ 0x0
   443                           
   444  0070                     ?_I2C_Slave_Init:	
   445                           ; 1 bytes @ 0x0
   446                           
   447  0070                     ?_isr:	
   448                           ; 1 bytes @ 0x0
   449                           
   450  0070                     ??_isr:	
   451                           ; 1 bytes @ 0x0
   452                           
   453  0070                     ?_main:	
   454                           ; 1 bytes @ 0x0
   455                           
   456                           
   457                           ; 1 bytes @ 0x0
   458  0070                     	ds	3
   459  0073                     ??_initOsc:	
   460  0073                     ??_PWM_setup:	
   461                           ; 1 bytes @ 0x3
   462                           
   463  0073                     ??_zero_deg:	
   464                           ; 1 bytes @ 0x3
   465                           
   466  0073                     ??_final_deg:	
   467                           ; 1 bytes @ 0x3
   468                           
   469  0073                     ??_I2C_Slave_Init:	
   470                           ; 1 bytes @ 0x3
   471                           
   472  0073                     I2C_Slave_Init@address:	
   473                           ; 1 bytes @ 0x3
   474                           
   475                           
   476                           ; 1 bytes @ 0x3
   477  0073                     	ds	1
   478  0074                     ??_init:	
   479                           
   480                           ; 1 bytes @ 0x4
   481  0074                     	ds	1
   482  0075                     initOsc@frec:	
   483                           
   484                           ; 1 bytes @ 0x5
   485  0075                     	ds	1
   486  0076                     ??_main:	
   487                           
   488                           	psect	maintext
   489  00D7                     __pmaintext:	
   490                           ; 1 bytes @ 0x6
   491 ;;
   492 ;;Main: autosize = 0, tempsize = 0, incstack = 0, save=0
   493 ;;
   494 ;; *************** function _main *****************
   495 ;; Defined at:
   496 ;;		line 92 in file "Sensor_Interferencia.c"
   497 ;; Parameters:    Size  Location     Type
   498 ;;		None
   499 ;; Auto vars:     Size  Location     Type
   500 ;;		None
   501 ;; Return value:  Size  Location     Type
   502 ;;                  1    wreg      void 
   503 ;; Registers used:
   504 ;;		wreg, fsr0l, fsr0h, status,2, status,0, pclath, cstack
   505 ;; Tracked objects:
   506 ;;		On entry : B00/0
   507 ;;		On exit  : 0/0
   508 ;;		Unchanged: 0/0
   509 ;; Data sizes:     COMMON   BANK0   BANK1   BANK3   BANK2
   510 ;;      Params:         0       0       0       0       0
   511 ;;      Locals:         0       0       0       0       0
   512 ;;      Temps:          0       0       0       0       0
   513 ;;      Totals:         0       0       0       0       0
   514 ;;Total ram usage:        0 bytes
   515 ;; Hardware stack levels required when called:    3
   516 ;; This function calls:
   517 ;;		_PWM_setup
   518 ;;		_final_deg
   519 ;;		_init
   520 ;;		_initOsc
   521 ;;		_zero_deg
   522 ;; This function is called by:
   523 ;;		Startup code after reset
   524 ;; This function uses a non-reentrant model
   525 ;;
   526                           
   527                           
   528                           ;psect for function _main
   529  00D7                     _main:	
   530  00D7                     l870:	
   531                           ;incstack = 0
   532                           ; Regs used in _main: [wreg-fsr0h+status,2+status,0+pclath+cstack]
   533                           
   534                           
   535                           ;Sensor_Interferencia.c: 93:     initOsc(3);
   536  00D7  3003               	movlw	3
   537  00D8  120A  118A  207B  120A  118A  	fcall	_initOsc
   538  00DD                     l872:	
   539                           
   540                           ;Sensor_Interferencia.c: 94:     init();
   541  00DD  120A  118A  213F  120A  118A  	fcall	_init
   542  00E2                     l874:	
   543                           
   544                           ;Sensor_Interferencia.c: 95:     PWM_setup();
   545  00E2  120A  118A  2107  120A  118A  	fcall	_PWM_setup
   546  00E7                     l876:	
   547                           
   548                           ;Sensor_Interferencia.c: 97:     PORTA = 0x00;
   549  00E7  1283               	bcf	3,5	;RP0=0, select bank0
   550  00E8  1303               	bcf	3,6	;RP1=0, select bank0
   551  00E9  0185               	clrf	5	;volatile
   552  00EA                     l878:	
   553                           
   554                           ;Sensor_Interferencia.c: 98:     PORTB = 0x00;
   555  00EA  0186               	clrf	6	;volatile
   556  00EB                     l880:	
   557                           
   558                           ;Sensor_Interferencia.c: 99:     PORTC = 0x00;
   559  00EB  0187               	clrf	7	;volatile
   560  00EC                     l882:	
   561                           
   562                           ;Sensor_Interferencia.c: 100:     PORTD = 0x00;
   563  00EC  0188               	clrf	8	;volatile
   564  00ED                     l884:	
   565                           
   566                           ;Sensor_Interferencia.c: 102:         estado = PORTDbits.RD0;
   567  00ED  3000               	movlw	0
   568  00EE  1283               	bcf	3,5	;RP0=0, select bank0
   569  00EF  1303               	bcf	3,6	;RP1=0, select bank0
   570  00F0  1808               	btfsc	8,0	;volatile
   571  00F1  3001               	movlw	1
   572  00F2  00F9               	movwf	_estado
   573  00F3                     l886:	
   574                           
   575                           ;Sensor_Interferencia.c: 104:         if (estado == 1) {
   576  00F3  0379               	decf	_estado,w
   577  00F4  1D03               	btfss	3,2
   578  00F5  28F7               	goto	u131
   579  00F6  28F8               	goto	u130
   580  00F7                     u131:	
   581  00F7  28FE               	goto	l890
   582  00F8                     u130:	
   583  00F8                     l888:	
   584                           
   585                           ;Sensor_Interferencia.c: 105:             zero_deg();
   586  00F8  120A  118A  2151  120A  118A  	fcall	_zero_deg
   587                           
   588                           ;Sensor_Interferencia.c: 106:         } else {
   589  00FD  28ED               	goto	l884
   590  00FE                     l890:	
   591                           
   592                           ;Sensor_Interferencia.c: 107:             final_deg();
   593  00FE  120A  118A  2158  120A  118A  	fcall	_final_deg
   594  0103  28ED               	goto	l884
   595  0104  120A  118A  280C   	ljmp	start
   596  0107                     __end_of_main:	
   597                           
   598                           	psect	text1
   599  0151                     __ptext1:	
   600 ;; *************** function _zero_deg *****************
   601 ;; Defined at:
   602 ;;		line 148 in file "Sensor_Interferencia.c"
   603 ;; Parameters:    Size  Location     Type
   604 ;;		None
   605 ;; Auto vars:     Size  Location     Type
   606 ;;		None
   607 ;; Return value:  Size  Location     Type
   608 ;;                  1    wreg      void 
   609 ;; Registers used:
   610 ;;		wreg, status,2, status,0
   611 ;; Tracked objects:
   612 ;;		On entry : 0/0
   613 ;;		On exit  : 0/0
   614 ;;		Unchanged: 0/0
   615 ;; Data sizes:     COMMON   BANK0   BANK1   BANK3   BANK2
   616 ;;      Params:         0       0       0       0       0
   617 ;;      Locals:         0       0       0       0       0
   618 ;;      Temps:          0       0       0       0       0
   619 ;;      Totals:         0       0       0       0       0
   620 ;;Total ram usage:        0 bytes
   621 ;; Hardware stack levels used:    1
   622 ;; Hardware stack levels required when called:    1
   623 ;; This function calls:
   624 ;;		Nothing
   625 ;; This function is called by:
   626 ;;		_main
   627 ;; This function uses a non-reentrant model
   628 ;;
   629                           
   630                           
   631                           ;psect for function _zero_deg
   632  0151                     _zero_deg:	
   633  0151                     l820:	
   634                           ;incstack = 0
   635                           ; Regs used in _zero_deg: [wreg+status,2+status,0]
   636                           
   637                           
   638                           ;Sensor_Interferencia.c: 149:     CCP1CONbits.DC1B = 0b00;
   639  0151  30CF               	movlw	-49
   640  0152  1283               	bcf	3,5	;RP0=0, select bank0
   641  0153  1303               	bcf	3,6	;RP1=0, select bank0
   642  0154  0597               	andwf	23,f	;volatile
   643  0155                     l822:	
   644                           
   645                           ;Sensor_Interferencia.c: 150:     CCPR1L = 3;
   646  0155  3003               	movlw	3
   647  0156  0095               	movwf	21	;volatile
   648  0157                     l106:	
   649  0157  0008               	return
   650  0158                     __end_of_zero_deg:	
   651                           
   652                           	psect	text2
   653  007B                     __ptext2:	
   654 ;; *************** function _initOsc *****************
   655 ;; Defined at:
   656 ;;		line 8 in file "Oscilador.c"
   657 ;; Parameters:    Size  Location     Type
   658 ;;  frec            1    wreg     unsigned char 
   659 ;; Auto vars:     Size  Location     Type
   660 ;;  frec            1    5[COMMON] unsigned char 
   661 ;; Return value:  Size  Location     Type
   662 ;;                  1    wreg      void 
   663 ;; Registers used:
   664 ;;		wreg, fsr0l, fsr0h, status,2, status,0
   665 ;; Tracked objects:
   666 ;;		On entry : 0/0
   667 ;;		On exit  : 0/0
   668 ;;		Unchanged: 0/0
   669 ;; Data sizes:     COMMON   BANK0   BANK1   BANK3   BANK2
   670 ;;      Params:         0       0       0       0       0
   671 ;;      Locals:         1       0       0       0       0
   672 ;;      Temps:          2       0       0       0       0
   673 ;;      Totals:         3       0       0       0       0
   674 ;;Total ram usage:        3 bytes
   675 ;; Hardware stack levels used:    1
   676 ;; Hardware stack levels required when called:    1
   677 ;; This function calls:
   678 ;;		Nothing
   679 ;; This function is called by:
   680 ;;		_main
   681 ;; This function uses a non-reentrant model
   682 ;;
   683                           
   684                           
   685                           ;psect for function _initOsc
   686  007B                     _initOsc:	
   687                           
   688                           ;incstack = 0
   689                           ; Regs used in _initOsc: [wreg-fsr0h+status,2+status,0]
   690                           ;initOsc@frec stored from wreg
   691  007B  00F5               	movwf	initOsc@frec
   692  007C                     l784:	
   693                           
   694                           ;Oscilador.c: 9:     switch(frec){
   695  007C  28B3               	goto	l788
   696  007D                     l168:	
   697                           ;Oscilador.c: 10:         case 0:
   698                           
   699                           
   700                           ;Oscilador.c: 11:             OSCCONbits.IRCF0 = 0;
   701  007D  1683               	bsf	3,5	;RP0=1, select bank1
   702  007E  1303               	bcf	3,6	;RP1=0, select bank1
   703  007F  120F               	bcf	15,4	;volatile
   704                           
   705                           ;Oscilador.c: 12:             OSCCONbits.IRCF1 = 0;
   706  0080  128F               	bcf	15,5	;volatile
   707                           
   708                           ;Oscilador.c: 13:             OSCCONbits.IRCF2 = 0;
   709  0081  130F               	bcf	15,6	;volatile
   710                           
   711                           ;Oscilador.c: 14:             break;
   712  0082  28D5               	goto	l169
   713  0083                     l170:	
   714                           ;Oscilador.c: 15:         case 1:
   715                           
   716                           
   717                           ;Oscilador.c: 16:             OSCCONbits.IRCF0 = 1;
   718  0083  1683               	bsf	3,5	;RP0=1, select bank1
   719  0084  1303               	bcf	3,6	;RP1=0, select bank1
   720  0085  160F               	bsf	15,4	;volatile
   721                           
   722                           ;Oscilador.c: 17:             OSCCONbits.IRCF1 = 0;
   723  0086  128F               	bcf	15,5	;volatile
   724                           
   725                           ;Oscilador.c: 18:             OSCCONbits.IRCF2 = 0;
   726  0087  130F               	bcf	15,6	;volatile
   727                           
   728                           ;Oscilador.c: 19:             break;
   729  0088  28D5               	goto	l169
   730  0089                     l171:	
   731                           ;Oscilador.c: 20:         case 2:
   732                           
   733                           
   734                           ;Oscilador.c: 21:             OSCCONbits.IRCF0 = 0;
   735  0089  1683               	bsf	3,5	;RP0=1, select bank1
   736  008A  1303               	bcf	3,6	;RP1=0, select bank1
   737  008B  120F               	bcf	15,4	;volatile
   738                           
   739                           ;Oscilador.c: 22:             OSCCONbits.IRCF1 = 1;
   740  008C  168F               	bsf	15,5	;volatile
   741                           
   742                           ;Oscilador.c: 23:             OSCCONbits.IRCF2 = 0;
   743  008D  130F               	bcf	15,6	;volatile
   744                           
   745                           ;Oscilador.c: 24:             break;
   746  008E  28D5               	goto	l169
   747  008F                     l172:	
   748                           ;Oscilador.c: 25:         case 3:
   749                           
   750                           
   751                           ;Oscilador.c: 26:             OSCCONbits.IRCF0 = 1;
   752  008F  1683               	bsf	3,5	;RP0=1, select bank1
   753  0090  1303               	bcf	3,6	;RP1=0, select bank1
   754  0091  160F               	bsf	15,4	;volatile
   755                           
   756                           ;Oscilador.c: 27:             OSCCONbits.IRCF1 = 1;
   757  0092  168F               	bsf	15,5	;volatile
   758                           
   759                           ;Oscilador.c: 28:             OSCCONbits.IRCF2 = 0;
   760  0093  130F               	bcf	15,6	;volatile
   761                           
   762                           ;Oscilador.c: 29:             break;
   763  0094  28D5               	goto	l169
   764  0095                     l173:	
   765                           ;Oscilador.c: 30:         case 4:
   766                           
   767                           
   768                           ;Oscilador.c: 31:             OSCCONbits.IRCF0 = 0;
   769  0095  1683               	bsf	3,5	;RP0=1, select bank1
   770  0096  1303               	bcf	3,6	;RP1=0, select bank1
   771  0097  120F               	bcf	15,4	;volatile
   772                           
   773                           ;Oscilador.c: 32:             OSCCONbits.IRCF1 = 0;
   774  0098  128F               	bcf	15,5	;volatile
   775                           
   776                           ;Oscilador.c: 33:             OSCCONbits.IRCF2 = 1;
   777  0099  170F               	bsf	15,6	;volatile
   778                           
   779                           ;Oscilador.c: 34:             break;
   780  009A  28D5               	goto	l169
   781  009B                     l174:	
   782                           ;Oscilador.c: 35:         case 5:
   783                           
   784                           
   785                           ;Oscilador.c: 36:             OSCCONbits.IRCF0 = 1;
   786  009B  1683               	bsf	3,5	;RP0=1, select bank1
   787  009C  1303               	bcf	3,6	;RP1=0, select bank1
   788  009D  160F               	bsf	15,4	;volatile
   789                           
   790                           ;Oscilador.c: 37:             OSCCONbits.IRCF1 = 0;
   791  009E  128F               	bcf	15,5	;volatile
   792                           
   793                           ;Oscilador.c: 38:             OSCCONbits.IRCF2 = 1;
   794  009F  170F               	bsf	15,6	;volatile
   795                           
   796                           ;Oscilador.c: 39:             break;
   797  00A0  28D5               	goto	l169
   798  00A1                     l175:	
   799                           ;Oscilador.c: 40:         case 6:
   800                           
   801                           
   802                           ;Oscilador.c: 41:             OSCCONbits.IRCF0 = 0;
   803  00A1  1683               	bsf	3,5	;RP0=1, select bank1
   804  00A2  1303               	bcf	3,6	;RP1=0, select bank1
   805  00A3  120F               	bcf	15,4	;volatile
   806                           
   807                           ;Oscilador.c: 42:             OSCCONbits.IRCF1 = 1;
   808  00A4  168F               	bsf	15,5	;volatile
   809                           
   810                           ;Oscilador.c: 43:             OSCCONbits.IRCF2 = 1;
   811  00A5  170F               	bsf	15,6	;volatile
   812                           
   813                           ;Oscilador.c: 44:             break;
   814  00A6  28D5               	goto	l169
   815  00A7                     l176:	
   816                           ;Oscilador.c: 45:         case 7:
   817                           
   818                           
   819                           ;Oscilador.c: 46:             OSCCONbits.IRCF0 = 1;
   820  00A7  1683               	bsf	3,5	;RP0=1, select bank1
   821  00A8  1303               	bcf	3,6	;RP1=0, select bank1
   822  00A9  160F               	bsf	15,4	;volatile
   823                           
   824                           ;Oscilador.c: 47:             OSCCONbits.IRCF1 = 1;
   825  00AA  168F               	bsf	15,5	;volatile
   826                           
   827                           ;Oscilador.c: 48:             OSCCONbits.IRCF2 = 1;
   828  00AB  170F               	bsf	15,6	;volatile
   829                           
   830                           ;Oscilador.c: 49:             break;
   831  00AC  28D5               	goto	l169
   832  00AD                     l177:	
   833                           ;Oscilador.c: 50:         default:
   834                           
   835                           
   836                           ;Oscilador.c: 51:             OSCCONbits.IRCF0 = 0;
   837  00AD  1683               	bsf	3,5	;RP0=1, select bank1
   838  00AE  1303               	bcf	3,6	;RP1=0, select bank1
   839  00AF  120F               	bcf	15,4	;volatile
   840                           
   841                           ;Oscilador.c: 52:             OSCCONbits.IRCF1 = 1;
   842  00B0  168F               	bsf	15,5	;volatile
   843                           
   844                           ;Oscilador.c: 53:             OSCCONbits.IRCF2 = 1;
   845  00B1  170F               	bsf	15,6	;volatile
   846                           
   847                           ;Oscilador.c: 54:             break;
   848  00B2  28D5               	goto	l169
   849  00B3                     l788:	
   850  00B3  0875               	movf	initOsc@frec,w
   851  00B4  00F3               	movwf	??_initOsc
   852  00B5  01F4               	clrf	??_initOsc+1
   853                           
   854                           ; Switch on 2 bytes has been partitioned into a top level switch of size 1, and 1 sub-sw
      +                          itches
   855                           ; Switch size 1, requested type "simple"
   856                           ; Number of cases is 1, Range of values is 0 to 0
   857                           ; switch strategies available:
   858                           ; Name         Instructions Cycles
   859                           ; simple_byte            4     3 (average)
   860                           ; direct_byte           11     8 (fixed)
   861                           ; jumptable            260     6 (fixed)
   862                           ;	Chosen strategy is simple_byte
   863  00B6  0874               	movf	??_initOsc+1,w
   864  00B7  3A00               	xorlw	0	; case 0
   865  00B8  1903               	skipnz
   866  00B9  28BB               	goto	l954
   867  00BA  28AD               	goto	l177
   868  00BB                     l954:	
   869                           
   870                           ; Switch size 1, requested type "simple"
   871                           ; Number of cases is 8, Range of values is 0 to 7
   872                           ; switch strategies available:
   873                           ; Name         Instructions Cycles
   874                           ; simple_byte           25    13 (average)
   875                           ; direct_byte           32     8 (fixed)
   876                           ; jumptable            260     6 (fixed)
   877                           ;	Chosen strategy is simple_byte
   878  00BB  0873               	movf	??_initOsc,w
   879  00BC  3A00               	xorlw	0	; case 0
   880  00BD  1903               	skipnz
   881  00BE  287D               	goto	l168
   882  00BF  3A01               	xorlw	1	; case 1
   883  00C0  1903               	skipnz
   884  00C1  2883               	goto	l170
   885  00C2  3A03               	xorlw	3	; case 2
   886  00C3  1903               	skipnz
   887  00C4  2889               	goto	l171
   888  00C5  3A01               	xorlw	1	; case 3
   889  00C6  1903               	skipnz
   890  00C7  288F               	goto	l172
   891  00C8  3A07               	xorlw	7	; case 4
   892  00C9  1903               	skipnz
   893  00CA  2895               	goto	l173
   894  00CB  3A01               	xorlw	1	; case 5
   895  00CC  1903               	skipnz
   896  00CD  289B               	goto	l174
   897  00CE  3A03               	xorlw	3	; case 6
   898  00CF  1903               	skipnz
   899  00D0  28A1               	goto	l175
   900  00D1  3A01               	xorlw	1	; case 7
   901  00D2  1903               	skipnz
   902  00D3  28A7               	goto	l176
   903  00D4  28AD               	goto	l177
   904  00D5                     l169:	
   905                           
   906                           ;Oscilador.c: 57:     OSCCONbits.SCS = 1;
   907  00D5  140F               	bsf	15,0	;volatile
   908  00D6                     l178:	
   909  00D6  0008               	return
   910  00D7                     __end_of_initOsc:	
   911                           
   912                           	psect	text3
   913  013F                     __ptext3:	
   914 ;; *************** function _init *****************
   915 ;; Defined at:
   916 ;;		line 115 in file "Sensor_Interferencia.c"
   917 ;; Parameters:    Size  Location     Type
   918 ;;		None
   919 ;; Auto vars:     Size  Location     Type
   920 ;;		None
   921 ;; Return value:  Size  Location     Type
   922 ;;                  1    wreg      void 
   923 ;; Registers used:
   924 ;;		wreg, status,2, status,0, pclath, cstack
   925 ;; Tracked objects:
   926 ;;		On entry : 0/0
   927 ;;		On exit  : 0/0
   928 ;;		Unchanged: 0/0
   929 ;; Data sizes:     COMMON   BANK0   BANK1   BANK3   BANK2
   930 ;;      Params:         0       0       0       0       0
   931 ;;      Locals:         0       0       0       0       0
   932 ;;      Temps:          0       0       0       0       0
   933 ;;      Totals:         0       0       0       0       0
   934 ;;Total ram usage:        0 bytes
   935 ;; Hardware stack levels used:    1
   936 ;; Hardware stack levels required when called:    2
   937 ;; This function calls:
   938 ;;		_I2C_Slave_Init
   939 ;; This function is called by:
   940 ;;		_main
   941 ;; This function uses a non-reentrant model
   942 ;;
   943                           
   944                           
   945                           ;psect for function _init
   946  013F                     _init:	
   947  013F                     l794:	
   948                           ;incstack = 0
   949                           ; Regs used in _init: [wreg+status,2+status,0+pclath+cstack]
   950                           
   951                           
   952                           ;Sensor_Interferencia.c: 116:     TRISA = 0;
   953  013F  1683               	bsf	3,5	;RP0=1, select bank1
   954  0140  1303               	bcf	3,6	;RP1=0, select bank1
   955  0141  0185               	clrf	5	;volatile
   956                           
   957                           ;Sensor_Interferencia.c: 117:     TRISB = 0;
   958  0142  0186               	clrf	6	;volatile
   959                           
   960                           ;Sensor_Interferencia.c: 118:     TRISC = 0;
   961  0143  0187               	clrf	7	;volatile
   962  0144                     l796:	
   963                           
   964                           ;Sensor_Interferencia.c: 119:     TRISD = 0b00000001;
   965  0144  3001               	movlw	1
   966  0145  0088               	movwf	8	;volatile
   967  0146                     l798:	
   968                           
   969                           ;Sensor_Interferencia.c: 120:     ANSEL = 0;
   970  0146  1683               	bsf	3,5	;RP0=1, select bank3
   971  0147  1703               	bsf	3,6	;RP1=1, select bank3
   972  0148  0188               	clrf	8	;volatile
   973  0149                     l800:	
   974                           
   975                           ;Sensor_Interferencia.c: 121:     ANSELH = 0;
   976  0149  0189               	clrf	9	;volatile
   977  014A                     l802:	
   978                           
   979                           ;Sensor_Interferencia.c: 122:     I2C_Slave_Init(0x30);
   980  014A  3030               	movlw	48
   981  014B  120A  118A  2125  120A  118A  	fcall	_I2C_Slave_Init
   982  0150                     l97:	
   983  0150  0008               	return
   984  0151                     __end_of_init:	
   985                           
   986                           	psect	text4
   987  0125                     __ptext4:	
   988 ;; *************** function _I2C_Slave_Init *****************
   989 ;; Defined at:
   990 ;;		line 85 in file "I2C.c"
   991 ;; Parameters:    Size  Location     Type
   992 ;;  address         1    wreg     unsigned char 
   993 ;; Auto vars:     Size  Location     Type
   994 ;;  address         1    3[COMMON] unsigned char 
   995 ;; Return value:  Size  Location     Type
   996 ;;                  1    wreg      void 
   997 ;; Registers used:
   998 ;;		wreg
   999 ;; Tracked objects:
  1000 ;;		On entry : 0/0
  1001 ;;		On exit  : 0/0
  1002 ;;		Unchanged: 0/0
  1003 ;; Data sizes:     COMMON   BANK0   BANK1   BANK3   BANK2
  1004 ;;      Params:         0       0       0       0       0
  1005 ;;      Locals:         1       0       0       0       0
  1006 ;;      Temps:          0       0       0       0       0
  1007 ;;      Totals:         1       0       0       0       0
  1008 ;;Total ram usage:        1 bytes
  1009 ;; Hardware stack levels used:    1
  1010 ;; Hardware stack levels required when called:    1
  1011 ;; This function calls:
  1012 ;;		Nothing
  1013 ;; This function is called by:
  1014 ;;		_init
  1015 ;; This function uses a non-reentrant model
  1016 ;;
  1017                           
  1018                           
  1019                           ;psect for function _I2C_Slave_Init
  1020  0125                     _I2C_Slave_Init:	
  1021                           
  1022                           ;incstack = 0
  1023                           ; Regs used in _I2C_Slave_Init: [wreg]
  1024                           ;I2C_Slave_Init@address stored from wreg
  1025  0125  00F3               	movwf	I2C_Slave_Init@address
  1026  0126                     l770:	
  1027                           
  1028                           ;I2C.c: 85: void I2C_Slave_Init(uint8_t address);I2C.c: 86: {;I2C.c: 87:     SSPADD = ad
      +                          dress;
  1029  0126  0873               	movf	I2C_Slave_Init@address,w
  1030  0127  1683               	bsf	3,5	;RP0=1, select bank1
  1031  0128  1303               	bcf	3,6	;RP1=0, select bank1
  1032  0129  0093               	movwf	19	;volatile
  1033                           
  1034                           ;I2C.c: 88:     SSPCON = 0x36;
  1035  012A  3036               	movlw	54
  1036  012B  1283               	bcf	3,5	;RP0=0, select bank0
  1037  012C  1303               	bcf	3,6	;RP1=0, select bank0
  1038  012D  0094               	movwf	20	;volatile
  1039                           
  1040                           ;I2C.c: 89:     SSPSTAT = 0x80;
  1041  012E  3080               	movlw	128
  1042  012F  1683               	bsf	3,5	;RP0=1, select bank1
  1043  0130  1303               	bcf	3,6	;RP1=0, select bank1
  1044  0131  0094               	movwf	20	;volatile
  1045                           
  1046                           ;I2C.c: 90:     SSPCON2 = 0x01;
  1047  0132  3001               	movlw	1
  1048  0133  0091               	movwf	17	;volatile
  1049  0134                     l772:	
  1050                           
  1051                           ;I2C.c: 91:     TRISC3 = 1;
  1052  0134  1587               	bsf	7,3	;volatile
  1053  0135                     l774:	
  1054                           
  1055                           ;I2C.c: 92:     TRISC4 = 1;
  1056  0135  1607               	bsf	7,4	;volatile
  1057  0136                     l776:	
  1058                           
  1059                           ;I2C.c: 93:     GIE = 1;
  1060  0136  178B               	bsf	11,7	;volatile
  1061  0137                     l778:	
  1062                           
  1063                           ;I2C.c: 94:     PEIE = 1;
  1064  0137  170B               	bsf	11,6	;volatile
  1065  0138                     l780:	
  1066                           
  1067                           ;I2C.c: 95:     SSPIF = 0;
  1068  0138  1283               	bcf	3,5	;RP0=0, select bank0
  1069  0139  1303               	bcf	3,6	;RP1=0, select bank0
  1070  013A  118C               	bcf	12,3	;volatile
  1071  013B                     l782:	
  1072                           
  1073                           ;I2C.c: 96:     SSPIE = 1;
  1074  013B  1683               	bsf	3,5	;RP0=1, select bank1
  1075  013C  1303               	bcf	3,6	;RP1=0, select bank1
  1076  013D  158C               	bsf	12,3	;volatile
  1077  013E                     l162:	
  1078  013E  0008               	return
  1079  013F                     __end_of_I2C_Slave_Init:	
  1080                           
  1081                           	psect	text5
  1082  0158                     __ptext5:	
  1083 ;; *************** function _final_deg *****************
  1084 ;; Defined at:
  1085 ;;		line 156 in file "Sensor_Interferencia.c"
  1086 ;; Parameters:    Size  Location     Type
  1087 ;;		None
  1088 ;; Auto vars:     Size  Location     Type
  1089 ;;		None
  1090 ;; Return value:  Size  Location     Type
  1091 ;;                  1    wreg      void 
  1092 ;; Registers used:
  1093 ;;		wreg, status,2, status,0
  1094 ;; Tracked objects:
  1095 ;;		On entry : 0/0
  1096 ;;		On exit  : 0/0
  1097 ;;		Unchanged: 0/0
  1098 ;; Data sizes:     COMMON   BANK0   BANK1   BANK3   BANK2
  1099 ;;      Params:         0       0       0       0       0
  1100 ;;      Locals:         0       0       0       0       0
  1101 ;;      Temps:          0       0       0       0       0
  1102 ;;      Totals:         0       0       0       0       0
  1103 ;;Total ram usage:        0 bytes
  1104 ;; Hardware stack levels used:    1
  1105 ;; Hardware stack levels required when called:    1
  1106 ;; This function calls:
  1107 ;;		Nothing
  1108 ;; This function is called by:
  1109 ;;		_main
  1110 ;; This function uses a non-reentrant model
  1111 ;;
  1112                           
  1113                           
  1114                           ;psect for function _final_deg
  1115  0158                     _final_deg:	
  1116  0158                     l826:	
  1117                           ;incstack = 0
  1118                           ; Regs used in _final_deg: [wreg+status,2+status,0]
  1119                           
  1120                           
  1121                           ;Sensor_Interferencia.c: 157:     CCP1CONbits.DC1B = 0b11;
  1122  0158  3030               	movlw	48
  1123  0159  1283               	bcf	3,5	;RP0=0, select bank0
  1124  015A  1303               	bcf	3,6	;RP1=0, select bank0
  1125  015B  0497               	iorwf	23,f	;volatile
  1126  015C                     l828:	
  1127                           
  1128                           ;Sensor_Interferencia.c: 158:     CCPR1L = 13;
  1129  015C  300D               	movlw	13
  1130  015D  0095               	movwf	21	;volatile
  1131  015E                     l109:	
  1132  015E  0008               	return
  1133  015F                     __end_of_final_deg:	
  1134                           
  1135                           	psect	text6
  1136  0107                     __ptext6:	
  1137 ;; *************** function _PWM_setup *****************
  1138 ;; Defined at:
  1139 ;;		line 128 in file "Sensor_Interferencia.c"
  1140 ;; Parameters:    Size  Location     Type
  1141 ;;		None
  1142 ;; Auto vars:     Size  Location     Type
  1143 ;;		None
  1144 ;; Return value:  Size  Location     Type
  1145 ;;                  1    wreg      void 
  1146 ;; Registers used:
  1147 ;;		wreg, status,2, status,0
  1148 ;; Tracked objects:
  1149 ;;		On entry : 0/0
  1150 ;;		On exit  : 0/0
  1151 ;;		Unchanged: 0/0
  1152 ;; Data sizes:     COMMON   BANK0   BANK1   BANK3   BANK2
  1153 ;;      Params:         0       0       0       0       0
  1154 ;;      Locals:         0       0       0       0       0
  1155 ;;      Temps:          0       0       0       0       0
  1156 ;;      Totals:         0       0       0       0       0
  1157 ;;Total ram usage:        0 bytes
  1158 ;; Hardware stack levels used:    1
  1159 ;; Hardware stack levels required when called:    1
  1160 ;; This function calls:
  1161 ;;		Nothing
  1162 ;; This function is called by:
  1163 ;;		_main
  1164 ;; This function uses a non-reentrant model
  1165 ;;
  1166                           
  1167                           
  1168                           ;psect for function _PWM_setup
  1169  0107                     _PWM_setup:	
  1170  0107                     l804:	
  1171                           ;incstack = 0
  1172                           ; Regs used in _PWM_setup: [wreg+status,2+status,0]
  1173                           
  1174                           
  1175                           ;Sensor_Interferencia.c: 129:     TRISCbits.TRISC2 = 1;
  1176  0107  1683               	bsf	3,5	;RP0=1, select bank1
  1177  0108  1303               	bcf	3,6	;RP1=0, select bank1
  1178  0109  1507               	bsf	7,2	;volatile
  1179  010A                     l806:	
  1180                           
  1181                           ;Sensor_Interferencia.c: 130:     PR2 = 155;
  1182  010A  309B               	movlw	155
  1183  010B  0092               	movwf	18	;volatile
  1184  010C                     l808:	
  1185                           
  1186                           ;Sensor_Interferencia.c: 131:     CCP1CONbits.P1M = 0b00;
  1187  010C  303F               	movlw	-193
  1188  010D  1283               	bcf	3,5	;RP0=0, select bank0
  1189  010E  1303               	bcf	3,6	;RP1=0, select bank0
  1190  010F  0597               	andwf	23,f	;volatile
  1191  0110                     l810:	
  1192                           
  1193                           ;Sensor_Interferencia.c: 132:     CCP1CONbits.CCP1M = 0b1100;
  1194  0110  0817               	movf	23,w	;volatile
  1195  0111  39F0               	andlw	-16
  1196  0112  380C               	iorlw	12
  1197  0113  0097               	movwf	23	;volatile
  1198                           
  1199                           ;Sensor_Interferencia.c: 133:     CCPR1L = 27;
  1200  0114  301B               	movlw	27
  1201  0115  0095               	movwf	21	;volatile
  1202  0116                     l812:	
  1203                           
  1204                           ;Sensor_Interferencia.c: 134:     CCP1CONbits.DC1B = 0b11;
  1205  0116  3030               	movlw	48
  1206  0117  0497               	iorwf	23,f	;volatile
  1207  0118                     l814:	
  1208                           
  1209                           ;Sensor_Interferencia.c: 135:     PIR1bits.TMR2IF = 0;
  1210  0118  108C               	bcf	12,1	;volatile
  1211  0119                     l816:	
  1212                           
  1213                           ;Sensor_Interferencia.c: 136:     T2CONbits.T2CKPS = 0b11;
  1214  0119  3003               	movlw	3
  1215  011A  0492               	iorwf	18,f	;volatile
  1216  011B                     l818:	
  1217                           
  1218                           ;Sensor_Interferencia.c: 137:     T2CONbits.TMR2ON = 1;
  1219  011B  1512               	bsf	18,2	;volatile
  1220  011C                     l100:	
  1221                           ;Sensor_Interferencia.c: 139:     }
  1222                           
  1223                           
  1224                           ;Sensor_Interferencia.c: 138:     while(!TMR2IF){
  1225  011C  1C8C               	btfss	12,1	;volatile
  1226  011D  291F               	goto	u11
  1227  011E  2920               	goto	u10
  1228  011F                     u11:	
  1229  011F  291C               	goto	l100
  1230  0120                     u10:	
  1231  0120                     l102:	
  1232                           
  1233                           ;Sensor_Interferencia.c: 140:     PIR1bits.TMR2IF = 0;
  1234  0120  108C               	bcf	12,1	;volatile
  1235                           
  1236                           ;Sensor_Interferencia.c: 141:     TRISCbits.TRISC2 = 0;
  1237  0121  1683               	bsf	3,5	;RP0=1, select bank1
  1238  0122  1303               	bcf	3,6	;RP1=0, select bank1
  1239  0123  1107               	bcf	7,2	;volatile
  1240  0124                     l103:	
  1241                           ;Sensor_Interferencia.c: 143:     return;
  1242                           
  1243  0124  0008               	return
  1244  0125                     __end_of_PWM_setup:	
  1245                           
  1246                           	psect	text7
  1247  0018                     __ptext7:	
  1248 ;; *************** function _isr *****************
  1249 ;; Defined at:
  1250 ;;		line 56 in file "Sensor_Interferencia.c"
  1251 ;; Parameters:    Size  Location     Type
  1252 ;;		None
  1253 ;; Auto vars:     Size  Location     Type
  1254 ;;		None
  1255 ;; Return value:  Size  Location     Type
  1256 ;;                  1    wreg      void 
  1257 ;; Registers used:
  1258 ;;		wreg
  1259 ;; Tracked objects:
  1260 ;;		On entry : 0/0
  1261 ;;		On exit  : 0/0
  1262 ;;		Unchanged: 0/0
  1263 ;; Data sizes:     COMMON   BANK0   BANK1   BANK3   BANK2
  1264 ;;      Params:         0       0       0       0       0
  1265 ;;      Locals:         0       0       0       0       0
  1266 ;;      Temps:          3       0       0       0       0
  1267 ;;      Totals:         3       0       0       0       0
  1268 ;;Total ram usage:        3 bytes
  1269 ;; Hardware stack levels used:    1
  1270 ;; This function calls:
  1271 ;;		Nothing
  1272 ;; This function is called by:
  1273 ;;		Interrupt level 1
  1274 ;; This function uses a non-reentrant model
  1275 ;;
  1276                           
  1277                           
  1278                           ;psect for function _isr
  1279  0018                     _isr:	
  1280  0018                     i1l836:	
  1281                           
  1282                           ;Sensor_Interferencia.c: 58:     if(PIR1bits.SSPIF == 1){
  1283  0018  1283               	bcf	3,5	;RP0=0, select bank0
  1284  0019  1303               	bcf	3,6	;RP1=0, select bank0
  1285  001A  1D8C               	btfss	12,3	;volatile
  1286  001B  281D               	goto	u4_21
  1287  001C  281E               	goto	u4_20
  1288  001D                     u4_21:	
  1289  001D  2874               	goto	i1l84
  1290  001E                     u4_20:	
  1291  001E                     i1l838:	
  1292                           
  1293                           ;Sensor_Interferencia.c: 60:             SSPCONbits.CKP = 0;
  1294  001E  1214               	bcf	20,4	;volatile
  1295                           
  1296                           ;Sensor_Interferencia.c: 62:             if ((SSPCONbits.SSPOV) || (SSPCONbits.WCOL)){
  1297  001F  1B14               	btfsc	20,6	;volatile
  1298  0020  2822               	goto	u5_21
  1299  0021  2823               	goto	u5_20
  1300  0022                     u5_21:	
  1301  0022  2827               	goto	i1l842
  1302  0023                     u5_20:	
  1303  0023                     i1l840:	
  1304  0023  1F94               	btfss	20,7	;volatile
  1305  0024  2826               	goto	u6_21
  1306  0025  2827               	goto	u6_20
  1307  0026                     u6_21:	
  1308  0026  282E               	goto	i1l850
  1309  0027                     u6_20:	
  1310  0027                     i1l842:	
  1311                           
  1312                           ;Sensor_Interferencia.c: 63:                 z = SSPBUF;
  1313  0027  0813               	movf	19,w	;volatile
  1314  0028  00F0               	movwf	??_isr
  1315  0029  0870               	movf	??_isr,w
  1316  002A  00FA               	movwf	_z
  1317  002B                     i1l844:	
  1318                           
  1319                           ;Sensor_Interferencia.c: 64:                 SSPCONbits.SSPOV = 0;
  1320  002B  1314               	bcf	20,6	;volatile
  1321  002C                     i1l846:	
  1322                           
  1323                           ;Sensor_Interferencia.c: 65:                 SSPCONbits.WCOL = 0;
  1324  002C  1394               	bcf	20,7	;volatile
  1325  002D                     i1l848:	
  1326                           
  1327                           ;Sensor_Interferencia.c: 66:                 SSPCONbits.CKP = 1;
  1328  002D  1614               	bsf	20,4	;volatile
  1329  002E                     i1l850:	
  1330                           
  1331                           ;Sensor_Interferencia.c: 69:             if(!SSPSTATbits.D_nA && !SSPSTATbits.R_nW) {
  1332  002E  1683               	bsf	3,5	;RP0=1, select bank1
  1333  002F  1303               	bcf	3,6	;RP1=0, select bank1
  1334  0030  1A94               	btfsc	20,5	;volatile
  1335  0031  2833               	goto	u7_21
  1336  0032  2834               	goto	u7_20
  1337  0033                     u7_21:	
  1338  0033  2851               	goto	i1l75
  1339  0034                     u7_20:	
  1340  0034                     i1l852:	
  1341  0034  1914               	btfsc	20,2	;volatile
  1342  0035  2837               	goto	u8_21
  1343  0036  2838               	goto	u8_20
  1344  0037                     u8_21:	
  1345  0037  2851               	goto	i1l75
  1346  0038                     u8_20:	
  1347  0038                     i1l854:	
  1348                           
  1349                           ;Sensor_Interferencia.c: 70:                 z = SSPBUF;
  1350  0038  1283               	bcf	3,5	;RP0=0, select bank0
  1351  0039  1303               	bcf	3,6	;RP1=0, select bank0
  1352  003A  0813               	movf	19,w	;volatile
  1353  003B  00F0               	movwf	??_isr
  1354  003C  0870               	movf	??_isr,w
  1355  003D  00FA               	movwf	_z
  1356  003E                     i1l856:	
  1357                           
  1358                           ;Sensor_Interferencia.c: 71:                 PIR1bits.SSPIF = 0;
  1359  003E  118C               	bcf	12,3	;volatile
  1360  003F                     i1l858:	
  1361                           
  1362                           ;Sensor_Interferencia.c: 72:                 SSPCONbits.CKP = 1;
  1363  003F  1614               	bsf	20,4	;volatile
  1364  0040                     i1l76:	
  1365                           ;Sensor_Interferencia.c: 73:                 while(!SSPSTATbits.BF);
  1366                           
  1367  0040  1683               	bsf	3,5	;RP0=1, select bank1
  1368  0041  1303               	bcf	3,6	;RP1=0, select bank1
  1369  0042  1C14               	btfss	20,0	;volatile
  1370  0043  2845               	goto	u9_21
  1371  0044  2846               	goto	u9_20
  1372  0045                     u9_21:	
  1373  0045  2840               	goto	i1l76
  1374  0046                     u9_20:	
  1375  0046                     i1l860:	
  1376                           
  1377                           ;Sensor_Interferencia.c: 74:                 estado = SSPBUF;
  1378  0046  1283               	bcf	3,5	;RP0=0, select bank0
  1379  0047  1303               	bcf	3,6	;RP1=0, select bank0
  1380  0048  0813               	movf	19,w	;volatile
  1381  0049  00F0               	movwf	??_isr
  1382  004A  0870               	movf	??_isr,w
  1383  004B  00F9               	movwf	_estado
  1384                           
  1385                           ;Sensor_Interferencia.c: 75:                 _delay((unsigned long)((250)*(500000/400000
      +                          0.0)));
  1386  004C  300A               	movlw	10
  1387  004D  00F0               	movwf	??_isr
  1388  004E                     u17_27:	
  1389  004E  0BF0               	decfsz	??_isr,f
  1390  004F  284E               	goto	u17_27
  1391                           
  1392                           ;Sensor_Interferencia.c: 77:             }else if(!SSPSTATbits.D_nA && SSPSTATbits.R_nW)
      +                          {
  1393  0050  2871               	goto	i1l79
  1394  0051                     i1l75:	
  1395  0051  1A94               	btfsc	20,5	;volatile
  1396  0052  2854               	goto	u10_21
  1397  0053  2855               	goto	u10_20
  1398  0054                     u10_21:	
  1399  0054  2871               	goto	i1l79
  1400  0055                     u10_20:	
  1401  0055                     i1l862:	
  1402  0055  1D14               	btfss	20,2	;volatile
  1403  0056  2858               	goto	u11_21
  1404  0057  2859               	goto	u11_20
  1405  0058                     u11_21:	
  1406  0058  2871               	goto	i1l79
  1407  0059                     u11_20:	
  1408  0059                     i1l864:	
  1409                           
  1410                           ;Sensor_Interferencia.c: 78:                 z = SSPBUF;
  1411  0059  1283               	bcf	3,5	;RP0=0, select bank0
  1412  005A  1303               	bcf	3,6	;RP1=0, select bank0
  1413  005B  0813               	movf	19,w	;volatile
  1414  005C  00F0               	movwf	??_isr
  1415  005D  0870               	movf	??_isr,w
  1416  005E  00FA               	movwf	_z
  1417  005F                     i1l866:	
  1418                           
  1419                           ;Sensor_Interferencia.c: 79:                 BF = 0;
  1420  005F  1683               	bsf	3,5	;RP0=1, select bank1
  1421  0060  1303               	bcf	3,6	;RP1=0, select bank1
  1422  0061  1014               	bcf	20,0	;volatile
  1423                           
  1424                           ;Sensor_Interferencia.c: 80:                 SSPBUF = estado;
  1425  0062  0879               	movf	_estado,w
  1426  0063  1283               	bcf	3,5	;RP0=0, select bank0
  1427  0064  1303               	bcf	3,6	;RP1=0, select bank0
  1428  0065  0093               	movwf	19	;volatile
  1429  0066                     i1l868:	
  1430                           
  1431                           ;Sensor_Interferencia.c: 81:                 SSPCONbits.CKP = 1;
  1432  0066  1614               	bsf	20,4	;volatile
  1433                           
  1434                           ;Sensor_Interferencia.c: 82:                 _delay((unsigned long)((250)*(500000/400000
      +                          0.0)));
  1435  0067  300A               	movlw	10
  1436  0068  00F0               	movwf	??_isr
  1437  0069                     u18_27:	
  1438  0069  0BF0               	decfsz	??_isr,f
  1439  006A  2869               	goto	u18_27
  1440  006B                     i1l81:	
  1441                           ;Sensor_Interferencia.c: 83:                 while(SSPSTATbits.BF);
  1442                           
  1443  006B  1683               	bsf	3,5	;RP0=1, select bank1
  1444  006C  1303               	bcf	3,6	;RP1=0, select bank1
  1445  006D  1814               	btfsc	20,0	;volatile
  1446  006E  2870               	goto	u12_21
  1447  006F  2871               	goto	u12_20
  1448  0070                     u12_21:	
  1449  0070  286B               	goto	i1l81
  1450  0071                     u12_20:	
  1451  0071                     i1l79:	
  1452                           
  1453                           ;Sensor_Interferencia.c: 86:             PIR1bits.SSPIF = 0;
  1454  0071  1283               	bcf	3,5	;RP0=0, select bank0
  1455  0072  1303               	bcf	3,6	;RP1=0, select bank0
  1456  0073  118C               	bcf	12,3	;volatile
  1457  0074                     i1l84:	
  1458  0074  0872               	movf	??_isr+2,w
  1459  0075  008A               	movwf	10
  1460  0076  0E71               	swapf	(??_isr+1)^(0+4294967168),w
  1461  0077  0083               	movwf	3
  1462  0078  0EFE               	swapf	btemp,f
  1463  0079  0E7E               	swapf	btemp,w
  1464  007A  0009               	retfie
  1465  007B                     __end_of_isr:	
  1466  007E                     btemp	set	126	;btemp
  1467  007E                     wtemp0	set	126
  1468                           
  1469                           	psect	intentry
  1470  0004                     __pintentry:	
  1471                           ;incstack = 0
  1472                           ; Regs used in _isr: [wreg]
  1473                           
  1474  0004                     interrupt_function:	
  1475  007E                     saved_w	set	btemp
  1476  0004  00FE               	movwf	btemp
  1477  0005  0E03               	swapf	3,w
  1478  0006  00F1               	movwf	??_isr+1
  1479  0007  080A               	movf	10,w
  1480  0008  00F2               	movwf	??_isr+2
  1481  0009  120A  118A  2818   	ljmp	_isr


Data Sizes:
    Strings     0
    Constant    0
    Data        0
    BSS         5
    Persistent  0
    Stack       0

Auto Spaces:
    Space          Size  Autos    Used
    COMMON           14      6      11
    BANK0            80      0       0
    BANK1            80      0       0
    BANK3            96      0       0
    BANK2            96      0       0

Pointer List with Targets:

    None.

Critical Paths under _main in COMMON

    _main->_initOsc
    _init->_I2C_Slave_Init

Critical Paths under _isr in COMMON

    None.

Critical Paths under _main in BANK0

    None.

Critical Paths under _isr in BANK0

    None.

Critical Paths under _main in BANK1

    None.

Critical Paths under _isr in BANK1

    None.

Critical Paths under _main in BANK3

    None.

Critical Paths under _isr in BANK3

    None.

Critical Paths under _main in BANK2

    None.

Critical Paths under _isr in BANK2

    None.

Call Graph Tables:

 ---------------------------------------------------------------------------------
 (Depth) Function   	        Calls       Base Space   Used Autos Params    Refs
 ---------------------------------------------------------------------------------
 (0) _main                                                 0     0      0      30
                          _PWM_setup
                          _final_deg
                               _init
                            _initOsc
                           _zero_deg
 ---------------------------------------------------------------------------------
 (1) _zero_deg                                             0     0      0       0
 ---------------------------------------------------------------------------------
 (1) _initOsc                                              3     3      0      15
                                              3 COMMON     3     3      0
 ---------------------------------------------------------------------------------
 (1) _init                                                 0     0      0      15
                     _I2C_Slave_Init
 ---------------------------------------------------------------------------------
 (2) _I2C_Slave_Init                                       1     1      0      15
                                              3 COMMON     1     1      0
 ---------------------------------------------------------------------------------
 (1) _final_deg                                            0     0      0       0
 ---------------------------------------------------------------------------------
 (1) _PWM_setup                                            0     0      0       0
 ---------------------------------------------------------------------------------
 Estimated maximum stack depth 2
 ---------------------------------------------------------------------------------
 (Depth) Function   	        Calls       Base Space   Used Autos Params    Refs
 ---------------------------------------------------------------------------------
 (3) _isr                                                  3     3      0       0
                                              0 COMMON     3     3      0
 ---------------------------------------------------------------------------------
 Estimated maximum stack depth 3
 ---------------------------------------------------------------------------------

 Call Graph Graphs:

 _main (ROOT)
   _PWM_setup
   _final_deg
   _init
     _I2C_Slave_Init
   _initOsc
   _zero_deg

 _isr (ROOT)

 Address spaces:
Name               Size   Autos  Total    Cost      Usage
BITCOMMON            E      0       0       0        0.0%
EEDATA             100      0       0       0        0.0%
NULL                 0      0       0       0        0.0%
CODE                 0      0       0       0        0.0%
COMMON               E      6       B       1       78.6%
BITSFR0              0      0       0       1        0.0%
SFR0                 0      0       0       1        0.0%
BITSFR1              0      0       0       2        0.0%
SFR1                 0      0       0       2        0.0%
STACK                0      0       0       2        0.0%
ABS                  0      0       B       3        0.0%
BITBANK0            50      0       0       4        0.0%
BITSFR3              0      0       0       4        0.0%
SFR3                 0      0       0       4        0.0%
BANK0               50      0       0       5        0.0%
BITSFR2              0      0       0       5        0.0%
SFR2                 0      0       0       5        0.0%
BITBANK1            50      0       0       6        0.0%
BANK1               50      0       0       7        0.0%
BITBANK3            60      0       0       8        0.0%
BANK3               60      0       0       9        0.0%
BITBANK2            60      0       0      10        0.0%
BANK2               60      0       0      11        0.0%
DATA                 0      0       B      12        0.0%


Microchip Technology PIC Macro Assembler V2.10 build 88905656 
Symbol Table                                                                                   Wed Mar 11 15:48:56 2020

                       _z 007A               __CFG_CP$OFF 0000               _SSPSTATbits 0094  
                      _BF 04A0                        l97 0150                        u10 0120  
                      u11 011F                       l100 011C                       l102 0120  
                     l103 0124                       l106 0157                       l109 015E  
                     l162 013E                       l170 0083                       l171 0089  
                     l172 008F                       l173 0095                       l174 009B  
                     l175 00A1                       l176 00A7                       l168 007D  
                     l177 00AD                       l169 00D5                       l178 00D6  
                     l800 0149                       l810 0110                       l802 014A  
                     l812 0116                       l804 0107                       l820 0151  
                     l814 0118                       l806 010A                       l822 0155  
                     l816 0119                       l808 010C                       l818 011B  
                     l826 0158                       l770 0126                       l828 015C  
                     l780 0138                       l772 0134                       l782 013B  
                     l774 0135                       l870 00D7                       l776 0136  
                     l784 007C                       l880 00EB                       l872 00DD  
                     l778 0137                       l794 013F                       l954 00BB  
                     l890 00FE                       l882 00EC                       l874 00E2  
                     l796 0144                       l788 00B3                       l884 00ED  
                     l876 00E7                       l798 0146                       l886 00F3  
                     l878 00EA                       l888 00F8                       _GIE 005F  
                     u130 00F8                       u131 00F7                       _PR2 0092  
            __CFG_CPD$OFF 0000                       _isr 0018              __CFG_LVP$OFF 0000  
                    ?_isr 0070                      _PEIE 005E                      i1l81 006B  
                    i1l75 0051                      i1l76 0040                      i1l84 0074  
                    i1l79 0071                      u4_20 001E                      u4_21 001D  
                    u5_20 0023                      u5_21 0022                      u6_20 0027  
                    u6_21 0026                      u7_20 0034                      u7_21 0033  
                    u8_20 0038                      u8_21 0037                      u9_20 0046  
                    u9_21 0045              __CFG_WRT$OFF 0000                      _main 00D7  
                    _init 013F                      btemp 007E                      start 000C  
           __CFG_IESO$OFF 0000                     ??_isr 0070                     ?_main 0070  
                   ?_init 0070             __CFG_WDTE$OFF 0000                     _ANSEL 0188  
                   i1l840 0023                     i1l850 002E                     i1l842 0027  
                   i1l860 0046                     i1l852 0034                     i1l844 002B  
                   i1l836 0018                     i1l862 0055                     i1l854 0038  
                   i1l846 002C                     i1l838 001E                     i1l864 0059  
                   i1l856 003E                     i1l848 002D                     i1l866 005F  
                   i1l858 003F                     i1l868 0066                     u10_20 0055  
                   u10_21 0054                     u11_20 0059                     u11_21 0058  
                   u12_20 0071                     u12_21 0070                     u17_27 004E  
                   u18_27 0069                     _PORTA 0005                     _PORTB 0006  
                   _PORTC 0007                     _PORTD 0008                     _TRISA 0085  
                   _TRISB 0086                     _TRISC 0087                     _TRISD 0088  
                   _SSPIE 0463                     _SSPIF 0063            __CFG_FCMEN$OFF 0000  
         __end_of_initOsc 00D7            __CFG_BOREN$OFF 0000                     pclath 000A  
                   status 0003                     wtemp0 007E            __CFG_MCLRE$OFF 0000  
         __initialization 000F        __size_of_PWM_setup 001E              __end_of_main 0107  
            __end_of_init 0151                    ??_main 0076                    ??_init 0074  
                  _CCPR1L 0015                    _ANSELH 0189               initOsc@frec 0075  
                  _TMR2IF 0061                    _SSPADD 0093                    _TRISC3 043B  
                  _TRISC4 043C                    _SSPBUF 0013                    _SSPCON 0014  
          __CFG_PWRTE$OFF 0000                    _estado 0079                 ??_initOsc 0073  
                  saved_w 007E         __end_of_PWM_setup 0125          __end_of_zero_deg 0158  
 __end_of__initialization 0014            __pcstackCOMMON 0070   __size_of_I2C_Slave_Init 001A  
      __size_of_final_deg 0007     I2C_Slave_Init@address 0073                __pmaintext 00D7  
              __pintentry 0004                   _SSPCON2 0091                   _SSPSTAT 0094  
       __end_of_final_deg 015F                 ?_zero_deg 0070                   __ptext1 0151  
                 __ptext2 007B                   __ptext3 013F                   __ptext4 0125  
                 __ptext5 0158                   __ptext6 0107                   __ptext7 0018  
                 _initOsc 007B                 _T2CONbits 0012              __size_of_isr 0063  
    end_of_initialization 0014                _move_servo 0076            _I2C_Slave_Init 0125  
              ??_zero_deg 0073                 _PORTDbits 0008                 _TRISCbits 0087  
               _PWM_setup 0107               _CCP1CONbits 0017    __end_of_I2C_Slave_Init 013F  
     start_initialization 000F               __end_of_isr 007B                ?_PWM_setup 0070  
__CFG_FOSC$INTRC_NOCLKOUT 0000           ?_I2C_Slave_Init 0070               __pbssCOMMON 0076  
               ___latbits 0002                 _final_deg 0158         __size_of_zero_deg 0007  
                ?_initOsc 0070               ??_PWM_setup 0073         interrupt_function 0004  
                _PIR1bits 000C                ?_final_deg 0070          __size_of_initOsc 005C  
           _sensor_signal 0078         __CFG_BOR4V$BOR40V 0000          ??_I2C_Slave_Init 0073  
           __size_of_main 0030             __size_of_init 0012               ??_final_deg 0073  
                _zero_deg 0151                  intlevel1 0000                _OSCCONbits 008F  
             _SSPCON2bits 0091                _SSPCONbits 0014  
